ARM GAS  C:\Users\744\AppData\Local\Temp\cc4Oz7Ub.s 			page 1


   1              		.cpu cortex-m0
   2              		.fpu softvfp
   3              		.eabi_attribute 20, 1
   4              		.eabi_attribute 21, 1
   5              		.eabi_attribute 23, 3
   6              		.eabi_attribute 24, 1
   7              		.eabi_attribute 25, 1
   8              		.eabi_attribute 26, 1
   9              		.eabi_attribute 30, 1
  10              		.eabi_attribute 34, 0
  11              		.eabi_attribute 18, 4
  12              		.code	16
  13              		.file	"i2c_I2C_SLAVE.c"
  14              		.text
  15              	.Ltext0:
  16              		.cfi_sections	.debug_frame
  17              		.section	.text.i2c_I2CSlaveStatus,"ax",%progbits
  18              		.align	2
  19              		.global	i2c_I2CSlaveStatus
  20              		.code	16
  21              		.thumb_func
  22              		.type	i2c_I2CSlaveStatus, %function
  23              	i2c_I2CSlaveStatus:
  24              	.LFB0:
  25              		.file 1 ".\\Generated_Source\\PSoC4\\i2c_I2C_SLAVE.c"
   1:.\Generated_Source\PSoC4/i2c_I2C_SLAVE.c **** /*******************************************************************************
   2:.\Generated_Source\PSoC4/i2c_I2C_SLAVE.c **** * File Name: i2c_I2C_SLAVE.c
   3:.\Generated_Source\PSoC4/i2c_I2C_SLAVE.c **** * Version 3.10
   4:.\Generated_Source\PSoC4/i2c_I2C_SLAVE.c **** *
   5:.\Generated_Source\PSoC4/i2c_I2C_SLAVE.c **** * Description:
   6:.\Generated_Source\PSoC4/i2c_I2C_SLAVE.c **** *  This file provides the source code to the API for the SCB Component in
   7:.\Generated_Source\PSoC4/i2c_I2C_SLAVE.c **** *  I2C Slave mode.
   8:.\Generated_Source\PSoC4/i2c_I2C_SLAVE.c **** *
   9:.\Generated_Source\PSoC4/i2c_I2C_SLAVE.c **** * Note:
  10:.\Generated_Source\PSoC4/i2c_I2C_SLAVE.c **** *
  11:.\Generated_Source\PSoC4/i2c_I2C_SLAVE.c **** *******************************************************************************
  12:.\Generated_Source\PSoC4/i2c_I2C_SLAVE.c **** * Copyright 2013-2015, Cypress Semiconductor Corporation.  All rights reserved.
  13:.\Generated_Source\PSoC4/i2c_I2C_SLAVE.c **** * You may use this file only in accordance with the license, terms, conditions,
  14:.\Generated_Source\PSoC4/i2c_I2C_SLAVE.c **** * disclaimers, and limitations in the end user license agreement accompanying
  15:.\Generated_Source\PSoC4/i2c_I2C_SLAVE.c **** * the software package with which this file was provided.
  16:.\Generated_Source\PSoC4/i2c_I2C_SLAVE.c **** *******************************************************************************/
  17:.\Generated_Source\PSoC4/i2c_I2C_SLAVE.c **** 
  18:.\Generated_Source\PSoC4/i2c_I2C_SLAVE.c **** #include "i2c_I2C_PVT.h"
  19:.\Generated_Source\PSoC4/i2c_I2C_SLAVE.c **** 
  20:.\Generated_Source\PSoC4/i2c_I2C_SLAVE.c **** #if(i2c_I2C_SLAVE_CONST)
  21:.\Generated_Source\PSoC4/i2c_I2C_SLAVE.c **** 
  22:.\Generated_Source\PSoC4/i2c_I2C_SLAVE.c **** /***************************************
  23:.\Generated_Source\PSoC4/i2c_I2C_SLAVE.c **** *      I2C Slave Private Vars
  24:.\Generated_Source\PSoC4/i2c_I2C_SLAVE.c **** ***************************************/
  25:.\Generated_Source\PSoC4/i2c_I2C_SLAVE.c **** 
  26:.\Generated_Source\PSoC4/i2c_I2C_SLAVE.c **** volatile uint8 i2c_slStatus;          /* Slave Status */
  27:.\Generated_Source\PSoC4/i2c_I2C_SLAVE.c **** 
  28:.\Generated_Source\PSoC4/i2c_I2C_SLAVE.c **** /* Receive buffer variables */
  29:.\Generated_Source\PSoC4/i2c_I2C_SLAVE.c **** volatile uint8 * i2c_slWrBufPtr;      /* Pointer to Receive buffer  */
  30:.\Generated_Source\PSoC4/i2c_I2C_SLAVE.c **** volatile uint32  i2c_slWrBufSize;     /* Slave Receive buffer size  */
  31:.\Generated_Source\PSoC4/i2c_I2C_SLAVE.c **** volatile uint32  i2c_slWrBufIndex;    /* Slave Receive buffer Index */
  32:.\Generated_Source\PSoC4/i2c_I2C_SLAVE.c **** 
ARM GAS  C:\Users\744\AppData\Local\Temp\cc4Oz7Ub.s 			page 2


  33:.\Generated_Source\PSoC4/i2c_I2C_SLAVE.c **** /* Transmit buffer variables */
  34:.\Generated_Source\PSoC4/i2c_I2C_SLAVE.c **** volatile uint8 * i2c_slRdBufPtr;      /* Pointer to Transmit buffer  */
  35:.\Generated_Source\PSoC4/i2c_I2C_SLAVE.c **** volatile uint32  i2c_slRdBufSize;     /* Slave Transmit buffer size  */
  36:.\Generated_Source\PSoC4/i2c_I2C_SLAVE.c **** volatile uint32  i2c_slRdBufIndex;    /* Slave Transmit buffer Index */
  37:.\Generated_Source\PSoC4/i2c_I2C_SLAVE.c **** volatile uint32  i2c_slRdBufIndexTmp; /* Slave Transmit buffer Index Tmp */
  38:.\Generated_Source\PSoC4/i2c_I2C_SLAVE.c **** volatile uint8   i2c_slOverFlowCount; /* Slave Transmit Overflow counter */
  39:.\Generated_Source\PSoC4/i2c_I2C_SLAVE.c **** 
  40:.\Generated_Source\PSoC4/i2c_I2C_SLAVE.c **** #if (i2c_I2C_CUSTOM_ADDRESS_HANDLER_CONST)
  41:.\Generated_Source\PSoC4/i2c_I2C_SLAVE.c **** 
  42:.\Generated_Source\PSoC4/i2c_I2C_SLAVE.c ****     uint32 (*i2c_customAddressHandler)(void) = NULL;
  43:.\Generated_Source\PSoC4/i2c_I2C_SLAVE.c **** 
  44:.\Generated_Source\PSoC4/i2c_I2C_SLAVE.c **** 
  45:.\Generated_Source\PSoC4/i2c_I2C_SLAVE.c ****     /*******************************************************************************
  46:.\Generated_Source\PSoC4/i2c_I2C_SLAVE.c ****     * Function Name: i2c_SetI2cAddressCustomInterruptHandler
  47:.\Generated_Source\PSoC4/i2c_I2C_SLAVE.c ****     ********************************************************************************
  48:.\Generated_Source\PSoC4/i2c_I2C_SLAVE.c ****     *
  49:.\Generated_Source\PSoC4/i2c_I2C_SLAVE.c ****     * Summary:
  50:.\Generated_Source\PSoC4/i2c_I2C_SLAVE.c ****     *  Registers a function to be called by the I2C slave interrupt handler during
  51:.\Generated_Source\PSoC4/i2c_I2C_SLAVE.c ****     *  the I2C interrupt address processing. This function should be used when
  52:.\Generated_Source\PSoC4/i2c_I2C_SLAVE.c ****     *  multiple I2C addresses need to be decoded or general call address supported.
  53:.\Generated_Source\PSoC4/i2c_I2C_SLAVE.c ****     *  The registered function must return decision whether to ACK or NACK address.
  54:.\Generated_Source\PSoC4/i2c_I2C_SLAVE.c ****     *  Only one I2C address handler is supported, which is the function provided
  55:.\Generated_Source\PSoC4/i2c_I2C_SLAVE.c ****     *  by the most recent call.
  56:.\Generated_Source\PSoC4/i2c_I2C_SLAVE.c ****     *  At initialization time no I2C address handler is registered.
  57:.\Generated_Source\PSoC4/i2c_I2C_SLAVE.c ****     *
  58:.\Generated_Source\PSoC4/i2c_I2C_SLAVE.c ****     * Parameters:
  59:.\Generated_Source\PSoC4/i2c_I2C_SLAVE.c ****     *  func: Pointer to the function to register.
  60:.\Generated_Source\PSoC4/i2c_I2C_SLAVE.c ****     *        The value NULL indicates to remove the current custom interrupt
  61:.\Generated_Source\PSoC4/i2c_I2C_SLAVE.c ****     *        handler.
  62:.\Generated_Source\PSoC4/i2c_I2C_SLAVE.c ****     *
  63:.\Generated_Source\PSoC4/i2c_I2C_SLAVE.c ****     * Return:
  64:.\Generated_Source\PSoC4/i2c_I2C_SLAVE.c ****     *  None
  65:.\Generated_Source\PSoC4/i2c_I2C_SLAVE.c ****     *
  66:.\Generated_Source\PSoC4/i2c_I2C_SLAVE.c ****     *******************************************************************************/
  67:.\Generated_Source\PSoC4/i2c_I2C_SLAVE.c ****     void i2c_SetI2cAddressCustomInterruptHandler(uint32 (*func) (void))
  68:.\Generated_Source\PSoC4/i2c_I2C_SLAVE.c ****     {
  69:.\Generated_Source\PSoC4/i2c_I2C_SLAVE.c ****         /* Register custom address handler */
  70:.\Generated_Source\PSoC4/i2c_I2C_SLAVE.c ****         i2c_customAddressHandler = func;
  71:.\Generated_Source\PSoC4/i2c_I2C_SLAVE.c ****     }
  72:.\Generated_Source\PSoC4/i2c_I2C_SLAVE.c **** #endif /* (i2c_I2C_CUSTOM_ADDRESS_HANDLER_CONST) */
  73:.\Generated_Source\PSoC4/i2c_I2C_SLAVE.c **** 
  74:.\Generated_Source\PSoC4/i2c_I2C_SLAVE.c **** 
  75:.\Generated_Source\PSoC4/i2c_I2C_SLAVE.c **** /*******************************************************************************
  76:.\Generated_Source\PSoC4/i2c_I2C_SLAVE.c **** * Function Name: i2c_I2CSlaveStatus
  77:.\Generated_Source\PSoC4/i2c_I2C_SLAVE.c **** ********************************************************************************
  78:.\Generated_Source\PSoC4/i2c_I2C_SLAVE.c **** *
  79:.\Generated_Source\PSoC4/i2c_I2C_SLAVE.c **** * Summary:
  80:.\Generated_Source\PSoC4/i2c_I2C_SLAVE.c **** *  Returns the I2C slave's communication status.
  81:.\Generated_Source\PSoC4/i2c_I2C_SLAVE.c **** *
  82:.\Generated_Source\PSoC4/i2c_I2C_SLAVE.c **** * Parameters:
  83:.\Generated_Source\PSoC4/i2c_I2C_SLAVE.c **** *  None
  84:.\Generated_Source\PSoC4/i2c_I2C_SLAVE.c **** *
  85:.\Generated_Source\PSoC4/i2c_I2C_SLAVE.c **** * Return:
  86:.\Generated_Source\PSoC4/i2c_I2C_SLAVE.c **** *  Current status of I2C slave.
  87:.\Generated_Source\PSoC4/i2c_I2C_SLAVE.c **** *
  88:.\Generated_Source\PSoC4/i2c_I2C_SLAVE.c **** * Global variables:
  89:.\Generated_Source\PSoC4/i2c_I2C_SLAVE.c **** *  i2c_slStatus - used to store current status of I2C slave.
ARM GAS  C:\Users\744\AppData\Local\Temp\cc4Oz7Ub.s 			page 3


  90:.\Generated_Source\PSoC4/i2c_I2C_SLAVE.c **** *
  91:.\Generated_Source\PSoC4/i2c_I2C_SLAVE.c **** *******************************************************************************/
  92:.\Generated_Source\PSoC4/i2c_I2C_SLAVE.c **** uint32 i2c_I2CSlaveStatus(void)
  93:.\Generated_Source\PSoC4/i2c_I2C_SLAVE.c **** {
  26              		.loc 1 93 0
  27              		.cfi_startproc
  94:.\Generated_Source\PSoC4/i2c_I2C_SLAVE.c ****     return((uint32) i2c_slStatus);
  28              		.loc 1 94 0
  29 0000 014B     		ldr	r3, .L2
  30 0002 1878     		ldrb	r0, [r3]
  31 0004 C0B2     		uxtb	r0, r0
  95:.\Generated_Source\PSoC4/i2c_I2C_SLAVE.c **** }
  32              		.loc 1 95 0
  33              		@ sp needed
  34 0006 7047     		bx	lr
  35              	.L3:
  36              		.align	2
  37              	.L2:
  38 0008 00000000 		.word	i2c_slStatus
  39              		.cfi_endproc
  40              	.LFE0:
  41              		.size	i2c_I2CSlaveStatus, .-i2c_I2CSlaveStatus
  42              		.section	.text.i2c_I2CSlaveClearReadStatus,"ax",%progbits
  43              		.align	2
  44              		.global	i2c_I2CSlaveClearReadStatus
  45              		.code	16
  46              		.thumb_func
  47              		.type	i2c_I2CSlaveClearReadStatus, %function
  48              	i2c_I2CSlaveClearReadStatus:
  49              	.LFB1:
  96:.\Generated_Source\PSoC4/i2c_I2C_SLAVE.c **** 
  97:.\Generated_Source\PSoC4/i2c_I2C_SLAVE.c **** 
  98:.\Generated_Source\PSoC4/i2c_I2C_SLAVE.c **** /*******************************************************************************
  99:.\Generated_Source\PSoC4/i2c_I2C_SLAVE.c **** * Function Name: i2c_I2CSlaveClearReadStatus
 100:.\Generated_Source\PSoC4/i2c_I2C_SLAVE.c **** ********************************************************************************
 101:.\Generated_Source\PSoC4/i2c_I2C_SLAVE.c **** *
 102:.\Generated_Source\PSoC4/i2c_I2C_SLAVE.c **** * Summary:
 103:.\Generated_Source\PSoC4/i2c_I2C_SLAVE.c **** *  Clears the read status flags and returns their values. No other status flags
 104:.\Generated_Source\PSoC4/i2c_I2C_SLAVE.c **** *  are affected.
 105:.\Generated_Source\PSoC4/i2c_I2C_SLAVE.c **** *
 106:.\Generated_Source\PSoC4/i2c_I2C_SLAVE.c **** * Parameters:
 107:.\Generated_Source\PSoC4/i2c_I2C_SLAVE.c **** *  None
 108:.\Generated_Source\PSoC4/i2c_I2C_SLAVE.c **** *
 109:.\Generated_Source\PSoC4/i2c_I2C_SLAVE.c **** * Return:
 110:.\Generated_Source\PSoC4/i2c_I2C_SLAVE.c **** *  Current read status of I2C slave.
 111:.\Generated_Source\PSoC4/i2c_I2C_SLAVE.c **** *
 112:.\Generated_Source\PSoC4/i2c_I2C_SLAVE.c **** * Global variables:
 113:.\Generated_Source\PSoC4/i2c_I2C_SLAVE.c **** *  i2c_slStatus  - used to store current status of I2C slave.
 114:.\Generated_Source\PSoC4/i2c_I2C_SLAVE.c **** *
 115:.\Generated_Source\PSoC4/i2c_I2C_SLAVE.c **** *******************************************************************************/
 116:.\Generated_Source\PSoC4/i2c_I2C_SLAVE.c **** uint32 i2c_I2CSlaveClearReadStatus(void)
 117:.\Generated_Source\PSoC4/i2c_I2C_SLAVE.c **** {
  50              		.loc 1 117 0
  51              		.cfi_startproc
  52 0000 10B5     		push	{r4, lr}
  53              		.cfi_def_cfa_offset 8
  54              		.cfi_offset 4, -8
ARM GAS  C:\Users\744\AppData\Local\Temp\cc4Oz7Ub.s 			page 4


  55              		.cfi_offset 14, -4
 118:.\Generated_Source\PSoC4/i2c_I2C_SLAVE.c ****     uint32 status;
 119:.\Generated_Source\PSoC4/i2c_I2C_SLAVE.c **** 
 120:.\Generated_Source\PSoC4/i2c_I2C_SLAVE.c ****     i2c_DisableInt();  /* Lock from interruption */
  56              		.loc 1 120 0
  57 0002 0B20     		mov	r0, #11
  58 0004 FFF7FEFF 		bl	CyIntDisable
  59              	.LVL0:
 121:.\Generated_Source\PSoC4/i2c_I2C_SLAVE.c **** 
 122:.\Generated_Source\PSoC4/i2c_I2C_SLAVE.c ****     /* Mask of transfer complete flag and error status */
 123:.\Generated_Source\PSoC4/i2c_I2C_SLAVE.c ****     status = ((uint32) i2c_slStatus & i2c_I2C_SSTAT_RD_MASK);
  60              		.loc 1 123 0
  61 0008 064A     		ldr	r2, .L5
  62 000a 1478     		ldrb	r4, [r2]
  63 000c 0F23     		mov	r3, #15
  64 000e 1C40     		and	r4, r3
  65              	.LVL1:
 124:.\Generated_Source\PSoC4/i2c_I2C_SLAVE.c ****     i2c_slStatus &= (uint8) ~i2c_I2C_SSTAT_RD_CLEAR;
  66              		.loc 1 124 0
  67 0010 1378     		ldrb	r3, [r2]
  68 0012 0D21     		mov	r1, #13
  69 0014 8B43     		bic	r3, r1
  70 0016 1370     		strb	r3, [r2]
 125:.\Generated_Source\PSoC4/i2c_I2C_SLAVE.c **** 
 126:.\Generated_Source\PSoC4/i2c_I2C_SLAVE.c ****     i2c_EnableInt();   /* Release lock */
  71              		.loc 1 126 0
  72 0018 0B20     		mov	r0, #11
  73 001a FFF7FEFF 		bl	CyIntEnable
  74              	.LVL2:
 127:.\Generated_Source\PSoC4/i2c_I2C_SLAVE.c **** 
 128:.\Generated_Source\PSoC4/i2c_I2C_SLAVE.c ****     return(status);
 129:.\Generated_Source\PSoC4/i2c_I2C_SLAVE.c **** }
  75              		.loc 1 129 0
  76 001e 201C     		mov	r0, r4
  77              		@ sp needed
  78              	.LVL3:
  79 0020 10BD     		pop	{r4, pc}
  80              	.L6:
  81 0022 C046     		.align	2
  82              	.L5:
  83 0024 00000000 		.word	i2c_slStatus
  84              		.cfi_endproc
  85              	.LFE1:
  86              		.size	i2c_I2CSlaveClearReadStatus, .-i2c_I2CSlaveClearReadStatus
  87              		.section	.text.i2c_I2CSlaveClearWriteStatus,"ax",%progbits
  88              		.align	2
  89              		.global	i2c_I2CSlaveClearWriteStatus
  90              		.code	16
  91              		.thumb_func
  92              		.type	i2c_I2CSlaveClearWriteStatus, %function
  93              	i2c_I2CSlaveClearWriteStatus:
  94              	.LFB2:
 130:.\Generated_Source\PSoC4/i2c_I2C_SLAVE.c **** 
 131:.\Generated_Source\PSoC4/i2c_I2C_SLAVE.c **** 
 132:.\Generated_Source\PSoC4/i2c_I2C_SLAVE.c **** /*******************************************************************************
 133:.\Generated_Source\PSoC4/i2c_I2C_SLAVE.c **** * Function Name: i2c_I2CSlaveClearWriteStatus
 134:.\Generated_Source\PSoC4/i2c_I2C_SLAVE.c **** ********************************************************************************
ARM GAS  C:\Users\744\AppData\Local\Temp\cc4Oz7Ub.s 			page 5


 135:.\Generated_Source\PSoC4/i2c_I2C_SLAVE.c **** *
 136:.\Generated_Source\PSoC4/i2c_I2C_SLAVE.c **** * Summary:
 137:.\Generated_Source\PSoC4/i2c_I2C_SLAVE.c **** *  Clears the write status flags and returns their values. No other status flags
 138:.\Generated_Source\PSoC4/i2c_I2C_SLAVE.c **** *  are affected.
 139:.\Generated_Source\PSoC4/i2c_I2C_SLAVE.c **** *
 140:.\Generated_Source\PSoC4/i2c_I2C_SLAVE.c **** * Parameters:
 141:.\Generated_Source\PSoC4/i2c_I2C_SLAVE.c **** *  None
 142:.\Generated_Source\PSoC4/i2c_I2C_SLAVE.c **** *
 143:.\Generated_Source\PSoC4/i2c_I2C_SLAVE.c **** * Return:
 144:.\Generated_Source\PSoC4/i2c_I2C_SLAVE.c **** *  Current write status of I2C slave.
 145:.\Generated_Source\PSoC4/i2c_I2C_SLAVE.c **** *
 146:.\Generated_Source\PSoC4/i2c_I2C_SLAVE.c **** * Global variables:
 147:.\Generated_Source\PSoC4/i2c_I2C_SLAVE.c **** *  i2c_slStatus  - used to store current status of I2C slave.
 148:.\Generated_Source\PSoC4/i2c_I2C_SLAVE.c **** *
 149:.\Generated_Source\PSoC4/i2c_I2C_SLAVE.c **** *******************************************************************************/
 150:.\Generated_Source\PSoC4/i2c_I2C_SLAVE.c **** uint32 i2c_I2CSlaveClearWriteStatus(void)
 151:.\Generated_Source\PSoC4/i2c_I2C_SLAVE.c **** {
  95              		.loc 1 151 0
  96              		.cfi_startproc
  97 0000 10B5     		push	{r4, lr}
  98              		.cfi_def_cfa_offset 8
  99              		.cfi_offset 4, -8
 100              		.cfi_offset 14, -4
 152:.\Generated_Source\PSoC4/i2c_I2C_SLAVE.c ****     uint32 status;
 153:.\Generated_Source\PSoC4/i2c_I2C_SLAVE.c **** 
 154:.\Generated_Source\PSoC4/i2c_I2C_SLAVE.c ****     i2c_DisableInt();  /* Lock from interruption */
 101              		.loc 1 154 0
 102 0002 0B20     		mov	r0, #11
 103 0004 FFF7FEFF 		bl	CyIntDisable
 104              	.LVL4:
 155:.\Generated_Source\PSoC4/i2c_I2C_SLAVE.c **** 
 156:.\Generated_Source\PSoC4/i2c_I2C_SLAVE.c ****     /* Mask of transfer complete flag and Error status */
 157:.\Generated_Source\PSoC4/i2c_I2C_SLAVE.c ****     status = ((uint32) i2c_slStatus & i2c_I2C_SSTAT_WR_MASK);
 105              		.loc 1 157 0
 106 0008 064B     		ldr	r3, .L8
 107 000a 1C78     		ldrb	r4, [r3]
 108 000c 0F22     		mov	r2, #15
 109 000e 9443     		bic	r4, r2
 110              	.LVL5:
 158:.\Generated_Source\PSoC4/i2c_I2C_SLAVE.c ****     i2c_slStatus &= (uint8) ~i2c_I2C_SSTAT_WR_CLEAR;
 111              		.loc 1 158 0
 112 0010 1978     		ldrb	r1, [r3]
 113 0012 2032     		add	r2, r2, #32
 114 0014 0A40     		and	r2, r1
 115 0016 1A70     		strb	r2, [r3]
 159:.\Generated_Source\PSoC4/i2c_I2C_SLAVE.c **** 
 160:.\Generated_Source\PSoC4/i2c_I2C_SLAVE.c ****     i2c_EnableInt();   /* Release lock */
 116              		.loc 1 160 0
 117 0018 0B20     		mov	r0, #11
 118 001a FFF7FEFF 		bl	CyIntEnable
 119              	.LVL6:
 161:.\Generated_Source\PSoC4/i2c_I2C_SLAVE.c **** 
 162:.\Generated_Source\PSoC4/i2c_I2C_SLAVE.c ****     return(status);
 163:.\Generated_Source\PSoC4/i2c_I2C_SLAVE.c **** }
 120              		.loc 1 163 0
 121 001e 201C     		mov	r0, r4
 122              		@ sp needed
ARM GAS  C:\Users\744\AppData\Local\Temp\cc4Oz7Ub.s 			page 6


 123              	.LVL7:
 124 0020 10BD     		pop	{r4, pc}
 125              	.L9:
 126 0022 C046     		.align	2
 127              	.L8:
 128 0024 00000000 		.word	i2c_slStatus
 129              		.cfi_endproc
 130              	.LFE2:
 131              		.size	i2c_I2CSlaveClearWriteStatus, .-i2c_I2CSlaveClearWriteStatus
 132              		.section	.text.i2c_I2CSlaveSetAddress,"ax",%progbits
 133              		.align	2
 134              		.global	i2c_I2CSlaveSetAddress
 135              		.code	16
 136              		.thumb_func
 137              		.type	i2c_I2CSlaveSetAddress, %function
 138              	i2c_I2CSlaveSetAddress:
 139              	.LFB3:
 164:.\Generated_Source\PSoC4/i2c_I2C_SLAVE.c **** 
 165:.\Generated_Source\PSoC4/i2c_I2C_SLAVE.c **** 
 166:.\Generated_Source\PSoC4/i2c_I2C_SLAVE.c **** /*******************************************************************************
 167:.\Generated_Source\PSoC4/i2c_I2C_SLAVE.c **** * Function Name: i2c_I2CSlaveSetAddress
 168:.\Generated_Source\PSoC4/i2c_I2C_SLAVE.c **** ********************************************************************************
 169:.\Generated_Source\PSoC4/i2c_I2C_SLAVE.c **** *
 170:.\Generated_Source\PSoC4/i2c_I2C_SLAVE.c **** * Summary:
 171:.\Generated_Source\PSoC4/i2c_I2C_SLAVE.c **** *  Sets the I2C slave address.
 172:.\Generated_Source\PSoC4/i2c_I2C_SLAVE.c **** *
 173:.\Generated_Source\PSoC4/i2c_I2C_SLAVE.c **** * Parameters:
 174:.\Generated_Source\PSoC4/i2c_I2C_SLAVE.c **** *  address: I2C slave address for the primary device. This value may be any
 175:.\Generated_Source\PSoC4/i2c_I2C_SLAVE.c **** *  address between 0 and 127.
 176:.\Generated_Source\PSoC4/i2c_I2C_SLAVE.c **** *
 177:.\Generated_Source\PSoC4/i2c_I2C_SLAVE.c **** * Return:
 178:.\Generated_Source\PSoC4/i2c_I2C_SLAVE.c **** *  None
 179:.\Generated_Source\PSoC4/i2c_I2C_SLAVE.c **** *
 180:.\Generated_Source\PSoC4/i2c_I2C_SLAVE.c **** *******************************************************************************/
 181:.\Generated_Source\PSoC4/i2c_I2C_SLAVE.c **** void i2c_I2CSlaveSetAddress(uint32 address)
 182:.\Generated_Source\PSoC4/i2c_I2C_SLAVE.c **** {
 140              		.loc 1 182 0
 141              		.cfi_startproc
 142              	.LVL8:
 183:.\Generated_Source\PSoC4/i2c_I2C_SLAVE.c ****     uint32 matchReg;
 184:.\Generated_Source\PSoC4/i2c_I2C_SLAVE.c **** 
 185:.\Generated_Source\PSoC4/i2c_I2C_SLAVE.c ****     matchReg = i2c_RX_MATCH_REG;
 143              		.loc 1 185 0
 144 0000 044A     		ldr	r2, .L11
 145 0002 1368     		ldr	r3, [r2]
 146              	.LVL9:
 186:.\Generated_Source\PSoC4/i2c_I2C_SLAVE.c **** 
 187:.\Generated_Source\PSoC4/i2c_I2C_SLAVE.c ****     matchReg &= ((uint32) ~i2c_RX_MATCH_ADDR_MASK); /* Clear address bits */
 147              		.loc 1 187 0
 148 0004 FF21     		mov	r1, #255
 149 0006 8B43     		bic	r3, r1
 150              	.LVL10:
 188:.\Generated_Source\PSoC4/i2c_I2C_SLAVE.c ****     matchReg |= ((uint32)  i2c_GET_I2C_8BIT_ADDRESS(address));
 151              		.loc 1 188 0
 152 0008 4000     		lsl	r0, r0, #1
 153              	.LVL11:
 154 000a 0840     		and	r0, r1
ARM GAS  C:\Users\744\AppData\Local\Temp\cc4Oz7Ub.s 			page 7


 155 000c 1843     		orr	r0, r3
 156              	.LVL12:
 189:.\Generated_Source\PSoC4/i2c_I2C_SLAVE.c **** 
 190:.\Generated_Source\PSoC4/i2c_I2C_SLAVE.c ****     i2c_RX_MATCH_REG = matchReg;
 157              		.loc 1 190 0
 158 000e 1060     		str	r0, [r2]
 191:.\Generated_Source\PSoC4/i2c_I2C_SLAVE.c **** }
 159              		.loc 1 191 0
 160              		@ sp needed
 161 0010 7047     		bx	lr
 162              	.L12:
 163 0012 C046     		.align	2
 164              	.L11:
 165 0014 10030740 		.word	1074201360
 166              		.cfi_endproc
 167              	.LFE3:
 168              		.size	i2c_I2CSlaveSetAddress, .-i2c_I2CSlaveSetAddress
 169              		.section	.text.i2c_I2CSlaveSetAddressMask,"ax",%progbits
 170              		.align	2
 171              		.global	i2c_I2CSlaveSetAddressMask
 172              		.code	16
 173              		.thumb_func
 174              		.type	i2c_I2CSlaveSetAddressMask, %function
 175              	i2c_I2CSlaveSetAddressMask:
 176              	.LFB4:
 192:.\Generated_Source\PSoC4/i2c_I2C_SLAVE.c **** 
 193:.\Generated_Source\PSoC4/i2c_I2C_SLAVE.c **** 
 194:.\Generated_Source\PSoC4/i2c_I2C_SLAVE.c **** /*******************************************************************************
 195:.\Generated_Source\PSoC4/i2c_I2C_SLAVE.c **** * Function Name: i2c_I2CSlaveSetAddressMask
 196:.\Generated_Source\PSoC4/i2c_I2C_SLAVE.c **** ********************************************************************************
 197:.\Generated_Source\PSoC4/i2c_I2C_SLAVE.c **** *
 198:.\Generated_Source\PSoC4/i2c_I2C_SLAVE.c **** * Summary:
 199:.\Generated_Source\PSoC4/i2c_I2C_SLAVE.c **** *  Sets the I2C slave address mask.
 200:.\Generated_Source\PSoC4/i2c_I2C_SLAVE.c **** *
 201:.\Generated_Source\PSoC4/i2c_I2C_SLAVE.c **** * Parameters:
 202:.\Generated_Source\PSoC4/i2c_I2C_SLAVE.c **** *  addressMask: Address mask.
 203:.\Generated_Source\PSoC4/i2c_I2C_SLAVE.c **** *   0 - address bit does not care while comparison.
 204:.\Generated_Source\PSoC4/i2c_I2C_SLAVE.c **** *   1 - address bit is significant while comparison.
 205:.\Generated_Source\PSoC4/i2c_I2C_SLAVE.c **** *
 206:.\Generated_Source\PSoC4/i2c_I2C_SLAVE.c **** * Return:
 207:.\Generated_Source\PSoC4/i2c_I2C_SLAVE.c **** *  None
 208:.\Generated_Source\PSoC4/i2c_I2C_SLAVE.c **** *
 209:.\Generated_Source\PSoC4/i2c_I2C_SLAVE.c **** *******************************************************************************/
 210:.\Generated_Source\PSoC4/i2c_I2C_SLAVE.c **** void i2c_I2CSlaveSetAddressMask(uint32 addressMask)
 211:.\Generated_Source\PSoC4/i2c_I2C_SLAVE.c **** {
 177              		.loc 1 211 0
 178              		.cfi_startproc
 179              	.LVL13:
 212:.\Generated_Source\PSoC4/i2c_I2C_SLAVE.c ****     uint32 matchReg;
 213:.\Generated_Source\PSoC4/i2c_I2C_SLAVE.c **** 
 214:.\Generated_Source\PSoC4/i2c_I2C_SLAVE.c ****     matchReg = i2c_RX_MATCH_REG;
 180              		.loc 1 214 0
 181 0000 034A     		ldr	r2, .L14
 182 0002 1168     		ldr	r1, [r2]
 183              	.LVL14:
 215:.\Generated_Source\PSoC4/i2c_I2C_SLAVE.c **** 
 216:.\Generated_Source\PSoC4/i2c_I2C_SLAVE.c ****     matchReg &= ((uint32) ~i2c_RX_MATCH_MASK_MASK); /* Clear address mask bits */
ARM GAS  C:\Users\744\AppData\Local\Temp\cc4Oz7Ub.s 			page 8


 184              		.loc 1 216 0
 185 0004 034B     		ldr	r3, .L14+4
 186 0006 0B40     		and	r3, r1
 187              	.LVL15:
 217:.\Generated_Source\PSoC4/i2c_I2C_SLAVE.c ****     matchReg |= ((uint32) (addressMask << i2c_RX_MATCH_MASK_POS));
 188              		.loc 1 217 0
 189 0008 0004     		lsl	r0, r0, #16
 190              	.LVL16:
 191 000a 1843     		orr	r0, r3
 192              	.LVL17:
 218:.\Generated_Source\PSoC4/i2c_I2C_SLAVE.c **** 
 219:.\Generated_Source\PSoC4/i2c_I2C_SLAVE.c ****     i2c_RX_MATCH_REG = matchReg;
 193              		.loc 1 219 0
 194 000c 1060     		str	r0, [r2]
 220:.\Generated_Source\PSoC4/i2c_I2C_SLAVE.c **** }
 195              		.loc 1 220 0
 196              		@ sp needed
 197 000e 7047     		bx	lr
 198              	.L15:
 199              		.align	2
 200              	.L14:
 201 0010 10030740 		.word	1074201360
 202 0014 FFFF00FF 		.word	-16711681
 203              		.cfi_endproc
 204              	.LFE4:
 205              		.size	i2c_I2CSlaveSetAddressMask, .-i2c_I2CSlaveSetAddressMask
 206              		.section	.text.i2c_I2CSlaveInitReadBuf,"ax",%progbits
 207              		.align	2
 208              		.global	i2c_I2CSlaveInitReadBuf
 209              		.code	16
 210              		.thumb_func
 211              		.type	i2c_I2CSlaveInitReadBuf, %function
 212              	i2c_I2CSlaveInitReadBuf:
 213              	.LFB5:
 221:.\Generated_Source\PSoC4/i2c_I2C_SLAVE.c **** 
 222:.\Generated_Source\PSoC4/i2c_I2C_SLAVE.c **** 
 223:.\Generated_Source\PSoC4/i2c_I2C_SLAVE.c **** /*******************************************************************************
 224:.\Generated_Source\PSoC4/i2c_I2C_SLAVE.c **** * Function Name: i2c_I2CSlaveInitReadBuf
 225:.\Generated_Source\PSoC4/i2c_I2C_SLAVE.c **** ********************************************************************************
 226:.\Generated_Source\PSoC4/i2c_I2C_SLAVE.c **** *
 227:.\Generated_Source\PSoC4/i2c_I2C_SLAVE.c **** * Summary:
 228:.\Generated_Source\PSoC4/i2c_I2C_SLAVE.c **** *  Sets the buffer pointer and size of the read buffer. This function also
 229:.\Generated_Source\PSoC4/i2c_I2C_SLAVE.c **** *  resets the transfer count returned with the I2C_SlaveGetReadBufSize function.
 230:.\Generated_Source\PSoC4/i2c_I2C_SLAVE.c **** *
 231:.\Generated_Source\PSoC4/i2c_I2C_SLAVE.c **** * Parameters:
 232:.\Generated_Source\PSoC4/i2c_I2C_SLAVE.c **** *  readBuf:  Pointer to the data buffer to be read by the master.
 233:.\Generated_Source\PSoC4/i2c_I2C_SLAVE.c **** *  bufSize:  Size of the read buffer exposed to the I2C master.
 234:.\Generated_Source\PSoC4/i2c_I2C_SLAVE.c **** *
 235:.\Generated_Source\PSoC4/i2c_I2C_SLAVE.c **** * Return:
 236:.\Generated_Source\PSoC4/i2c_I2C_SLAVE.c **** *  None
 237:.\Generated_Source\PSoC4/i2c_I2C_SLAVE.c **** *
 238:.\Generated_Source\PSoC4/i2c_I2C_SLAVE.c **** * Global variables:
 239:.\Generated_Source\PSoC4/i2c_I2C_SLAVE.c **** *  i2c_slRdBufPtr   - used to store pointer to slave read buffer.
 240:.\Generated_Source\PSoC4/i2c_I2C_SLAVE.c **** *  i2c_slRdBufSize  - used to store salve read buffer size.
 241:.\Generated_Source\PSoC4/i2c_I2C_SLAVE.c **** *  i2c_slRdBufIndex - used to store current index within slave
 242:.\Generated_Source\PSoC4/i2c_I2C_SLAVE.c **** *  read buffer.
 243:.\Generated_Source\PSoC4/i2c_I2C_SLAVE.c **** *
ARM GAS  C:\Users\744\AppData\Local\Temp\cc4Oz7Ub.s 			page 9


 244:.\Generated_Source\PSoC4/i2c_I2C_SLAVE.c **** * Side Effects:
 245:.\Generated_Source\PSoC4/i2c_I2C_SLAVE.c **** *  If this function is called during a bus transaction, data from the previous
 246:.\Generated_Source\PSoC4/i2c_I2C_SLAVE.c **** *  buffer location and the beginning of current buffer may be transmitted.
 247:.\Generated_Source\PSoC4/i2c_I2C_SLAVE.c **** *
 248:.\Generated_Source\PSoC4/i2c_I2C_SLAVE.c **** *******************************************************************************/
 249:.\Generated_Source\PSoC4/i2c_I2C_SLAVE.c **** void i2c_I2CSlaveInitReadBuf(uint8 * rdBuf, uint32 bufSize)
 250:.\Generated_Source\PSoC4/i2c_I2C_SLAVE.c **** {
 214              		.loc 1 250 0
 215              		.cfi_startproc
 216              	.LVL18:
 217 0000 38B5     		push	{r3, r4, r5, lr}
 218              		.cfi_def_cfa_offset 16
 219              		.cfi_offset 3, -16
 220              		.cfi_offset 4, -12
 221              		.cfi_offset 5, -8
 222              		.cfi_offset 14, -4
 251:.\Generated_Source\PSoC4/i2c_I2C_SLAVE.c ****     /* Check for proper buffer */
 252:.\Generated_Source\PSoC4/i2c_I2C_SLAVE.c ****     if(NULL != rdBuf)
 223              		.loc 1 252 0
 224 0002 0028     		cmp	r0, #0
 225 0004 10D0     		beq	.L16
 226 0006 0D1C     		mov	r5, r1
 227 0008 041C     		mov	r4, r0
 253:.\Generated_Source\PSoC4/i2c_I2C_SLAVE.c ****     {
 254:.\Generated_Source\PSoC4/i2c_I2C_SLAVE.c ****         i2c_DisableInt();  /* Lock from interruption */
 228              		.loc 1 254 0
 229 000a 0B20     		mov	r0, #11
 230              	.LVL19:
 231 000c FFF7FEFF 		bl	CyIntDisable
 232              	.LVL20:
 255:.\Generated_Source\PSoC4/i2c_I2C_SLAVE.c **** 
 256:.\Generated_Source\PSoC4/i2c_I2C_SLAVE.c ****         i2c_slRdBufPtr      = (volatile uint8 *) rdBuf; /* Set buffer pointer  */
 233              		.loc 1 256 0
 234 0010 064B     		ldr	r3, .L18
 235 0012 1C60     		str	r4, [r3]
 257:.\Generated_Source\PSoC4/i2c_I2C_SLAVE.c ****         i2c_slRdBufSize     = bufSize;                  /* Set buffer size     */
 236              		.loc 1 257 0
 237 0014 064B     		ldr	r3, .L18+4
 238 0016 1D60     		str	r5, [r3]
 258:.\Generated_Source\PSoC4/i2c_I2C_SLAVE.c ****         i2c_slRdBufIndex    = 0u;                       /* Clear buffer index  */
 239              		.loc 1 258 0
 240 0018 0023     		mov	r3, #0
 241 001a 064A     		ldr	r2, .L18+8
 242 001c 1360     		str	r3, [r2]
 259:.\Generated_Source\PSoC4/i2c_I2C_SLAVE.c ****         i2c_slRdBufIndexTmp = 0u;                       /* Clear buffer index  */
 243              		.loc 1 259 0
 244 001e 064A     		ldr	r2, .L18+12
 245 0020 1360     		str	r3, [r2]
 260:.\Generated_Source\PSoC4/i2c_I2C_SLAVE.c **** 
 261:.\Generated_Source\PSoC4/i2c_I2C_SLAVE.c ****         i2c_EnableInt();   /* Release lock */
 246              		.loc 1 261 0
 247 0022 0B20     		mov	r0, #11
 248 0024 FFF7FEFF 		bl	CyIntEnable
 249              	.LVL21:
 250              	.L16:
 262:.\Generated_Source\PSoC4/i2c_I2C_SLAVE.c ****     }
 263:.\Generated_Source\PSoC4/i2c_I2C_SLAVE.c **** }
ARM GAS  C:\Users\744\AppData\Local\Temp\cc4Oz7Ub.s 			page 10


 251              		.loc 1 263 0
 252              		@ sp needed
 253 0028 38BD     		pop	{r3, r4, r5, pc}
 254              	.L19:
 255 002a C046     		.align	2
 256              	.L18:
 257 002c 00000000 		.word	i2c_slRdBufPtr
 258 0030 00000000 		.word	i2c_slRdBufSize
 259 0034 00000000 		.word	i2c_slRdBufIndex
 260 0038 00000000 		.word	i2c_slRdBufIndexTmp
 261              		.cfi_endproc
 262              	.LFE5:
 263              		.size	i2c_I2CSlaveInitReadBuf, .-i2c_I2CSlaveInitReadBuf
 264              		.section	.text.i2c_I2CSlaveInitWriteBuf,"ax",%progbits
 265              		.align	2
 266              		.global	i2c_I2CSlaveInitWriteBuf
 267              		.code	16
 268              		.thumb_func
 269              		.type	i2c_I2CSlaveInitWriteBuf, %function
 270              	i2c_I2CSlaveInitWriteBuf:
 271              	.LFB6:
 264:.\Generated_Source\PSoC4/i2c_I2C_SLAVE.c **** 
 265:.\Generated_Source\PSoC4/i2c_I2C_SLAVE.c **** 
 266:.\Generated_Source\PSoC4/i2c_I2C_SLAVE.c **** /*******************************************************************************
 267:.\Generated_Source\PSoC4/i2c_I2C_SLAVE.c **** * Function Name: i2c_I2CSlaveInitWriteBuf
 268:.\Generated_Source\PSoC4/i2c_I2C_SLAVE.c **** ********************************************************************************
 269:.\Generated_Source\PSoC4/i2c_I2C_SLAVE.c **** *
 270:.\Generated_Source\PSoC4/i2c_I2C_SLAVE.c **** * Summary:
 271:.\Generated_Source\PSoC4/i2c_I2C_SLAVE.c **** *  Sets the buffer pointer and size of the read buffer. This function also
 272:.\Generated_Source\PSoC4/i2c_I2C_SLAVE.c **** *  resets the transfer count returned with the I2C_SlaveGetReadBufSize function.
 273:.\Generated_Source\PSoC4/i2c_I2C_SLAVE.c **** *
 274:.\Generated_Source\PSoC4/i2c_I2C_SLAVE.c **** * Parameters:
 275:.\Generated_Source\PSoC4/i2c_I2C_SLAVE.c **** *  writeBuf:  Pointer to the data buffer to be read by the master.
 276:.\Generated_Source\PSoC4/i2c_I2C_SLAVE.c **** *  bufSize:  Size of the buffer exposed to the I2C master.
 277:.\Generated_Source\PSoC4/i2c_I2C_SLAVE.c **** *
 278:.\Generated_Source\PSoC4/i2c_I2C_SLAVE.c **** * Return:
 279:.\Generated_Source\PSoC4/i2c_I2C_SLAVE.c **** *  None
 280:.\Generated_Source\PSoC4/i2c_I2C_SLAVE.c **** *
 281:.\Generated_Source\PSoC4/i2c_I2C_SLAVE.c **** * Global variables:
 282:.\Generated_Source\PSoC4/i2c_I2C_SLAVE.c **** *  i2c_slWrBufPtr   - used to store pointer to slave write buffer.
 283:.\Generated_Source\PSoC4/i2c_I2C_SLAVE.c **** *  i2c_slWrBufSize  - used to store salve write buffer size.
 284:.\Generated_Source\PSoC4/i2c_I2C_SLAVE.c **** *  i2c_slWrBufIndex - used to store current index within slave
 285:.\Generated_Source\PSoC4/i2c_I2C_SLAVE.c **** *  write buffer.
 286:.\Generated_Source\PSoC4/i2c_I2C_SLAVE.c **** *
 287:.\Generated_Source\PSoC4/i2c_I2C_SLAVE.c **** * Side Effects:
 288:.\Generated_Source\PSoC4/i2c_I2C_SLAVE.c **** *  If this function is called during a bus transaction, data from the previous
 289:.\Generated_Source\PSoC4/i2c_I2C_SLAVE.c **** *  buffer location and the beginning of current buffer may be transmitted.
 290:.\Generated_Source\PSoC4/i2c_I2C_SLAVE.c **** *
 291:.\Generated_Source\PSoC4/i2c_I2C_SLAVE.c **** *******************************************************************************/
 292:.\Generated_Source\PSoC4/i2c_I2C_SLAVE.c **** void i2c_I2CSlaveInitWriteBuf(uint8 * wrBuf, uint32 bufSize)
 293:.\Generated_Source\PSoC4/i2c_I2C_SLAVE.c **** {
 272              		.loc 1 293 0
 273              		.cfi_startproc
 274              	.LVL22:
 275 0000 38B5     		push	{r3, r4, r5, lr}
 276              		.cfi_def_cfa_offset 16
 277              		.cfi_offset 3, -16
ARM GAS  C:\Users\744\AppData\Local\Temp\cc4Oz7Ub.s 			page 11


 278              		.cfi_offset 4, -12
 279              		.cfi_offset 5, -8
 280              		.cfi_offset 14, -4
 294:.\Generated_Source\PSoC4/i2c_I2C_SLAVE.c ****     /* Check buffer pointer */
 295:.\Generated_Source\PSoC4/i2c_I2C_SLAVE.c ****     if(NULL != wrBuf)
 281              		.loc 1 295 0
 282 0002 0028     		cmp	r0, #0
 283 0004 0ED0     		beq	.L20
 284 0006 0D1C     		mov	r5, r1
 285 0008 041C     		mov	r4, r0
 296:.\Generated_Source\PSoC4/i2c_I2C_SLAVE.c ****     {
 297:.\Generated_Source\PSoC4/i2c_I2C_SLAVE.c ****         i2c_DisableInt();  /* Lock from interruption */
 286              		.loc 1 297 0
 287 000a 0B20     		mov	r0, #11
 288              	.LVL23:
 289 000c FFF7FEFF 		bl	CyIntDisable
 290              	.LVL24:
 298:.\Generated_Source\PSoC4/i2c_I2C_SLAVE.c **** 
 299:.\Generated_Source\PSoC4/i2c_I2C_SLAVE.c ****         i2c_slWrBufPtr   = (volatile uint8 *) wrBuf; /* Set buffer pointer  */
 291              		.loc 1 299 0
 292 0010 054B     		ldr	r3, .L22
 293 0012 1C60     		str	r4, [r3]
 300:.\Generated_Source\PSoC4/i2c_I2C_SLAVE.c ****         i2c_slWrBufSize  = bufSize;                  /* Set buffer size     */
 294              		.loc 1 300 0
 295 0014 054B     		ldr	r3, .L22+4
 296 0016 1D60     		str	r5, [r3]
 301:.\Generated_Source\PSoC4/i2c_I2C_SLAVE.c ****         i2c_slWrBufIndex = 0u;                       /* Clear buffer index  */
 297              		.loc 1 301 0
 298 0018 0022     		mov	r2, #0
 299 001a 054B     		ldr	r3, .L22+8
 300 001c 1A60     		str	r2, [r3]
 302:.\Generated_Source\PSoC4/i2c_I2C_SLAVE.c **** 
 303:.\Generated_Source\PSoC4/i2c_I2C_SLAVE.c ****         i2c_EnableInt();   /* Release lock */
 301              		.loc 1 303 0
 302 001e 0B20     		mov	r0, #11
 303 0020 FFF7FEFF 		bl	CyIntEnable
 304              	.LVL25:
 305              	.L20:
 304:.\Generated_Source\PSoC4/i2c_I2C_SLAVE.c ****     }
 305:.\Generated_Source\PSoC4/i2c_I2C_SLAVE.c **** }
 306              		.loc 1 305 0
 307              		@ sp needed
 308 0024 38BD     		pop	{r3, r4, r5, pc}
 309              	.L23:
 310 0026 C046     		.align	2
 311              	.L22:
 312 0028 00000000 		.word	i2c_slWrBufPtr
 313 002c 00000000 		.word	i2c_slWrBufSize
 314 0030 00000000 		.word	i2c_slWrBufIndex
 315              		.cfi_endproc
 316              	.LFE6:
 317              		.size	i2c_I2CSlaveInitWriteBuf, .-i2c_I2CSlaveInitWriteBuf
 318              		.section	.text.i2c_I2CSlaveGetReadBufSize,"ax",%progbits
 319              		.align	2
 320              		.global	i2c_I2CSlaveGetReadBufSize
 321              		.code	16
 322              		.thumb_func
ARM GAS  C:\Users\744\AppData\Local\Temp\cc4Oz7Ub.s 			page 12


 323              		.type	i2c_I2CSlaveGetReadBufSize, %function
 324              	i2c_I2CSlaveGetReadBufSize:
 325              	.LFB7:
 306:.\Generated_Source\PSoC4/i2c_I2C_SLAVE.c **** 
 307:.\Generated_Source\PSoC4/i2c_I2C_SLAVE.c **** 
 308:.\Generated_Source\PSoC4/i2c_I2C_SLAVE.c **** /*******************************************************************************
 309:.\Generated_Source\PSoC4/i2c_I2C_SLAVE.c **** * Function Name: i2c_I2CSlaveGetReadBufSize
 310:.\Generated_Source\PSoC4/i2c_I2C_SLAVE.c **** ********************************************************************************
 311:.\Generated_Source\PSoC4/i2c_I2C_SLAVE.c **** *
 312:.\Generated_Source\PSoC4/i2c_I2C_SLAVE.c **** * Summary:
 313:.\Generated_Source\PSoC4/i2c_I2C_SLAVE.c **** *  Returns the number of bytes read by the I2C master since an
 314:.\Generated_Source\PSoC4/i2c_I2C_SLAVE.c **** *  I2C_SlaveInitReadBuf or I2C_SlaveClearReadBuf function was executed.
 315:.\Generated_Source\PSoC4/i2c_I2C_SLAVE.c **** *  The maximum return value will be the size of the read buffer.
 316:.\Generated_Source\PSoC4/i2c_I2C_SLAVE.c **** *
 317:.\Generated_Source\PSoC4/i2c_I2C_SLAVE.c **** * Parameters:
 318:.\Generated_Source\PSoC4/i2c_I2C_SLAVE.c **** *  None
 319:.\Generated_Source\PSoC4/i2c_I2C_SLAVE.c **** *
 320:.\Generated_Source\PSoC4/i2c_I2C_SLAVE.c **** * Return:
 321:.\Generated_Source\PSoC4/i2c_I2C_SLAVE.c **** *  Bytes read by master.
 322:.\Generated_Source\PSoC4/i2c_I2C_SLAVE.c **** *
 323:.\Generated_Source\PSoC4/i2c_I2C_SLAVE.c **** * Global variables:
 324:.\Generated_Source\PSoC4/i2c_I2C_SLAVE.c **** *  i2c_slRdBufIndex - used to store current index within slave
 325:.\Generated_Source\PSoC4/i2c_I2C_SLAVE.c **** *  read buffer.
 326:.\Generated_Source\PSoC4/i2c_I2C_SLAVE.c **** *
 327:.\Generated_Source\PSoC4/i2c_I2C_SLAVE.c **** *******************************************************************************/
 328:.\Generated_Source\PSoC4/i2c_I2C_SLAVE.c **** uint32 i2c_I2CSlaveGetReadBufSize(void)
 329:.\Generated_Source\PSoC4/i2c_I2C_SLAVE.c **** {
 326              		.loc 1 329 0
 327              		.cfi_startproc
 330:.\Generated_Source\PSoC4/i2c_I2C_SLAVE.c ****     return(i2c_slRdBufIndex);
 328              		.loc 1 330 0
 329 0000 014B     		ldr	r3, .L25
 330 0002 1868     		ldr	r0, [r3]
 331:.\Generated_Source\PSoC4/i2c_I2C_SLAVE.c **** }
 331              		.loc 1 331 0
 332              		@ sp needed
 333 0004 7047     		bx	lr
 334              	.L26:
 335 0006 C046     		.align	2
 336              	.L25:
 337 0008 00000000 		.word	i2c_slRdBufIndex
 338              		.cfi_endproc
 339              	.LFE7:
 340              		.size	i2c_I2CSlaveGetReadBufSize, .-i2c_I2CSlaveGetReadBufSize
 341              		.section	.text.i2c_I2CSlaveGetWriteBufSize,"ax",%progbits
 342              		.align	2
 343              		.global	i2c_I2CSlaveGetWriteBufSize
 344              		.code	16
 345              		.thumb_func
 346              		.type	i2c_I2CSlaveGetWriteBufSize, %function
 347              	i2c_I2CSlaveGetWriteBufSize:
 348              	.LFB8:
 332:.\Generated_Source\PSoC4/i2c_I2C_SLAVE.c **** 
 333:.\Generated_Source\PSoC4/i2c_I2C_SLAVE.c **** 
 334:.\Generated_Source\PSoC4/i2c_I2C_SLAVE.c **** /*******************************************************************************
 335:.\Generated_Source\PSoC4/i2c_I2C_SLAVE.c **** * Function Name: i2c_I2CSlaveGetWriteBufSize
 336:.\Generated_Source\PSoC4/i2c_I2C_SLAVE.c **** ********************************************************************************
ARM GAS  C:\Users\744\AppData\Local\Temp\cc4Oz7Ub.s 			page 13


 337:.\Generated_Source\PSoC4/i2c_I2C_SLAVE.c **** *
 338:.\Generated_Source\PSoC4/i2c_I2C_SLAVE.c **** * Summary:
 339:.\Generated_Source\PSoC4/i2c_I2C_SLAVE.c **** *  Returns the number of bytes written by the I2C master since an
 340:.\Generated_Source\PSoC4/i2c_I2C_SLAVE.c **** *  I2C_SlaveInitWriteBuf or I2C_SlaveClearWriteBuf function was executed.
 341:.\Generated_Source\PSoC4/i2c_I2C_SLAVE.c **** *  The maximum return value will be the size of the write buffer.
 342:.\Generated_Source\PSoC4/i2c_I2C_SLAVE.c **** *
 343:.\Generated_Source\PSoC4/i2c_I2C_SLAVE.c **** * Parameters:
 344:.\Generated_Source\PSoC4/i2c_I2C_SLAVE.c **** *  None
 345:.\Generated_Source\PSoC4/i2c_I2C_SLAVE.c **** *
 346:.\Generated_Source\PSoC4/i2c_I2C_SLAVE.c **** * Return:
 347:.\Generated_Source\PSoC4/i2c_I2C_SLAVE.c **** *  Bytes written by master.
 348:.\Generated_Source\PSoC4/i2c_I2C_SLAVE.c **** *
 349:.\Generated_Source\PSoC4/i2c_I2C_SLAVE.c **** * Global variables:
 350:.\Generated_Source\PSoC4/i2c_I2C_SLAVE.c **** *  i2c_slWrBufIndex - used to store current index within slave
 351:.\Generated_Source\PSoC4/i2c_I2C_SLAVE.c **** *  write buffer.
 352:.\Generated_Source\PSoC4/i2c_I2C_SLAVE.c **** *
 353:.\Generated_Source\PSoC4/i2c_I2C_SLAVE.c **** *******************************************************************************/
 354:.\Generated_Source\PSoC4/i2c_I2C_SLAVE.c **** uint32 i2c_I2CSlaveGetWriteBufSize(void)
 355:.\Generated_Source\PSoC4/i2c_I2C_SLAVE.c **** {
 349              		.loc 1 355 0
 350              		.cfi_startproc
 356:.\Generated_Source\PSoC4/i2c_I2C_SLAVE.c ****     return(i2c_slWrBufIndex);
 351              		.loc 1 356 0
 352 0000 014B     		ldr	r3, .L28
 353 0002 1868     		ldr	r0, [r3]
 357:.\Generated_Source\PSoC4/i2c_I2C_SLAVE.c **** }
 354              		.loc 1 357 0
 355              		@ sp needed
 356 0004 7047     		bx	lr
 357              	.L29:
 358 0006 C046     		.align	2
 359              	.L28:
 360 0008 00000000 		.word	i2c_slWrBufIndex
 361              		.cfi_endproc
 362              	.LFE8:
 363              		.size	i2c_I2CSlaveGetWriteBufSize, .-i2c_I2CSlaveGetWriteBufSize
 364              		.section	.text.i2c_I2CSlaveClearReadBuf,"ax",%progbits
 365              		.align	2
 366              		.global	i2c_I2CSlaveClearReadBuf
 367              		.code	16
 368              		.thumb_func
 369              		.type	i2c_I2CSlaveClearReadBuf, %function
 370              	i2c_I2CSlaveClearReadBuf:
 371              	.LFB9:
 358:.\Generated_Source\PSoC4/i2c_I2C_SLAVE.c **** 
 359:.\Generated_Source\PSoC4/i2c_I2C_SLAVE.c **** 
 360:.\Generated_Source\PSoC4/i2c_I2C_SLAVE.c **** /*******************************************************************************
 361:.\Generated_Source\PSoC4/i2c_I2C_SLAVE.c **** * Function Name: i2c_I2CSlaveClearReadBuf
 362:.\Generated_Source\PSoC4/i2c_I2C_SLAVE.c **** ********************************************************************************
 363:.\Generated_Source\PSoC4/i2c_I2C_SLAVE.c **** *
 364:.\Generated_Source\PSoC4/i2c_I2C_SLAVE.c **** * Summary:
 365:.\Generated_Source\PSoC4/i2c_I2C_SLAVE.c **** *  Resets the read pointer to the first byte in the read buffer. The next byte
 366:.\Generated_Source\PSoC4/i2c_I2C_SLAVE.c **** *  read by the master will be the first byte in the read buffer.
 367:.\Generated_Source\PSoC4/i2c_I2C_SLAVE.c **** *
 368:.\Generated_Source\PSoC4/i2c_I2C_SLAVE.c **** * Parameters:
 369:.\Generated_Source\PSoC4/i2c_I2C_SLAVE.c **** *  None
 370:.\Generated_Source\PSoC4/i2c_I2C_SLAVE.c **** *
ARM GAS  C:\Users\744\AppData\Local\Temp\cc4Oz7Ub.s 			page 14


 371:.\Generated_Source\PSoC4/i2c_I2C_SLAVE.c **** * Return:
 372:.\Generated_Source\PSoC4/i2c_I2C_SLAVE.c **** *  None
 373:.\Generated_Source\PSoC4/i2c_I2C_SLAVE.c **** *
 374:.\Generated_Source\PSoC4/i2c_I2C_SLAVE.c **** * Global variables:
 375:.\Generated_Source\PSoC4/i2c_I2C_SLAVE.c **** *  i2c_slRdBufIndex - used to store current index within slave
 376:.\Generated_Source\PSoC4/i2c_I2C_SLAVE.c **** *  read buffer.
 377:.\Generated_Source\PSoC4/i2c_I2C_SLAVE.c **** *
 378:.\Generated_Source\PSoC4/i2c_I2C_SLAVE.c **** *******************************************************************************/
 379:.\Generated_Source\PSoC4/i2c_I2C_SLAVE.c **** void i2c_I2CSlaveClearReadBuf(void)
 380:.\Generated_Source\PSoC4/i2c_I2C_SLAVE.c **** {
 372              		.loc 1 380 0
 373              		.cfi_startproc
 381:.\Generated_Source\PSoC4/i2c_I2C_SLAVE.c ****     i2c_slRdBufIndex = 0u;
 374              		.loc 1 381 0
 375 0000 0022     		mov	r2, #0
 376 0002 014B     		ldr	r3, .L31
 377 0004 1A60     		str	r2, [r3]
 382:.\Generated_Source\PSoC4/i2c_I2C_SLAVE.c **** }
 378              		.loc 1 382 0
 379              		@ sp needed
 380 0006 7047     		bx	lr
 381              	.L32:
 382              		.align	2
 383              	.L31:
 384 0008 00000000 		.word	i2c_slRdBufIndex
 385              		.cfi_endproc
 386              	.LFE9:
 387              		.size	i2c_I2CSlaveClearReadBuf, .-i2c_I2CSlaveClearReadBuf
 388              		.section	.text.i2c_I2CSlaveClearWriteBuf,"ax",%progbits
 389              		.align	2
 390              		.global	i2c_I2CSlaveClearWriteBuf
 391              		.code	16
 392              		.thumb_func
 393              		.type	i2c_I2CSlaveClearWriteBuf, %function
 394              	i2c_I2CSlaveClearWriteBuf:
 395              	.LFB10:
 383:.\Generated_Source\PSoC4/i2c_I2C_SLAVE.c **** 
 384:.\Generated_Source\PSoC4/i2c_I2C_SLAVE.c **** 
 385:.\Generated_Source\PSoC4/i2c_I2C_SLAVE.c **** /*******************************************************************************
 386:.\Generated_Source\PSoC4/i2c_I2C_SLAVE.c **** * Function Name: i2c_I2CSlaveClearWriteBuf
 387:.\Generated_Source\PSoC4/i2c_I2C_SLAVE.c **** ********************************************************************************
 388:.\Generated_Source\PSoC4/i2c_I2C_SLAVE.c **** *
 389:.\Generated_Source\PSoC4/i2c_I2C_SLAVE.c **** * Summary:
 390:.\Generated_Source\PSoC4/i2c_I2C_SLAVE.c **** *  Resets the write pointer to the first byte in the write buffer. The next byte
 391:.\Generated_Source\PSoC4/i2c_I2C_SLAVE.c **** *  written by the master will be the first byte in the write buffer.
 392:.\Generated_Source\PSoC4/i2c_I2C_SLAVE.c **** *
 393:.\Generated_Source\PSoC4/i2c_I2C_SLAVE.c **** * Parameters:
 394:.\Generated_Source\PSoC4/i2c_I2C_SLAVE.c **** *  None
 395:.\Generated_Source\PSoC4/i2c_I2C_SLAVE.c **** *
 396:.\Generated_Source\PSoC4/i2c_I2C_SLAVE.c **** * Return:
 397:.\Generated_Source\PSoC4/i2c_I2C_SLAVE.c **** *  None
 398:.\Generated_Source\PSoC4/i2c_I2C_SLAVE.c **** *
 399:.\Generated_Source\PSoC4/i2c_I2C_SLAVE.c **** * Global variables:
 400:.\Generated_Source\PSoC4/i2c_I2C_SLAVE.c **** *  i2c_slWrBufIndex - used to store current index within slave
 401:.\Generated_Source\PSoC4/i2c_I2C_SLAVE.c **** *  write buffer.
 402:.\Generated_Source\PSoC4/i2c_I2C_SLAVE.c **** *
 403:.\Generated_Source\PSoC4/i2c_I2C_SLAVE.c **** *******************************************************************************/
ARM GAS  C:\Users\744\AppData\Local\Temp\cc4Oz7Ub.s 			page 15


 404:.\Generated_Source\PSoC4/i2c_I2C_SLAVE.c **** void i2c_I2CSlaveClearWriteBuf(void)
 405:.\Generated_Source\PSoC4/i2c_I2C_SLAVE.c **** {
 396              		.loc 1 405 0
 397              		.cfi_startproc
 406:.\Generated_Source\PSoC4/i2c_I2C_SLAVE.c ****     i2c_slWrBufIndex = 0u;
 398              		.loc 1 406 0
 399 0000 0022     		mov	r2, #0
 400 0002 014B     		ldr	r3, .L34
 401 0004 1A60     		str	r2, [r3]
 407:.\Generated_Source\PSoC4/i2c_I2C_SLAVE.c **** }
 402              		.loc 1 407 0
 403              		@ sp needed
 404 0006 7047     		bx	lr
 405              	.L35:
 406              		.align	2
 407              	.L34:
 408 0008 00000000 		.word	i2c_slWrBufIndex
 409              		.cfi_endproc
 410              	.LFE10:
 411              		.size	i2c_I2CSlaveClearWriteBuf, .-i2c_I2CSlaveClearWriteBuf
 412              		.comm	i2c_slOverFlowCount,1,1
 413              		.comm	i2c_slRdBufIndexTmp,4,4
 414              		.comm	i2c_slRdBufIndex,4,4
 415              		.comm	i2c_slRdBufSize,4,4
 416              		.comm	i2c_slRdBufPtr,4,4
 417              		.comm	i2c_slWrBufIndex,4,4
 418              		.comm	i2c_slWrBufSize,4,4
 419              		.comm	i2c_slWrBufPtr,4,4
 420              		.comm	i2c_slStatus,1,1
 421              		.text
 422              	.Letext0:
 423              		.file 2 "Generated_Source\\PSoC4/cytypes.h"
 424              		.file 3 "Generated_Source\\PSoC4/CyLib.h"