ARM GAS  C:\Users\744\AppData\Local\Temp\cckhuwvJ.s 			page 1


   1              		.cpu cortex-m0
   2              		.fpu softvfp
   3              		.eabi_attribute 20, 1
   4              		.eabi_attribute 21, 1
   5              		.eabi_attribute 23, 3
   6              		.eabi_attribute 24, 1
   7              		.eabi_attribute 25, 1
   8              		.eabi_attribute 26, 1
   9              		.eabi_attribute 30, 1
  10              		.eabi_attribute 34, 0
  11              		.eabi_attribute 18, 4
  12              		.code	16
  13              		.file	"main.c"
  14              		.text
  15              	.Ltext0:
  16              		.cfi_sections	.debug_frame
  17              		.section	.text.MY_ISR,"ax",%progbits
  18              		.align	2
  19              		.global	MY_ISR
  20              		.code	16
  21              		.thumb_func
  22              		.type	MY_ISR, %function
  23              	MY_ISR:
  24              	.LFB34:
  25              		.file 1 ".\\main.c"
   1:.\main.c      **** /* ========================================
   2:.\main.c      ****  *
   3:.\main.c      ****  * Copyright YOUR COMPANY, THE YEAR
   4:.\main.c      ****  * All Rights Reserved
   5:.\main.c      ****  * UNPUBLISHED, LICENSED SOFTWARE.
   6:.\main.c      ****  *
   7:.\main.c      ****  * CONFIDENTIAL AND PROPRIETARY INFORMATION
   8:.\main.c      ****  * WHICH IS THE PROPERTY OF your company.
   9:.\main.c      ****  *
  10:.\main.c      ****  * ========================================
  11:.\main.c      **** */
  12:.\main.c      **** #include <project.h>
  13:.\main.c      **** #include <string.h>
  14:.\main.c      **** #include <stdio.h>
  15:.\main.c      **** #include <stdbool.h>
  16:.\main.c      **** 
  17:.\main.c      **** const char *key =  "09008B316BD8";
  18:.\main.c      **** char arr[14];
  19:.\main.c      **** char buffer[30];
  20:.\main.c      **** char character;
  21:.\main.c      **** int ind = 0;
  22:.\main.c      **** uint32 ch; 
  23:.\main.c      **** uint16 ms_count = 0;
  24:.\main.c      **** bool accepted = false;
  25:.\main.c      ****  
  26:.\main.c      **** void print_key(uint8 i);
  27:.\main.c      **** void check_card();
  28:.\main.c      **** 
  29:.\main.c      **** CY_ISR(MY_ISR) 
  30:.\main.c      **** {
  26              		.loc 1 30 0
  27              		.cfi_startproc
ARM GAS  C:\Users\744\AppData\Local\Temp\cckhuwvJ.s 			page 2


  28 0000 08B5     		push	{r3, lr}
  29              		.cfi_def_cfa_offset 8
  30              		.cfi_offset 3, -8
  31              		.cfi_offset 14, -4
  31:.\main.c      ****     if(accepted && ++ms_count == 5) 
  32              		.loc 1 31 0
  33 0002 0C4B     		ldr	r3, .L3
  34 0004 1B78     		ldrb	r3, [r3]
  35 0006 002B     		cmp	r3, #0
  36 0008 13D0     		beq	.L1
  37              		.loc 1 31 0 is_stmt 0 discriminator 1
  38 000a 0A4A     		ldr	r2, .L3
  39 000c 5388     		ldrh	r3, [r2, #2]
  40 000e 0133     		add	r3, r3, #1
  41 0010 9BB2     		uxth	r3, r3
  42 0012 5380     		strh	r3, [r2, #2]
  43 0014 052B     		cmp	r3, #5
  44 0016 0CD1     		bne	.L1
  32:.\main.c      ****     {
  33:.\main.c      ****         accepted = false;
  45              		.loc 1 33 0 is_stmt 1
  46 0018 131C     		mov	r3, r2
  47 001a 0022     		mov	r2, #0
  48 001c 1A70     		strb	r2, [r3]
  34:.\main.c      ****         ms_count = 0;
  49              		.loc 1 34 0
  50 001e 5A80     		strh	r2, [r3, #2]
  35:.\main.c      ****         
  36:.\main.c      ****         LED_GREEN_Write(1);
  51              		.loc 1 36 0
  52 0020 0120     		mov	r0, #1
  53 0022 FFF7FEFF 		bl	LED_GREEN_Write
  54              	.LVL0:
  37:.\main.c      ****         LED_RED_Write(1);
  55              		.loc 1 37 0
  56 0026 0120     		mov	r0, #1
  57 0028 FFF7FEFF 		bl	LED_RED_Write
  58              	.LVL1:
  38:.\main.c      ****         UART_UartPutString("\n\r Door closed!\n\r");
  59              		.loc 1 38 0
  60 002c 0248     		ldr	r0, .L3+4
  61 002e FFF7FEFF 		bl	UART_UartPutString
  62              	.LVL2:
  63              	.L1:
  39:.\main.c      ****     }
  40:.\main.c      **** }
  64              		.loc 1 40 0
  65              		@ sp needed
  66 0032 08BD     		pop	{r3, pc}
  67              	.L4:
  68              		.align	2
  69              	.L3:
  70 0034 00000000 		.word	.LANCHOR0
  71 0038 00000000 		.word	.LC1
  72              		.cfi_endproc
  73              	.LFE34:
  74              		.size	MY_ISR, .-MY_ISR
ARM GAS  C:\Users\744\AppData\Local\Temp\cckhuwvJ.s 			page 3


  75              		.section	.text.check_card,"ax",%progbits
  76              		.align	2
  77              		.global	check_card
  78              		.code	16
  79              		.thumb_func
  80              		.type	check_card, %function
  81              	check_card:
  82              	.LFB36:
  41:.\main.c      **** 
  42:.\main.c      **** int main()
  43:.\main.c      **** {
  44:.\main.c      ****     CyGlobalIntEnable; /* Enable global interrupts. */
  45:.\main.c      ****     UART_Start();
  46:.\main.c      ****     Timer_Start();
  47:.\main.c      ****     isr_1_StartEx(MY_ISR);
  48:.\main.c      ****     
  49:.\main.c      ****        
  50:.\main.c      ****     
  51:.\main.c      ****     for(;;)
  52:.\main.c      ****     {
  53:.\main.c      ****         check_card();
  54:.\main.c      ****         //print_key(ch);
  55:.\main.c      ****     }
  56:.\main.c      ****         
  57:.\main.c      **** }
  58:.\main.c      **** 
  59:.\main.c      **** void check_card()
  60:.\main.c      **** {
  83              		.loc 1 60 0
  84              		.cfi_startproc
  85 0000 10B5     		push	{r4, lr}
  86              		.cfi_def_cfa_offset 8
  87              		.cfi_offset 4, -8
  88              		.cfi_offset 14, -4
  61:.\main.c      ****      if (!accepted)
  89              		.loc 1 61 0
  90 0002 224B     		ldr	r3, .L14
  91 0004 1B78     		ldrb	r3, [r3]
  92 0006 002B     		cmp	r3, #0
  93 0008 3ED1     		bne	.L5
  62:.\main.c      ****         {
  63:.\main.c      ****             ch = UART_UartGetChar();
  94              		.loc 1 63 0
  95 000a FFF7FEFF 		bl	UART_UartGetChar
  96              	.LVL3:
  97 000e 204B     		ldr	r3, .L14+4
  98 0010 1860     		str	r0, [r3]
  64:.\main.c      ****             if(ch != 0)
  99              		.loc 1 64 0
 100 0012 0028     		cmp	r0, #0
 101 0014 32D0     		beq	.L7
  65:.\main.c      ****             {
  66:.\main.c      ****                 switch(ch)
 102              		.loc 1 66 0
 103 0016 0228     		cmp	r0, #2
 104 0018 02D0     		beq	.L9
 105 001a 0328     		cmp	r0, #3
ARM GAS  C:\Users\744\AppData\Local\Temp\cckhuwvJ.s 			page 4


 106 001c 0AD0     		beq	.L10
 107 001e 26E0     		b	.L13
 108              	.L9:
  67:.\main.c      ****                 {
  68:.\main.c      ****                     case '\002':
  69:.\main.c      ****                         memset(arr, 0, strlen(arr));
 109              		.loc 1 69 0
 110 0020 1C4C     		ldr	r4, .L14+8
 111 0022 201C     		mov	r0, r4
 112 0024 FFF7FEFF 		bl	strlen
 113              	.LVL4:
 114 0028 021C     		mov	r2, r0
 115 002a 201C     		mov	r0, r4
 116 002c 0021     		mov	r1, #0
 117 002e FFF7FEFF 		bl	memset
 118              	.LVL5:
  70:.\main.c      ****                         //UART_UartPutString("Start reading key...\n\r");
  71:.\main.c      ****                         break;
 119              		.loc 1 71 0
 120 0032 29E0     		b	.L5
 121              	.L10:
  72:.\main.c      ****                     case '\003':
  73:.\main.c      ****                         if(strcmp(arr, key) == 0)
 122              		.loc 1 73 0
 123 0034 184B     		ldr	r3, .L14+12
 124 0036 1968     		ldr	r1, [r3]
 125 0038 1648     		ldr	r0, .L14+8
 126 003a FFF7FEFF 		bl	strcmp
 127              	.LVL6:
 128 003e 0028     		cmp	r0, #0
 129 0040 08D1     		bne	.L11
  74:.\main.c      ****                         {
  75:.\main.c      ****                             LED_GREEN_Write(0);
 130              		.loc 1 75 0
 131 0042 FFF7FEFF 		bl	LED_GREEN_Write
 132              	.LVL7:
  76:.\main.c      ****                             LED_RED_Write(1);
 133              		.loc 1 76 0
 134 0046 0120     		mov	r0, #1
 135 0048 FFF7FEFF 		bl	LED_RED_Write
 136              	.LVL8:
  77:.\main.c      ****                             //UART_UartPutString("Access granted! Card Number: ");
  78:.\main.c      ****                             //UART_UartPutString(arr);
  79:.\main.c      ****                             accepted = true;
 137              		.loc 1 79 0
 138 004c 0122     		mov	r2, #1
 139 004e 0F4B     		ldr	r3, .L14
 140 0050 1A70     		strb	r2, [r3]
 141 0052 08E0     		b	.L12
 142              	.L11:
  80:.\main.c      ****                         }
  81:.\main.c      ****                         else
  82:.\main.c      ****                         {
  83:.\main.c      ****                             LED_GREEN_Write(1);
 143              		.loc 1 83 0
 144 0054 0120     		mov	r0, #1
 145 0056 FFF7FEFF 		bl	LED_GREEN_Write
ARM GAS  C:\Users\744\AppData\Local\Temp\cckhuwvJ.s 			page 5


 146              	.LVL9:
  84:.\main.c      ****                             LED_RED_Write(0);
 147              		.loc 1 84 0
 148 005a 0020     		mov	r0, #0
 149 005c FFF7FEFF 		bl	LED_RED_Write
 150              	.LVL10:
  85:.\main.c      ****                             //UART_UartPutString("Access denied! Card Number: ");
  86:.\main.c      ****                             //UART_UartPutString(arr);
  87:.\main.c      ****                             accepted = false;
 151              		.loc 1 87 0
 152 0060 0022     		mov	r2, #0
 153 0062 0A4B     		ldr	r3, .L14
 154 0064 1A70     		strb	r2, [r3]
 155              	.L12:
  88:.\main.c      ****                         }
  89:.\main.c      ****                         ind = 0;
 156              		.loc 1 89 0
 157 0066 0022     		mov	r2, #0
 158 0068 084B     		ldr	r3, .L14
 159 006a 5A60     		str	r2, [r3, #4]
  90:.\main.c      ****                         break;
 160              		.loc 1 90 0
 161 006c 0CE0     		b	.L5
 162              	.L13:
  91:.\main.c      ****                     default:
  92:.\main.c      ****                         arr[ind++] = ch; 
 163              		.loc 1 92 0
 164 006e 074A     		ldr	r2, .L14
 165 0070 5368     		ldr	r3, [r2, #4]
 166 0072 591C     		add	r1, r3, #1
 167 0074 5160     		str	r1, [r2, #4]
 168 0076 074A     		ldr	r2, .L14+8
 169 0078 D054     		strb	r0, [r2, r3]
 170 007a 05E0     		b	.L5
 171              	.L7:
  93:.\main.c      ****                         
  94:.\main.c      ****                 }
  95:.\main.c      ****             }
  96:.\main.c      ****             else
  97:.\main.c      ****             {
  98:.\main.c      ****                 LED_GREEN_Write(1);
 172              		.loc 1 98 0
 173 007c 0120     		mov	r0, #1
 174 007e FFF7FEFF 		bl	LED_GREEN_Write
 175              	.LVL11:
  99:.\main.c      ****                 LED_RED_Write(1);
 176              		.loc 1 99 0
 177 0082 0120     		mov	r0, #1
 178 0084 FFF7FEFF 		bl	LED_RED_Write
 179              	.LVL12:
 180              	.L5:
 100:.\main.c      ****             }
 101:.\main.c      **** 
 102:.\main.c      ****         }
 103:.\main.c      **** }
 181              		.loc 1 103 0
 182              		@ sp needed
ARM GAS  C:\Users\744\AppData\Local\Temp\cckhuwvJ.s 			page 6


 183 0088 10BD     		pop	{r4, pc}
 184              	.L15:
 185 008a C046     		.align	2
 186              	.L14:
 187 008c 00000000 		.word	.LANCHOR0
 188 0090 00000000 		.word	ch
 189 0094 00000000 		.word	arr
 190 0098 00000000 		.word	.LANCHOR1
 191              		.cfi_endproc
 192              	.LFE36:
 193              		.size	check_card, .-check_card
 194              		.section	.text.main,"ax",%progbits
 195              		.align	2
 196              		.global	main
 197              		.code	16
 198              		.thumb_func
 199              		.type	main, %function
 200              	main:
 201              	.LFB35:
  43:.\main.c      ****     CyGlobalIntEnable; /* Enable global interrupts. */
 202              		.loc 1 43 0
 203              		.cfi_startproc
 204 0000 08B5     		push	{r3, lr}
 205              		.cfi_def_cfa_offset 8
 206              		.cfi_offset 3, -8
 207              		.cfi_offset 14, -4
  44:.\main.c      ****     UART_Start();
 208              		.loc 1 44 0
 209              	@ 44 ".\main.c" 1
 210 0002 62B6     		CPSIE   i
 211              	@ 0 "" 2
  45:.\main.c      ****     Timer_Start();
 212              		.loc 1 45 0
 213              		.code	16
 214 0004 FFF7FEFF 		bl	UART_Start
 215              	.LVL13:
  46:.\main.c      ****     isr_1_StartEx(MY_ISR);
 216              		.loc 1 46 0
 217 0008 FFF7FEFF 		bl	Timer_Start
 218              	.LVL14:
  47:.\main.c      ****     
 219              		.loc 1 47 0
 220 000c 0248     		ldr	r0, .L18
 221 000e FFF7FEFF 		bl	isr_1_StartEx
 222              	.LVL15:
 223              	.L17:
  53:.\main.c      ****         //print_key(ch);
 224              		.loc 1 53 0 discriminator 1
 225 0012 FFF7FEFF 		bl	check_card
 226              	.LVL16:
  55:.\main.c      ****         
 227              		.loc 1 55 0 discriminator 1
 228 0016 FCE7     		b	.L17
 229              	.L19:
 230              		.align	2
 231              	.L18:
 232 0018 00000000 		.word	MY_ISR
ARM GAS  C:\Users\744\AppData\Local\Temp\cckhuwvJ.s 			page 7


 233              		.cfi_endproc
 234              	.LFE35:
 235              		.size	main, .-main
 236              		.section	.text.print_key,"ax",%progbits
 237              		.align	2
 238              		.global	print_key
 239              		.code	16
 240              		.thumb_func
 241              		.type	print_key, %function
 242              	print_key:
 243              	.LFB37:
 104:.\main.c      **** 
 105:.\main.c      **** void print_key(uint8 i)
 106:.\main.c      **** {
 244              		.loc 1 106 0
 245              		.cfi_startproc
 246              	.LVL17:
 247 0000 08B5     		push	{r3, lr}
 248              		.cfi_def_cfa_offset 8
 249              		.cfi_offset 3, -8
 250              		.cfi_offset 14, -4
 107:.\main.c      ****     if(i != 0)
 251              		.loc 1 107 0
 252 0002 0028     		cmp	r0, #0
 253 0004 0DD0     		beq	.L20
 108:.\main.c      ****     {
 109:.\main.c      ****         UART_UartPutChar(i);
 254              		.loc 1 109 0
 255 0006 FFF7FEFF 		bl	UART_SpiUartWriteTxData
 256              	.LVL18:
 110:.\main.c      ****         ind++;
 257              		.loc 1 110 0
 258 000a 064A     		ldr	r2, .L22
 259 000c 5368     		ldr	r3, [r2, #4]
 260 000e 0133     		add	r3, r3, #1
 261 0010 5360     		str	r3, [r2, #4]
 111:.\main.c      ****         if(ind == 14)
 262              		.loc 1 111 0
 263 0012 0E2B     		cmp	r3, #14
 264 0014 05D1     		bne	.L20
 112:.\main.c      ****         {
 113:.\main.c      ****             UART_UartPutChar('\t');
 265              		.loc 1 113 0
 266 0016 0920     		mov	r0, #9
 267 0018 FFF7FEFF 		bl	UART_SpiUartWriteTxData
 268              	.LVL19:
 114:.\main.c      ****             ind = 0;
 269              		.loc 1 114 0
 270 001c 0022     		mov	r2, #0
 271 001e 014B     		ldr	r3, .L22
 272 0020 5A60     		str	r2, [r3, #4]
 273              	.L20:
 115:.\main.c      ****         }
 116:.\main.c      ****     }
 117:.\main.c      **** }
 274              		.loc 1 117 0
 275              		@ sp needed
ARM GAS  C:\Users\744\AppData\Local\Temp\cckhuwvJ.s 			page 8


 276 0022 08BD     		pop	{r3, pc}
 277              	.L23:
 278              		.align	2
 279              	.L22:
 280 0024 00000000 		.word	.LANCHOR0
 281              		.cfi_endproc
 282              	.LFE37:
 283              		.size	print_key, .-print_key
 284              		.global	accepted
 285              		.global	ms_count
 286              		.comm	ch,4,4
 287              		.global	ind
 288              		.comm	character,1,1
 289              		.comm	buffer,30,4
 290              		.comm	arr,14,4
 291              		.global	key
 292              		.data
 293              		.align	2
 294              		.set	.LANCHOR1,. + 0
 295              		.type	key, %object
 296              		.size	key, 4
 297              	key:
 298 0000 14000000 		.word	.LC9
 299              		.section	.rodata.str1.4,"aMS",%progbits,1
 300              		.align	2
 301              	.LC1:
 302 0000 0A0D2044 		.ascii	"\012\015 Door closed!\012\015\000"
 302      6F6F7220 
 302      636C6F73 
 302      6564210A 
 302      0D00
 303 0012 0000     		.space	2
 304              	.LC9:
 305 0014 30393030 		.ascii	"09008B316BD8\000"
 305      38423331 
 305      36424438 
 305      00
 306 0021 000000   		.bss
 307              		.align	2
 308              		.set	.LANCHOR0,. + 0
 309              		.type	accepted, %object
 310              		.size	accepted, 1
 311              	accepted:
 312 0000 00       		.space	1
 313 0001 00       		.space	1
 314              		.type	ms_count, %object
 315              		.size	ms_count, 2
 316              	ms_count:
 317 0002 0000     		.space	2
 318              		.type	ind, %object
 319              		.size	ind, 4
 320              	ind:
 321 0004 00000000 		.space	4
 322              		.text
 323              	.Letext0:
 324              		.file 2 "Generated_Source\\PSoC4/cytypes.h"
 325              		.file 3 "c:\\program files (x86)\\cypress\\psoc creator\\3.3\\psoc creator\\import\\gnu\\arm\\4.9.
ARM GAS  C:\Users\744\AppData\Local\Temp\cckhuwvJ.s 			page 9


 326              		.file 4 "Generated_Source\\PSoC4/LED_GREEN.h"
 327              		.file 5 "Generated_Source\\PSoC4/LED_RED.h"
 328              		.file 6 "Generated_Source\\PSoC4/UART_SPI_UART.h"
 329              		.file 7 "c:\\program files (x86)\\cypress\\psoc creator\\3.3\\psoc creator\\import\\gnu\\arm\\4.9.
 330              		.file 8 "Generated_Source\\PSoC4/UART.h"
 331              		.file 9 "Generated_Source\\PSoC4/Timer.h"
 332              		.file 10 "Generated_Source\\PSoC4/isr_1.h"