ARM GAS  C:\Users\IEUser\AppData\Local\Temp\ccjwttSg.s 			page 1


   1              		.cpu cortex-m0
   2              		.fpu softvfp
   3              		.eabi_attribute 20, 1
   4              		.eabi_attribute 21, 1
   5              		.eabi_attribute 23, 3
   6              		.eabi_attribute 24, 1
   7              		.eabi_attribute 25, 1
   8              		.eabi_attribute 26, 1
   9              		.eabi_attribute 30, 1
  10              		.eabi_attribute 34, 0
  11              		.eabi_attribute 18, 4
  12              		.code	16
  13              		.file	"Keyboard.c"
  14              		.text
  15              	.Ltext0:
  16              		.cfi_sections	.debug_frame
  17              		.section	.text.Keyboard_Init,"ax",%progbits
  18              		.align	2
  19              		.global	Keyboard_Init
  20              		.code	16
  21              		.thumb_func
  22              		.type	Keyboard_Init, %function
  23              	Keyboard_Init:
  24              	.LFB34:
  25              		.file 1 ".\\Keyboard.c"
   1:.\Keyboard.c  **** /********************************************************************************/
   2:.\Keyboard.c  **** /*																				*/
   3:.\Keyboard.c  **** /*    FILENAME:		C:\Cypress PSoC\Tastatur\Tastatur.cydsn\Keyboard.c			*/
   4:.\Keyboard.c  **** /*    VERSION:  	1.0															*/
   5:.\Keyboard.c  **** /*    Date:			October 2011												*/
   6:.\Keyboard.c  **** /*																				*/
   7:.\Keyboard.c  **** /*	(C) 2011 Jörg Meier Software - Entwicklung									*/
   8:.\Keyboard.c  **** /*	Steinfelder Str. 11 27404 Brümmerhof										*/
   9:.\Keyboard.c  **** /*	All rights resereved														*/
  10:.\Keyboard.c  **** /********************************************************************************/
  11:.\Keyboard.c  **** /*																				*/
  12:.\Keyboard.c  **** /*	De-Bouncing of a Keyboard, Buffering, Key-Repeating							*/
  13:.\Keyboard.c  **** /*																				*/
  14:.\Keyboard.c  **** /*	Given to Cypress Community/Developer Forum December 1st 2011				*/
  15:.\Keyboard.c  **** /*	Just as-it-is, no Warranty, use on own risk.								*/
  16:.\Keyboard.c  **** /********************************************************************************/
  17:.\Keyboard.c  **** /*																				*/
  18:.\Keyboard.c  **** /*	Timer to call Debounce_Switches is called at a rate of 2.5ms				*/
  19:.\Keyboard.c  **** /*																				*/
  20:.\Keyboard.c  **** /********************************************************************************/
  21:.\Keyboard.c  **** #include <device.h>
  22:.\Keyboard.c  **** #define TIMER_INTERVAL 5	//5 ms
  23:.\Keyboard.c  **** #define MAX_CHECKS 10 		// Number of Samples Before Key is De-bounced
  24:.\Keyboard.c  **** #define REPEAT_RATE (200/TIMER_INTERVAL)	// 400 ms Key Repeat Rate
  25:.\Keyboard.c  **** #define INITIAL_DELAY (600/TIMER_INTERVAL - REPEAT_RATE) // 600 ms Wait-Time Before Key first Repea
  26:.\Keyboard.c  **** /********************************************************************************/
  27:.\Keyboard.c  **** //#define Debug	//Test purposes													*/
  28:.\Keyboard.c  **** /********************************************************************************/
  29:.\Keyboard.c  **** 
  30:.\Keyboard.c  **** CY_ISR_PROTO(Key_Debounce);
  31:.\Keyboard.c  **** 
  32:.\Keyboard.c  **** 
ARM GAS  C:\Users\IEUser\AppData\Local\Temp\ccjwttSg.s 			page 2


  33:.\Keyboard.c  **** uint8 Debounced_Key = 0; // Last Debounced Key
  34:.\Keyboard.c  **** 
  35:.\Keyboard.c  **** /********** Key Buffer **********************/
  36:.\Keyboard.c  **** #define KEYBUFFSIZE 10	// Number of Keypresses to buffer
  37:.\Keyboard.c  **** /********************************************/
  38:.\Keyboard.c  **** uint8 KBD_WriteIndex = 0;					
  39:.\Keyboard.c  **** uint8 KBD_ReadIndex = 0;
  40:.\Keyboard.c  **** char8 KBD_Buffer[KEYBUFFSIZE];
  41:.\Keyboard.c  **** /********************************************/
  42:.\Keyboard.c  **** 
  43:.\Keyboard.c  **** //********** Definition of the Keyboard Matrix ************//
  44:.\Keyboard.c  **** #define KEYROWS 4
  45:.\Keyboard.c  **** #define KEYCOLS	3
  46:.\Keyboard.c  **** #define KEYRWIDTH 2		// Number of bits to encode KEYROWS-1
  47:.\Keyboard.c  **** #define KEYCWIDTH 2		// Number of bits to encode KEYCOLS-1
  48:.\Keyboard.c  **** // Resulting bit pattern is 0000CCRR with a max value of 0b0000 1011 = 0x0b +1 = 0x0c = 12
  49:.\Keyboard.c  **** //********** End of Matrix Definition *********************//
  50:.\Keyboard.c  **** #define MAXKEYVALUE (((KEYCOLS-1) | ((KEYROWS -1) << KEYCWIDTH)))+1
  51:.\Keyboard.c  **** #define KEYROWMASK ((1 << KEYROWS)-1)
  52:.\Keyboard.c  **** #define KEYCOLMASK ((1 << KEYCOLS)-1)
  53:.\Keyboard.c  **** 
  54:.\Keyboard.c  **** CYCODE const char8 TranslateTable[MAXKEYVALUE] = {
  55:.\Keyboard.c  **** 					'1','4','7',
  56:.\Keyboard.c  ****                     '*','2','5',
  57:.\Keyboard.c  **** 					'8','0','3',
  58:.\Keyboard.c  **** 					'6','9','#'
  59:.\Keyboard.c  **** 												 };
  60:.\Keyboard.c  **** 								 
  61:.\Keyboard.c  **** void Keyboard_Init(void)
  62:.\Keyboard.c  **** {
  26              		.loc 1 62 0
  27              		.cfi_startproc
  28 0000 08B5     		push	{r3, lr}
  29              		.cfi_def_cfa_offset 8
  30              		.cfi_offset 3, -8
  31              		.cfi_offset 14, -4
  63:.\Keyboard.c  **** 	Debounce_Int_StartEx(Key_Debounce);
  32              		.loc 1 63 0
  33 0002 0348     		ldr	r0, .L2
  34 0004 FFF7FEFF 		bl	Debounce_Int_StartEx
  35              	.LVL0:
  64:.\Keyboard.c  **** 	Debounce_Timer_Start();
  36              		.loc 1 64 0
  37 0008 FFF7FEFF 		bl	Debounce_Timer_Start
  38              	.LVL1:
  65:.\Keyboard.c  **** }
  39              		.loc 1 65 0
  40              		@ sp needed
  41 000c 08BD     		pop	{r3, pc}
  42              	.L3:
  43 000e C046     		.align	2
  44              	.L2:
  45 0010 00000000 		.word	Key_Debounce
  46              		.cfi_endproc
  47              	.LFE34:
  48              		.size	Keyboard_Init, .-Keyboard_Init
  49              		.section	.text.Put_KBD_Char,"ax",%progbits
ARM GAS  C:\Users\IEUser\AppData\Local\Temp\ccjwttSg.s 			page 3


  50              		.align	2
  51              		.global	Put_KBD_Char
  52              		.code	16
  53              		.thumb_func
  54              		.type	Put_KBD_Char, %function
  55              	Put_KBD_Char:
  56              	.LFB35:
  66:.\Keyboard.c  **** 
  67:.\Keyboard.c  **** void Put_KBD_Char(char8 Ch)
  68:.\Keyboard.c  **** {
  57              		.loc 1 68 0
  58              		.cfi_startproc
  59              	.LVL2:
  69:.\Keyboard.c  **** 	KBD_Buffer[KBD_WriteIndex++] = TranslateTable[Ch-1];
  60              		.loc 1 69 0
  61 0000 0749     		ldr	r1, .L6
  62 0002 0A78     		ldrb	r2, [r1]
  63 0004 531C     		add	r3, r2, #1
  64 0006 DBB2     		uxtb	r3, r3
  65 0008 0B70     		strb	r3, [r1]
  66 000a 0138     		sub	r0, r0, #1
  67              	.LVL3:
  68 000c 0549     		ldr	r1, .L6+4
  69 000e 085C     		ldrb	r0, [r1, r0]
  70 0010 0549     		ldr	r1, .L6+8
  71 0012 8854     		strb	r0, [r1, r2]
  70:.\Keyboard.c  **** 	if (KBD_WriteIndex >= KEYBUFFSIZE) KBD_WriteIndex = 0;
  72              		.loc 1 70 0
  73 0014 092B     		cmp	r3, #9
  74 0016 02D9     		bls	.L4
  75              		.loc 1 70 0 is_stmt 0 discriminator 1
  76 0018 0022     		mov	r2, #0
  77 001a 014B     		ldr	r3, .L6
  78 001c 1A70     		strb	r2, [r3]
  79              	.L4:
  71:.\Keyboard.c  **** }
  80              		.loc 1 71 0 is_stmt 1
  81              		@ sp needed
  82 001e 7047     		bx	lr
  83              	.L7:
  84              		.align	2
  85              	.L6:
  86 0020 00000000 		.word	.LANCHOR0
  87 0024 00000000 		.word	.LANCHOR1
  88 0028 00000000 		.word	KBD_Buffer
  89              		.cfi_endproc
  90              	.LFE35:
  91              		.size	Put_KBD_Char, .-Put_KBD_Char
  92              		.section	.text.KBD_Char_Ready,"ax",%progbits
  93              		.align	2
  94              		.global	KBD_Char_Ready
  95              		.code	16
  96              		.thumb_func
  97              		.type	KBD_Char_Ready, %function
  98              	KBD_Char_Ready:
  99              	.LFB36:
  72:.\Keyboard.c  **** 
ARM GAS  C:\Users\IEUser\AppData\Local\Temp\ccjwttSg.s 			page 4


  73:.\Keyboard.c  **** char8 KBD_Char_Ready(void)
  74:.\Keyboard.c  **** {
 100              		.loc 1 74 0
 101              		.cfi_startproc
  75:.\Keyboard.c  **** 	return (KBD_WriteIndex != KBD_ReadIndex);
 102              		.loc 1 75 0
 103 0000 034A     		ldr	r2, .L9
 104 0002 1378     		ldrb	r3, [r2]
 105 0004 5078     		ldrb	r0, [r2, #1]
 106 0006 181A     		sub	r0, r3, r0
 107 0008 431E     		sub	r3, r0, #1
 108 000a 9841     		sbc	r0, r0, r3
 109 000c C0B2     		uxtb	r0, r0
  76:.\Keyboard.c  **** }
 110              		.loc 1 76 0
 111              		@ sp needed
 112 000e 7047     		bx	lr
 113              	.L10:
 114              		.align	2
 115              	.L9:
 116 0010 00000000 		.word	.LANCHOR0
 117              		.cfi_endproc
 118              	.LFE36:
 119              		.size	KBD_Char_Ready, .-KBD_Char_Ready
 120              		.section	.text.Get_KBD_Char,"ax",%progbits
 121              		.align	2
 122              		.global	Get_KBD_Char
 123              		.code	16
 124              		.thumb_func
 125              		.type	Get_KBD_Char, %function
 126              	Get_KBD_Char:
 127              	.LFB37:
  77:.\Keyboard.c  **** 
  78:.\Keyboard.c  **** char8 Get_KBD_Char(void)
  79:.\Keyboard.c  **** {
 128              		.loc 1 79 0
 129              		.cfi_startproc
 130 0000 08B5     		push	{r3, lr}
 131              		.cfi_def_cfa_offset 8
 132              		.cfi_offset 3, -8
 133              		.cfi_offset 14, -4
 134              	.L12:
  80:.\Keyboard.c  **** char8 Result;
  81:.\Keyboard.c  **** 	while (!KBD_Char_Ready());
 135              		.loc 1 81 0 discriminator 1
 136 0002 FFF7FEFF 		bl	KBD_Char_Ready
 137              	.LVL4:
 138 0006 0028     		cmp	r0, #0
 139 0008 FBD0     		beq	.L12
  82:.\Keyboard.c  **** 	Result = KBD_Buffer[KBD_ReadIndex++];
 140              		.loc 1 82 0
 141 000a 0649     		ldr	r1, .L14
 142 000c 4A78     		ldrb	r2, [r1, #1]
 143 000e 531C     		add	r3, r2, #1
 144 0010 DBB2     		uxtb	r3, r3
 145 0012 4B70     		strb	r3, [r1, #1]
 146 0014 0449     		ldr	r1, .L14+4
ARM GAS  C:\Users\IEUser\AppData\Local\Temp\ccjwttSg.s 			page 5


 147 0016 885C     		ldrb	r0, [r1, r2]
 148              	.LVL5:
  83:.\Keyboard.c  **** 	if (KBD_ReadIndex >= KEYBUFFSIZE) KBD_ReadIndex = 0;
 149              		.loc 1 83 0
 150 0018 092B     		cmp	r3, #9
 151 001a 02D9     		bls	.L13
 152              		.loc 1 83 0 is_stmt 0 discriminator 1
 153 001c 0022     		mov	r2, #0
 154 001e 014B     		ldr	r3, .L14
 155 0020 5A70     		strb	r2, [r3, #1]
 156              	.L13:
  84:.\Keyboard.c  **** 	return Result;
  85:.\Keyboard.c  **** }
 157              		.loc 1 85 0 is_stmt 1
 158              		@ sp needed
 159 0022 08BD     		pop	{r3, pc}
 160              	.L15:
 161              		.align	2
 162              	.L14:
 163 0024 00000000 		.word	.LANCHOR0
 164 0028 00000000 		.word	KBD_Buffer
 165              		.cfi_endproc
 166              	.LFE37:
 167              		.size	Get_KBD_Char, .-Get_KBD_Char
 168              		.section	.text.LowestBitPosition,"ax",%progbits
 169              		.align	2
 170              		.global	LowestBitPosition
 171              		.code	16
 172              		.thumb_func
 173              		.type	LowestBitPosition, %function
 174              	LowestBitPosition:
 175              	.LFB38:
  86:.\Keyboard.c  **** 
  87:.\Keyboard.c  **** uint8 LowestBitPosition(uint8 Val)
  88:.\Keyboard.c  **** {
 176              		.loc 1 88 0
 177              		.cfi_startproc
 178              	.LVL6:
  89:.\Keyboard.c  **** uint8 ii;
  90:.\Keyboard.c  **** 	for (ii=0; ii < 8;ii++,Val >>= 1)
 179              		.loc 1 90 0
 180 0000 0023     		mov	r3, #0
 181 0002 06E0     		b	.L17
 182              	.LVL7:
 183              	.L20:
  91:.\Keyboard.c  **** 	{
  92:.\Keyboard.c  **** 		if (Val & 0x01u) return ii;
 184              		.loc 1 92 0
 185 0004 C207     		lsl	r2, r0, #31
 186 0006 01D5     		bpl	.L18
 187              		.loc 1 92 0 is_stmt 0 discriminator 1
 188 0008 181C     		mov	r0, r3
 189              	.LVL8:
 190 000a 05E0     		b	.L19
 191              	.LVL9:
 192              	.L18:
  90:.\Keyboard.c  **** 	{
ARM GAS  C:\Users\IEUser\AppData\Local\Temp\ccjwttSg.s 			page 6


 193              		.loc 1 90 0 is_stmt 1 discriminator 2
 194 000c 0133     		add	r3, r3, #1
 195              	.LVL10:
 196 000e DBB2     		uxtb	r3, r3
 197              	.LVL11:
 198 0010 4008     		lsr	r0, r0, #1
 199              	.LVL12:
 200              	.L17:
  90:.\Keyboard.c  **** 	{
 201              		.loc 1 90 0 is_stmt 0 discriminator 1
 202 0012 072B     		cmp	r3, #7
 203 0014 F6D9     		bls	.L20
  93:.\Keyboard.c  **** 	}
  94:.\Keyboard.c  **** 	return 0xffu;
 204              		.loc 1 94 0 is_stmt 1
 205 0016 FF20     		mov	r0, #255
 206              	.LVL13:
 207              	.L19:
  95:.\Keyboard.c  **** }
 208              		.loc 1 95 0
 209              		@ sp needed
 210 0018 7047     		bx	lr
 211              		.cfi_endproc
 212              	.LFE38:
 213              		.size	LowestBitPosition, .-LowestBitPosition
 214 001a C046     		.section	.text.ReadMatrix,"ax",%progbits
 215              		.align	2
 216              		.global	ReadMatrix
 217              		.code	16
 218              		.thumb_func
 219              		.type	ReadMatrix, %function
 220              	ReadMatrix:
 221              	.LFB39:
  96:.\Keyboard.c  **** 
  97:.\Keyboard.c  **** uint8 ReadMatrix(void) 
  98:.\Keyboard.c  **** {
 222              		.loc 1 98 0
 223              		.cfi_startproc
 224 0000 38B5     		push	{r3, r4, r5, lr}
 225              		.cfi_def_cfa_offset 16
 226              		.cfi_offset 3, -16
 227              		.cfi_offset 4, -12
 228              		.cfi_offset 5, -8
 229              		.cfi_offset 14, -4
  99:.\Keyboard.c  **** char8	Row;
 100:.\Keyboard.c  **** char8	Column;
 101:.\Keyboard.c  **** 	//*** Get Row ***//
 102:.\Keyboard.c  **** 	KBD_ROWPins_Write(KEYROWMASK);
 230              		.loc 1 102 0
 231 0002 0F20     		mov	r0, #15
 232 0004 FFF7FEFF 		bl	KBD_ROWPins_Write
 233              	.LVL14:
 103:.\Keyboard.c  **** 	KBD_COLPins_Write(~KEYCOLMASK);
 234              		.loc 1 103 0
 235 0008 F820     		mov	r0, #248
 236 000a FFF7FEFF 		bl	KBD_COLPins_Write
 237              	.LVL15:
ARM GAS  C:\Users\IEUser\AppData\Local\Temp\ccjwttSg.s 			page 7


 104:.\Keyboard.c  **** 	if ((Row=KBD_ROWPins_Read()) == KEYROWMASK) return 0;
 238              		.loc 1 104 0
 239 000e FFF7FEFF 		bl	KBD_ROWPins_Read
 240              	.LVL16:
 241 0012 041E     		sub	r4, r0, #0
 242              	.LVL17:
 243 0014 0F2C     		cmp	r4, #15
 244 0016 18D0     		beq	.L23
 105:.\Keyboard.c  **** 	//*** Get Column ***//
 106:.\Keyboard.c  **** 	KBD_COLPins_Write(KEYCOLMASK);
 245              		.loc 1 106 0
 246 0018 0720     		mov	r0, #7
 247              	.LVL18:
 248 001a FFF7FEFF 		bl	KBD_COLPins_Write
 249              	.LVL19:
 107:.\Keyboard.c  **** 	KBD_ROWPins_Write(Row);
 250              		.loc 1 107 0
 251 001e 201C     		mov	r0, r4
 252 0020 FFF7FEFF 		bl	KBD_ROWPins_Write
 253              	.LVL20:
 108:.\Keyboard.c  **** 	if ((Column = KBD_COLPins_Read()) == KEYCOLMASK) return 0;
 254              		.loc 1 108 0
 255 0024 FFF7FEFF 		bl	KBD_COLPins_Read
 256              	.LVL21:
 257 0028 051E     		sub	r5, r0, #0
 258              	.LVL22:
 259 002a 072D     		cmp	r5, #7
 260 002c 0FD0     		beq	.L24
 109:.\Keyboard.c  **** 
 110:.\Keyboard.c  **** 	return (LowestBitPosition(~Row) | (LowestBitPosition(~Column) << 2))+1; // max is 0b0000 1011 = 11
 261              		.loc 1 110 0
 262 002e E043     		mvn	r0, r4
 263              	.LVL23:
 264 0030 C0B2     		uxtb	r0, r0
 265 0032 FFF7FEFF 		bl	LowestBitPosition
 266              	.LVL24:
 267 0036 041C     		mov	r4, r0
 268 0038 E843     		mvn	r0, r5
 269 003a C0B2     		uxtb	r0, r0
 270 003c FFF7FEFF 		bl	LowestBitPosition
 271              	.LVL25:
 272 0040 8000     		lsl	r0, r0, #2
 273 0042 2043     		orr	r0, r4
 274 0044 0130     		add	r0, r0, #1
 275 0046 C0B2     		uxtb	r0, r0
 276 0048 02E0     		b	.L22
 277              	.LVL26:
 278              	.L23:
 104:.\Keyboard.c  **** 	//*** Get Column ***//
 279              		.loc 1 104 0
 280 004a 0020     		mov	r0, #0
 281              	.LVL27:
 282 004c 00E0     		b	.L22
 283              	.LVL28:
 284              	.L24:
 108:.\Keyboard.c  **** 	if ((Column = KBD_COLPins_Read()) == KEYCOLMASK) return 0;
 285              		.loc 1 108 0
ARM GAS  C:\Users\IEUser\AppData\Local\Temp\ccjwttSg.s 			page 8


 286 004e 0020     		mov	r0, #0
 287              	.LVL29:
 288              	.L22:
 111:.\Keyboard.c  **** }
 289              		.loc 1 111 0
 290              		@ sp needed
 291 0050 38BD     		pop	{r3, r4, r5, pc}
 292              		.cfi_endproc
 293              	.LFE39:
 294              		.size	ReadMatrix, .-ReadMatrix
 295 0052 C046     		.section	.text.Key_Debounce,"ax",%progbits
 296              		.align	2
 297              		.global	Key_Debounce
 298              		.code	16
 299              		.thumb_func
 300              		.type	Key_Debounce, %function
 301              	Key_Debounce:
 302              	.LFB40:
 112:.\Keyboard.c  **** 
 113:.\Keyboard.c  **** //***********************************************//
 114:.\Keyboard.c  **** //* Service routine called by a timer interrupt	**/
 115:.\Keyboard.c  **** //***********************************************//
 116:.\Keyboard.c  **** void Key_Debounce(void)
 117:.\Keyboard.c  **** {
 303              		.loc 1 117 0
 304              		.cfi_startproc
 305 0000 38B5     		push	{r3, r4, r5, lr}
 306              		.cfi_def_cfa_offset 16
 307              		.cfi_offset 3, -16
 308              		.cfi_offset 4, -12
 309              		.cfi_offset 5, -8
 310              		.cfi_offset 14, -4
 118:.\Keyboard.c  **** static uint8 State[MAX_CHECKS];			// 	Array that maintains bounce status
 119:.\Keyboard.c  **** static uint8 StateIndex = 0;			//	Index into State
 120:.\Keyboard.c  **** static uint8 Key_Pressed_Delay	= 0;	//	Delay for continous pressed Key before first keystroke is ge
 121:.\Keyboard.c  **** static uint8 Key_Generate_Delay	= 0;	//	Delay for generating next Keystroke when key is pressed con
 122:.\Keyboard.c  **** uint8 ii;								//	used as a loop-index
 123:.\Keyboard.c  **** uint8 NewKey;							//	New key pressed /released state
 124:.\Keyboard.c  **** 
 125:.\Keyboard.c  **** 	Debounce_Timer_ReadStatusRegister();		// Clear Interrupt source
 311              		.loc 1 125 0
 312 0002 FFF7FEFF 		bl	Debounce_Timer_ReadStatusRegister
 313              	.LVL30:
 126:.\Keyboard.c  **** 	State[StateIndex++] = ReadMatrix();			
 314              		.loc 1 126 0
 315 0006 284C     		ldr	r4, .L35
 316 0008 A578     		ldrb	r5, [r4, #2]
 317 000a 6B1C     		add	r3, r5, #1
 318 000c A370     		strb	r3, [r4, #2]
 319 000e FFF7FEFF 		bl	ReadMatrix
 320              	.LVL31:
 321 0012 6519     		add	r5, r4, r5
 322 0014 2871     		strb	r0, [r5, #4]
 127:.\Keyboard.c  **** 	if(StateIndex >= MAX_CHECKS)StateIndex = 0;	// Wrap around
 323              		.loc 1 127 0
 324 0016 A378     		ldrb	r3, [r4, #2]
 325 0018 092B     		cmp	r3, #9
ARM GAS  C:\Users\IEUser\AppData\Local\Temp\ccjwttSg.s 			page 9


 326 001a 02D9     		bls	.L26
 327              		.loc 1 127 0 is_stmt 0 discriminator 1
 328 001c 0022     		mov	r2, #0
 329 001e 224B     		ldr	r3, .L35
 330 0020 9A70     		strb	r2, [r3, #2]
 331              	.L26:
 332              	.LVL32:
 128:.\Keyboard.c  **** 
 129:.\Keyboard.c  **** 	for(ii=0,NewKey=0xff; ii<MAX_CHECKS;NewKey &= State[ii++]);
 333              		.loc 1 129 0 is_stmt 1
 334 0022 FF24     		mov	r4, #255
 335 0024 0023     		mov	r3, #0
 336 0026 05E0     		b	.L27
 337              	.LVL33:
 338              	.L28:
 339              		.loc 1 129 0 is_stmt 0 discriminator 3
 340 0028 5A1C     		add	r2, r3, #1
 341              	.LVL34:
 342 002a 1F49     		ldr	r1, .L35
 343 002c CB18     		add	r3, r1, r3
 344 002e 1B79     		ldrb	r3, [r3, #4]
 345 0030 1C40     		and	r4, r3
 346              	.LVL35:
 347 0032 D3B2     		uxtb	r3, r2
 348              	.LVL36:
 349              	.L27:
 350              		.loc 1 129 0 discriminator 1
 351 0034 092B     		cmp	r3, #9
 352 0036 F7D9     		bls	.L28
 130:.\Keyboard.c  **** 
 131:.\Keyboard.c  **** /***** NewKey is new, Debounced_Key is old *****/
 132:.\Keyboard.c  **** /*	new old 									*/
 133:.\Keyboard.c  **** /*	0	0	 	nothing happened	!new & !old	*/
 134:.\Keyboard.c  **** /*  0   1		key released		!new &  old	*/
 135:.\Keyboard.c  **** /*	1	0		key pressed			 new & !old	*/
 136:.\Keyboard.c  **** /*	1	1		continued keypress	 new &  old	*/
 137:.\Keyboard.c  **** /************************************************/
 138:.\Keyboard.c  **** 
 139:.\Keyboard.c  **** 	if ((uint8)((~NewKey) & (~Debounced_Key))== 0xffu)	// Nothing has happened
 353              		.loc 1 139 0 is_stmt 1
 354 0038 E3B2     		uxtb	r3, r4
 355              	.LVL37:
 356 003a 1B4A     		ldr	r2, .L35
 357 003c 917B     		ldrb	r1, [r2, #14]
 358 003e CAB2     		uxtb	r2, r1
 359 0040 181C     		mov	r0, r3
 360 0042 1043     		orr	r0, r2
 361 0044 02D1     		bne	.L29
 140:.\Keyboard.c  **** 	{
 141:.\Keyboard.c  **** 		Debounced_Key = NewKey;
 362              		.loc 1 141 0
 363 0046 184B     		ldr	r3, .L35
 364 0048 9C73     		strb	r4, [r3, #14]
 142:.\Keyboard.c  **** 		return;
 365              		.loc 1 142 0
 366 004a 2CE0     		b	.L25
 367              	.L29:
ARM GAS  C:\Users\IEUser\AppData\Local\Temp\ccjwttSg.s 			page 10


 143:.\Keyboard.c  **** 	}
 144:.\Keyboard.c  **** 	
 145:.\Keyboard.c  **** 	if ((uint8)(~NewKey & Debounced_Key)!= 0x00u)		// Any key released
 368              		.loc 1 145 0
 369 004c 101C     		mov	r0, r2
 370 004e 9843     		bic	r0, r3
 371 0050 04D0     		beq	.L31
 146:.\Keyboard.c  **** 	{
 147:.\Keyboard.c  **** 		Debounced_Key = NewKey;
 372              		.loc 1 147 0
 373 0052 154B     		ldr	r3, .L35
 374 0054 9C73     		strb	r4, [r3, #14]
 148:.\Keyboard.c  **** 		Key_Pressed_Delay = 0;
 375              		.loc 1 148 0
 376 0056 0022     		mov	r2, #0
 377 0058 DA73     		strb	r2, [r3, #15]
 149:.\Keyboard.c  **** 		return;
 378              		.loc 1 149 0
 379 005a 24E0     		b	.L25
 380              	.L31:
 150:.\Keyboard.c  **** 	}
 151:.\Keyboard.c  **** 	
 152:.\Keyboard.c  **** 	if ((uint8)(NewKey & ~Debounced_Key)!= 0x00u)		// Key pressed seen first time
 381              		.loc 1 152 0
 382 005c 9343     		bic	r3, r2
 383 005e 07D0     		beq	.L32
 153:.\Keyboard.c  **** 	{
 154:.\Keyboard.c  **** 		Put_KBD_Char(NewKey);
 384              		.loc 1 154 0
 385 0060 201C     		mov	r0, r4
 386 0062 FFF7FEFF 		bl	Put_KBD_Char
 387              	.LVL38:
 155:.\Keyboard.c  **** 		Key_Pressed_Delay = 0;
 388              		.loc 1 155 0
 389 0066 104B     		ldr	r3, .L35
 390 0068 0022     		mov	r2, #0
 391 006a DA73     		strb	r2, [r3, #15]
 156:.\Keyboard.c  **** 		Debounced_Key = NewKey;
 392              		.loc 1 156 0
 393 006c 9C73     		strb	r4, [r3, #14]
 157:.\Keyboard.c  **** 		return;
 394              		.loc 1 157 0
 395 006e 1AE0     		b	.L25
 396              	.L32:
 158:.\Keyboard.c  **** 	}
 159:.\Keyboard.c  **** 	
 160:.\Keyboard.c  **** 	if ((uint8)(NewKey & Debounced_Key)!= 0x00u)		// Key is continously pressed
 397              		.loc 1 160 0
 398 0070 2142     		tst	r1, r4
 399 0072 18D0     		beq	.L25
 161:.\Keyboard.c  **** 	{
 162:.\Keyboard.c  **** 		if (Key_Pressed_Delay < INITIAL_DELAY)
 400              		.loc 1 162 0
 401 0074 0C4B     		ldr	r3, .L35
 402 0076 DB7B     		ldrb	r3, [r3, #15]
 403 0078 4F2B     		cmp	r3, #79
 404 007a 05D8     		bhi	.L33
ARM GAS  C:\Users\IEUser\AppData\Local\Temp\ccjwttSg.s 			page 11


 163:.\Keyboard.c  **** 		{
 164:.\Keyboard.c  **** 			Key_Pressed_Delay++;
 405              		.loc 1 164 0
 406 007c 0A4A     		ldr	r2, .L35
 407 007e 0133     		add	r3, r3, #1
 408 0080 D373     		strb	r3, [r2, #15]
 165:.\Keyboard.c  **** 			Key_Generate_Delay = 0;
 409              		.loc 1 165 0
 410 0082 0023     		mov	r3, #0
 411 0084 1374     		strb	r3, [r2, #16]
 412 0086 0CE0     		b	.L34
 413              	.L33:
 166:.\Keyboard.c  **** 		}
 167:.\Keyboard.c  **** 		else
 168:.\Keyboard.c  **** 		{
 169:.\Keyboard.c  **** 			Key_Generate_Delay++;
 414              		.loc 1 169 0
 415 0088 074A     		ldr	r2, .L35
 416 008a 137C     		ldrb	r3, [r2, #16]
 417 008c 0133     		add	r3, r3, #1
 418 008e DBB2     		uxtb	r3, r3
 419 0090 1374     		strb	r3, [r2, #16]
 170:.\Keyboard.c  **** 			if (Key_Generate_Delay >= REPEAT_RATE)
 420              		.loc 1 170 0
 421 0092 272B     		cmp	r3, #39
 422 0094 05D9     		bls	.L34
 171:.\Keyboard.c  **** 			{
 172:.\Keyboard.c  **** 				Key_Generate_Delay = 0;
 423              		.loc 1 172 0
 424 0096 0022     		mov	r2, #0
 425 0098 034B     		ldr	r3, .L35
 426 009a 1A74     		strb	r2, [r3, #16]
 173:.\Keyboard.c  **** 				Put_KBD_Char(NewKey);
 427              		.loc 1 173 0
 428 009c 201C     		mov	r0, r4
 429 009e FFF7FEFF 		bl	Put_KBD_Char
 430              	.LVL39:
 431              	.L34:
 174:.\Keyboard.c  **** 			}
 175:.\Keyboard.c  **** 		}
 176:.\Keyboard.c  **** 		Debounced_Key = NewKey;	
 432              		.loc 1 176 0
 433 00a2 014B     		ldr	r3, .L35
 434 00a4 9C73     		strb	r4, [r3, #14]
 435              	.L25:
 177:.\Keyboard.c  **** 	}
 178:.\Keyboard.c  **** }
 436              		.loc 1 178 0
 437              		@ sp needed
 438              	.LVL40:
 439 00a6 38BD     		pop	{r3, r4, r5, pc}
 440              	.L36:
 441              		.align	2
 442              	.L35:
 443 00a8 00000000 		.word	.LANCHOR0
 444              		.cfi_endproc
 445              	.LFE40:
ARM GAS  C:\Users\IEUser\AppData\Local\Temp\ccjwttSg.s 			page 12


 446              		.size	Key_Debounce, .-Key_Debounce
 447              		.global	TranslateTable
 448              		.comm	KBD_Buffer,10,4
 449              		.global	KBD_ReadIndex
 450              		.global	KBD_WriteIndex
 451              		.global	Debounced_Key
 452              		.section	.rodata
 453              		.align	2
 454              		.set	.LANCHOR1,. + 0
 455              		.type	TranslateTable, %object
 456              		.size	TranslateTable, 15
 457              	TranslateTable:
 458 0000 31       		.byte	49
 459 0001 34       		.byte	52
 460 0002 37       		.byte	55
 461 0003 2A       		.byte	42
 462 0004 32       		.byte	50
 463 0005 35       		.byte	53
 464 0006 38       		.byte	56
 465 0007 30       		.byte	48
 466 0008 33       		.byte	51
 467 0009 36       		.byte	54
 468 000a 39       		.byte	57
 469 000b 23       		.byte	35
 470 000c 000000   		.space	3
 471 000f 00       		.bss
 472              		.align	2
 473              		.set	.LANCHOR0,. + 0
 474              		.type	KBD_WriteIndex, %object
 475              		.size	KBD_WriteIndex, 1
 476              	KBD_WriteIndex:
 477 0000 00       		.space	1
 478              		.type	KBD_ReadIndex, %object
 479              		.size	KBD_ReadIndex, 1
 480              	KBD_ReadIndex:
 481 0001 00       		.space	1
 482              		.type	StateIndex.5601, %object
 483              		.size	StateIndex.5601, 1
 484              	StateIndex.5601:
 485 0002 00       		.space	1
 486 0003 00       		.space	1
 487              		.type	State.5600, %object
 488              		.size	State.5600, 10
 489              	State.5600:
 490 0004 00000000 		.space	10
 490      00000000 
 490      0000
 491              		.type	Debounced_Key, %object
 492              		.size	Debounced_Key, 1
 493              	Debounced_Key:
 494 000e 00       		.space	1
 495              		.type	Key_Pressed_Delay.5602, %object
 496              		.size	Key_Pressed_Delay.5602, 1
 497              	Key_Pressed_Delay.5602:
 498 000f 00       		.space	1
 499              		.type	Key_Generate_Delay.5603, %object
 500              		.size	Key_Generate_Delay.5603, 1
ARM GAS  C:\Users\IEUser\AppData\Local\Temp\ccjwttSg.s 			page 13


 501              	Key_Generate_Delay.5603:
 502 0010 00       		.space	1
 503 0011 000000   		.text
 504              	.Letext0:
 505              		.file 2 "Generated_Source\\PSoC4/cytypes.h"
 506              		.file 3 "Generated_Source\\PSoC4/Debounce_Int.h"
 507              		.file 4 "Generated_Source\\PSoC4/KBD_ROWPins.h"
 508              		.file 5 "Generated_Source\\PSoC4/KBD_COLPins.h"
 509              		.file 6 "Generated_Source\\PSoC4/Debounce_Timer.h"