ARM GAS  C:\Users\744\AppData\Local\Temp\ccu3YEwP.s 			page 1


   1              		.cpu cortex-m0
   2              		.fpu softvfp
   3              		.eabi_attribute 20, 1
   4              		.eabi_attribute 21, 1
   5              		.eabi_attribute 23, 3
   6              		.eabi_attribute 24, 1
   7              		.eabi_attribute 25, 1
   8              		.eabi_attribute 26, 1
   9              		.eabi_attribute 30, 1
  10              		.eabi_attribute 34, 0
  11              		.eabi_attribute 18, 4
  12              		.code	16
  13              		.file	"main.c"
  14              		.text
  15              	.Ltext0:
  16              		.cfi_sections	.debug_frame
  17              		.section	.text.MY_ISR,"ax",%progbits
  18              		.align	2
  19              		.global	MY_ISR
  20              		.code	16
  21              		.thumb_func
  22              		.type	MY_ISR, %function
  23              	MY_ISR:
  24              	.LFB35:
  25              		.file 1 ".\\main.c"
   1:.\main.c      **** /* ========================================
   2:.\main.c      ****  *
   3:.\main.c      ****  * Copyright YOUR COMPANY, THE YEAR
   4:.\main.c      ****  * All Rights Reserved
   5:.\main.c      ****  * UNPUBLISHED, LICENSED SOFTWARE.
   6:.\main.c      ****  *
   7:.\main.c      ****  * CONFIDENTIAL AND PROPRIETARY INFORMATION
   8:.\main.c      ****  * WHICH IS THE PROPERTY OF your company.
   9:.\main.c      ****  *
  10:.\main.c      ****  * ========================================
  11:.\main.c      **** */
  12:.\main.c      **** #include <project.h>
  13:.\main.c      **** #include <Keyboard.h>
  14:.\main.c      **** #include "LiquidCrystal_I2C.h"
  15:.\main.c      **** #include <stdbool.h>
  16:.\main.c      **** #include <string.h>
  17:.\main.c      **** #include <stdio.h>
  18:.\main.c      **** 
  19:.\main.c      **** 
  20:.\main.c      **** uint32_t Addr = 0x27;    //i2c address of LCD
  21:.\main.c      **** uint8 Key;    
  22:.\main.c      **** uint32 ch; 
  23:.\main.c      **** uint32 a_count = 0;    //alarm enable count in 0.01 miliseconds
  24:.\main.c      **** 
  25:.\main.c      **** char pass_arr[18];    //array where to collect entered password
  26:.\main.c      **** const char* ref_pass = "1111";    //password reference string
  27:.\main.c      **** uint8 i = 0;    //index of element stored in password array
  28:.\main.c      **** 
  29:.\main.c      **** char id_arr[14];    //array where to collect key id
  30:.\main.c      **** const char *ref_id =  "09008B316BD8";    //key id reference string
  31:.\main.c      **** uint j = 0;    //index of element stored in key id array
  32:.\main.c      **** 
ARM GAS  C:\Users\744\AppData\Local\Temp\ccu3YEwP.s 			page 2


  33:.\main.c      **** 
  34:.\main.c      **** bool security_active = true;    //state of system
  35:.\main.c      **** bool motion_detected = false;    //state of motion sensors(true for caught)
  36:.\main.c      **** bool box_closed = true;   //box with keypad is closed
  37:.\main.c      **** bool keys_locked = false;    //password input is forbidden
  38:.\main.c      **** bool accepted = false;    //confirmed password
  39:.\main.c      **** bool compared = false;    //key ids compared
  40:.\main.c      **** 
  41:.\main.c      **** 
  42:.\main.c      **** 
  43:.\main.c      **** CY_ISR(MY_ISR);
  44:.\main.c      **** void motion_detection();
  45:.\main.c      **** void password();
  46:.\main.c      **** void input_char(const char el);
  47:.\main.c      **** void discard(char a[]);
  48:.\main.c      **** void accept(char a[],const char b[]);
  49:.\main.c      **** void key_id();
  50:.\main.c      **** 
  51:.\main.c      **** int main()
  52:.\main.c      **** {
  53:.\main.c      ****     CyGlobalIntEnable; /* Enable global interrupts. */
  54:.\main.c      ****     
  55:.\main.c      ****     Keyboard_Init();
  56:.\main.c      ****     LiquidCrystal_I2C_init(Addr,16,2,0);
  57:.\main.c      ****     begin();
  58:.\main.c      ****     Alarm_Timer_Start();
  59:.\main.c      ****     I2C_Start();
  60:.\main.c      ****     UART_Start();
  61:.\main.c      ****     Alarm_Int_StartEx(MY_ISR);
  62:.\main.c      ****     
  63:.\main.c      ****     
  64:.\main.c      ****     clear();
  65:.\main.c      ****     setCursor(0,1);
  66:.\main.c      ****     
  67:.\main.c      ****     LED_GREEN_Write(1);
  68:.\main.c      ****     LED_RED_Write(1);
  69:.\main.c      ****     Buzzer_Write(1);
  70:.\main.c      **** 
  71:.\main.c      ****     for(;;)
  72:.\main.c      ****     {
  73:.\main.c      ****         motion_detection();
  74:.\main.c      ****         if(security_active && motion_detected)
  75:.\main.c      ****         {
  76:.\main.c      ****             key_id();
  77:.\main.c      ****             if(!box_closed)
  78:.\main.c      ****             {
  79:.\main.c      ****                 password();
  80:.\main.c      ****                 if(accepted == true)
  81:.\main.c      ****                 {
  82:.\main.c      ****                     security_active = false;
  83:.\main.c      ****                     motion_detected = false;
  84:.\main.c      ****                 }
  85:.\main.c      ****                 
  86:.\main.c      ****             }
  87:.\main.c      ****         }
  88:.\main.c      **** 
  89:.\main.c      ****     }
ARM GAS  C:\Users\744\AppData\Local\Temp\ccu3YEwP.s 			page 3


  90:.\main.c      **** }
  91:.\main.c      **** 
  92:.\main.c      **** 
  93:.\main.c      **** CY_ISR(MY_ISR) 
  94:.\main.c      **** {
  26              		.loc 1 94 0
  27              		.cfi_startproc
  28 0000 08B5     		push	{r3, lr}
  29              		.cfi_def_cfa_offset 8
  30              		.cfi_offset 3, -8
  31              		.cfi_offset 14, -4
  95:.\main.c      ****     if(motion_detected && security_active && ++a_count == 1000000) 
  32              		.loc 1 95 0
  33 0002 144B     		ldr	r3, .L3
  34 0004 1B78     		ldrb	r3, [r3]
  35 0006 002B     		cmp	r3, #0
  36 0008 23D0     		beq	.L1
  37              		.loc 1 95 0 is_stmt 0 discriminator 1
  38 000a 134B     		ldr	r3, .L3+4
  39 000c 1B78     		ldrb	r3, [r3]
  40 000e 002B     		cmp	r3, #0
  41 0010 1FD0     		beq	.L1
  42              		.loc 1 95 0 discriminator 2
  43 0012 104A     		ldr	r2, .L3
  44 0014 5368     		ldr	r3, [r2, #4]
  45 0016 0133     		add	r3, r3, #1
  46 0018 5360     		str	r3, [r2, #4]
  47 001a 104A     		ldr	r2, .L3+8
  48 001c 9342     		cmp	r3, r2
  49 001e 18D1     		bne	.L1
  96:.\main.c      ****     {
  97:.\main.c      ****         box_closed = true;
  50              		.loc 1 97 0 is_stmt 1
  51 0020 0122     		mov	r2, #1
  52 0022 0D4B     		ldr	r3, .L3+4
  53 0024 5A70     		strb	r2, [r3, #1]
  98:.\main.c      ****         motion_detected = false;
  54              		.loc 1 98 0
  55 0026 0B4B     		ldr	r3, .L3
  56 0028 0022     		mov	r2, #0
  57 002a 1A70     		strb	r2, [r3]
  99:.\main.c      ****         a_count = 0;
  58              		.loc 1 99 0
  59 002c 5A60     		str	r2, [r3, #4]
 100:.\main.c      ****         clear();   
  60              		.loc 1 100 0
  61 002e FFF7FEFF 		bl	clear
  62              	.LVL0:
 101:.\main.c      ****         LED_GREEN_Write(1);
  63              		.loc 1 101 0
  64 0032 0120     		mov	r0, #1
  65 0034 FFF7FEFF 		bl	LED_GREEN_Write
  66              	.LVL1:
 102:.\main.c      ****         LED_RED_Write(0);
  67              		.loc 1 102 0
  68 0038 0020     		mov	r0, #0
  69 003a FFF7FEFF 		bl	LED_RED_Write
ARM GAS  C:\Users\744\AppData\Local\Temp\ccu3YEwP.s 			page 4


  70              	.LVL2:
 103:.\main.c      ****         setCursor(0,1);
  71              		.loc 1 103 0
  72 003e 0020     		mov	r0, #0
  73 0040 0121     		mov	r1, #1
  74 0042 FFF7FEFF 		bl	setCursor
  75              	.LVL3:
 104:.\main.c      ****         LCD_print("ALARM!");
  76              		.loc 1 104 0
  77 0046 0648     		ldr	r0, .L3+12
  78 0048 FFF7FEFF 		bl	LCD_print
  79              	.LVL4:
 105:.\main.c      ****         Buzzer_Write(0);
  80              		.loc 1 105 0
  81 004c 0020     		mov	r0, #0
  82 004e FFF7FEFF 		bl	Buzzer_Write
  83              	.LVL5:
  84              	.L1:
 106:.\main.c      ****         //CyDelay(500);
 107:.\main.c      ****     }
 108:.\main.c      **** }
  85              		.loc 1 108 0
  86              		@ sp needed
  87 0052 08BD     		pop	{r3, pc}
  88              	.L4:
  89              		.align	2
  90              	.L3:
  91 0054 00000000 		.word	.LANCHOR0
  92 0058 00000000 		.word	.LANCHOR1
  93 005c 40420F00 		.word	1000000
  94 0060 00000000 		.word	.LC2
  95              		.cfi_endproc
  96              	.LFE35:
  97              		.size	MY_ISR, .-MY_ISR
  98              		.section	.text.key_id,"ax",%progbits
  99              		.align	2
 100              		.global	key_id
 101              		.code	16
 102              		.thumb_func
 103              		.type	key_id, %function
 104              	key_id:
 105              	.LFB36:
 109:.\main.c      **** 
 110:.\main.c      **** void key_id()
 111:.\main.c      **** {
 106              		.loc 1 111 0
 107              		.cfi_startproc
 108 0000 10B5     		push	{r4, lr}
 109              		.cfi_def_cfa_offset 8
 110              		.cfi_offset 4, -8
 111              		.cfi_offset 14, -4
 112:.\main.c      ****      if (box_closed)
 112              		.loc 1 112 0
 113 0002 364B     		ldr	r3, .L14
 114 0004 5B78     		ldrb	r3, [r3, #1]
 115 0006 002B     		cmp	r3, #0
 116 0008 67D0     		beq	.L5
ARM GAS  C:\Users\744\AppData\Local\Temp\ccu3YEwP.s 			page 5


 113:.\main.c      ****         {
 114:.\main.c      ****             ch = UART_UartGetChar();
 117              		.loc 1 114 0
 118 000a FFF7FEFF 		bl	UART_UartGetChar
 119              	.LVL6:
 120 000e 344B     		ldr	r3, .L14+4
 121 0010 1860     		str	r0, [r3]
 115:.\main.c      ****             if(ch != 0)
 122              		.loc 1 115 0
 123 0012 0028     		cmp	r0, #0
 124 0014 58D0     		beq	.L7
 116:.\main.c      ****             {
 117:.\main.c      ****                 switch(ch)
 125              		.loc 1 117 0
 126 0016 0228     		cmp	r0, #2
 127 0018 02D0     		beq	.L9
 128 001a 0328     		cmp	r0, #3
 129 001c 0AD0     		beq	.L10
 130 001e 4CE0     		b	.L13
 131              	.L9:
 118:.\main.c      ****                 {
 119:.\main.c      ****                     case '\002':
 120:.\main.c      ****                         memset(id_arr, 0, strlen(id_arr));
 132              		.loc 1 120 0
 133 0020 304C     		ldr	r4, .L14+8
 134 0022 201C     		mov	r0, r4
 135 0024 FFF7FEFF 		bl	strlen
 136              	.LVL7:
 137 0028 021C     		mov	r2, r0
 138 002a 201C     		mov	r0, r4
 139 002c 0021     		mov	r1, #0
 140 002e FFF7FEFF 		bl	memset
 141              	.LVL8:
 121:.\main.c      ****                         break;
 142              		.loc 1 121 0
 143 0032 52E0     		b	.L5
 144              	.L10:
 122:.\main.c      ****                     case '\003':
 123:.\main.c      ****                         if(strcmp(id_arr, ref_id) == 0)
 145              		.loc 1 123 0
 146 0034 294B     		ldr	r3, .L14
 147 0036 5968     		ldr	r1, [r3, #4]
 148 0038 2A48     		ldr	r0, .L14+8
 149 003a FFF7FEFF 		bl	strcmp
 150              	.LVL9:
 151 003e 0028     		cmp	r0, #0
 152 0040 1CD1     		bne	.L11
 124:.\main.c      ****                         {   
 125:.\main.c      ****                             clear();
 153              		.loc 1 125 0
 154 0042 FFF7FEFF 		bl	clear
 155              	.LVL10:
 126:.\main.c      ****                             setCursor(0,0);
 156              		.loc 1 126 0
 157 0046 0020     		mov	r0, #0
 158 0048 0021     		mov	r1, #0
 159 004a FFF7FEFF 		bl	setCursor
ARM GAS  C:\Users\744\AppData\Local\Temp\ccu3YEwP.s 			page 6


 160              	.LVL11:
 127:.\main.c      ****                             LCD_print("Box opened");
 161              		.loc 1 127 0
 162 004e 2648     		ldr	r0, .L14+12
 163 0050 FFF7FEFF 		bl	LCD_print
 164              	.LVL12:
 128:.\main.c      ****                             setCursor(0,1);
 165              		.loc 1 128 0
 166 0054 0020     		mov	r0, #0
 167 0056 0121     		mov	r1, #1
 168 0058 FFF7FEFF 		bl	setCursor
 169              	.LVL13:
 129:.\main.c      ****                             LCD_print("ID: ");
 170              		.loc 1 129 0
 171 005c 2348     		ldr	r0, .L14+16
 172 005e FFF7FEFF 		bl	LCD_print
 173              	.LVL14:
 130:.\main.c      ****                             LCD_print(id_arr);
 174              		.loc 1 130 0
 175 0062 2048     		ldr	r0, .L14+8
 176 0064 FFF7FEFF 		bl	LCD_print
 177              	.LVL15:
 131:.\main.c      ****                             LED_GREEN_Write(0);
 178              		.loc 1 131 0
 179 0068 0020     		mov	r0, #0
 180 006a FFF7FEFF 		bl	LED_GREEN_Write
 181              	.LVL16:
 132:.\main.c      ****                             LED_RED_Write(1);
 182              		.loc 1 132 0
 183 006e 0120     		mov	r0, #1
 184 0070 FFF7FEFF 		bl	LED_RED_Write
 185              	.LVL17:
 133:.\main.c      ****                             box_closed = false;
 186              		.loc 1 133 0
 187 0074 0022     		mov	r2, #0
 188 0076 194B     		ldr	r3, .L14
 189 0078 5A70     		strb	r2, [r3, #1]
 190 007a 18E0     		b	.L12
 191              	.L11:
 134:.\main.c      ****                         }
 135:.\main.c      ****                         else
 136:.\main.c      ****                         {
 137:.\main.c      ****                             clear();
 192              		.loc 1 137 0
 193 007c FFF7FEFF 		bl	clear
 194              	.LVL18:
 138:.\main.c      ****                             setCursor(0,0);
 195              		.loc 1 138 0
 196 0080 0020     		mov	r0, #0
 197 0082 0021     		mov	r1, #0
 198 0084 FFF7FEFF 		bl	setCursor
 199              	.LVL19:
 139:.\main.c      ****                             LCD_print("Wrong key");
 200              		.loc 1 139 0
 201 0088 1948     		ldr	r0, .L14+20
 202 008a FFF7FEFF 		bl	LCD_print
 203              	.LVL20:
ARM GAS  C:\Users\744\AppData\Local\Temp\ccu3YEwP.s 			page 7


 140:.\main.c      ****                             setCursor(0,1);
 204              		.loc 1 140 0
 205 008e 0020     		mov	r0, #0
 206 0090 0121     		mov	r1, #1
 207 0092 FFF7FEFF 		bl	setCursor
 208              	.LVL21:
 141:.\main.c      ****                             LCD_print("ID: ");
 209              		.loc 1 141 0
 210 0096 1548     		ldr	r0, .L14+16
 211 0098 FFF7FEFF 		bl	LCD_print
 212              	.LVL22:
 142:.\main.c      ****                             LCD_print(id_arr);
 213              		.loc 1 142 0
 214 009c 1148     		ldr	r0, .L14+8
 215 009e FFF7FEFF 		bl	LCD_print
 216              	.LVL23:
 143:.\main.c      ****                             LED_GREEN_Write(1);
 217              		.loc 1 143 0
 218 00a2 0120     		mov	r0, #1
 219 00a4 FFF7FEFF 		bl	LED_GREEN_Write
 220              	.LVL24:
 144:.\main.c      ****                             LED_RED_Write(0);
 221              		.loc 1 144 0
 222 00a8 0020     		mov	r0, #0
 223 00aa FFF7FEFF 		bl	LED_RED_Write
 224              	.LVL25:
 225              	.L12:
 145:.\main.c      ****                         }
 146:.\main.c      ****                         j = 0;
 226              		.loc 1 146 0
 227 00ae 114B     		ldr	r3, .L14+24
 228 00b0 0022     		mov	r2, #0
 229 00b2 9A60     		str	r2, [r3, #8]
 147:.\main.c      ****                         compared = true;
 230              		.loc 1 147 0
 231 00b4 0132     		add	r2, r2, #1
 232 00b6 1A73     		strb	r2, [r3, #12]
 148:.\main.c      ****                         break;
 233              		.loc 1 148 0
 234 00b8 0FE0     		b	.L5
 235              	.L13:
 149:.\main.c      ****                     default:
 150:.\main.c      ****                         id_arr[j++] = ch; 
 236              		.loc 1 150 0
 237 00ba 0E4A     		ldr	r2, .L14+24
 238 00bc 9368     		ldr	r3, [r2, #8]
 239 00be 591C     		add	r1, r3, #1
 240 00c0 9160     		str	r1, [r2, #8]
 241 00c2 084A     		ldr	r2, .L14+8
 242 00c4 D054     		strb	r0, [r2, r3]
 243 00c6 08E0     		b	.L5
 244              	.L7:
 151:.\main.c      ****                         
 152:.\main.c      ****                 }
 153:.\main.c      ****             }
 154:.\main.c      ****             else
 155:.\main.c      ****             {
ARM GAS  C:\Users\744\AppData\Local\Temp\ccu3YEwP.s 			page 8


 156:.\main.c      ****                 LED_GREEN_Write(1);
 245              		.loc 1 156 0
 246 00c8 0120     		mov	r0, #1
 247 00ca FFF7FEFF 		bl	LED_GREEN_Write
 248              	.LVL26:
 157:.\main.c      ****                 LED_RED_Write(1);
 249              		.loc 1 157 0
 250 00ce 0120     		mov	r0, #1
 251 00d0 FFF7FEFF 		bl	LED_RED_Write
 252              	.LVL27:
 158:.\main.c      ****                 Buzzer_Write(1);
 253              		.loc 1 158 0
 254 00d4 0120     		mov	r0, #1
 255 00d6 FFF7FEFF 		bl	Buzzer_Write
 256              	.LVL28:
 257              	.L5:
 159:.\main.c      ****             }
 160:.\main.c      **** 
 161:.\main.c      ****         }
 162:.\main.c      **** }
 258              		.loc 1 162 0
 259              		@ sp needed
 260 00da 10BD     		pop	{r4, pc}
 261              	.L15:
 262              		.align	2
 263              	.L14:
 264 00dc 00000000 		.word	.LANCHOR1
 265 00e0 00000000 		.word	ch
 266 00e4 00000000 		.word	id_arr
 267 00e8 08000000 		.word	.LC7
 268 00ec 14000000 		.word	.LC9
 269 00f0 1C000000 		.word	.LC11
 270 00f4 00000000 		.word	.LANCHOR0
 271              		.cfi_endproc
 272              	.LFE36:
 273              		.size	key_id, .-key_id
 274              		.section	.text.input_char,"ax",%progbits
 275              		.align	2
 276              		.global	input_char
 277              		.code	16
 278              		.thumb_func
 279              		.type	input_char, %function
 280              	input_char:
 281              	.LFB37:
 163:.\main.c      **** 
 164:.\main.c      **** void input_char(const char el)
 165:.\main.c      **** {    
 282              		.loc 1 165 0
 283              		.cfi_startproc
 284              	.LVL29:
 285 0000 10B5     		push	{r4, lr}
 286              		.cfi_def_cfa_offset 8
 287              		.cfi_offset 4, -8
 288              		.cfi_offset 14, -4
 289 0002 041C     		mov	r4, r0
 166:.\main.c      ****     write(el);
 290              		.loc 1 166 0
ARM GAS  C:\Users\744\AppData\Local\Temp\ccu3YEwP.s 			page 9


 291 0004 FFF7FEFF 		bl	write
 292              	.LVL30:
 167:.\main.c      ****     pass_arr[i++] = el;
 293              		.loc 1 167 0
 294 0008 034A     		ldr	r2, .L17
 295 000a 537B     		ldrb	r3, [r2, #13]
 296 000c 591C     		add	r1, r3, #1
 297 000e 5173     		strb	r1, [r2, #13]
 298 0010 024A     		ldr	r2, .L17+4
 299 0012 D454     		strb	r4, [r2, r3]
 168:.\main.c      **** }
 300              		.loc 1 168 0
 301              		@ sp needed
 302 0014 10BD     		pop	{r4, pc}
 303              	.L18:
 304 0016 C046     		.align	2
 305              	.L17:
 306 0018 00000000 		.word	.LANCHOR0
 307 001c 00000000 		.word	pass_arr
 308              		.cfi_endproc
 309              	.LFE37:
 310              		.size	input_char, .-input_char
 311              		.section	.text.discard,"ax",%progbits
 312              		.align	2
 313              		.global	discard
 314              		.code	16
 315              		.thumb_func
 316              		.type	discard, %function
 317              	discard:
 318              	.LFB38:
 169:.\main.c      **** 
 170:.\main.c      **** void discard(char a[])
 171:.\main.c      **** {
 319              		.loc 1 171 0
 320              		.cfi_startproc
 321              	.LVL31:
 322 0000 10B5     		push	{r4, lr}
 323              		.cfi_def_cfa_offset 8
 324              		.cfi_offset 4, -8
 325              		.cfi_offset 14, -4
 326 0002 041C     		mov	r4, r0
 172:.\main.c      ****     memset(a,'\0',strlen(a));
 327              		.loc 1 172 0
 328 0004 FFF7FEFF 		bl	strlen
 329              	.LVL32:
 330 0008 021C     		mov	r2, r0
 331 000a 201C     		mov	r0, r4
 332 000c 0021     		mov	r1, #0
 333 000e FFF7FEFF 		bl	memset
 334              	.LVL33:
 173:.\main.c      ****     i = 0;
 335              		.loc 1 173 0
 336 0012 0022     		mov	r2, #0
 337 0014 044B     		ldr	r3, .L20
 338 0016 5A73     		strb	r2, [r3, #13]
 174:.\main.c      ****     clear();
 339              		.loc 1 174 0
ARM GAS  C:\Users\744\AppData\Local\Temp\ccu3YEwP.s 			page 10


 340 0018 FFF7FEFF 		bl	clear
 341              	.LVL34:
 175:.\main.c      ****     setCursor(0,1);
 342              		.loc 1 175 0
 343 001c 0020     		mov	r0, #0
 344 001e 0121     		mov	r1, #1
 345 0020 FFF7FEFF 		bl	setCursor
 346              	.LVL35:
 176:.\main.c      **** }
 347              		.loc 1 176 0
 348              		@ sp needed
 349              	.LVL36:
 350 0024 10BD     		pop	{r4, pc}
 351              	.L21:
 352 0026 C046     		.align	2
 353              	.L20:
 354 0028 00000000 		.word	.LANCHOR0
 355              		.cfi_endproc
 356              	.LFE38:
 357              		.size	discard, .-discard
 358              		.section	.text.accept,"ax",%progbits
 359              		.align	2
 360              		.global	accept
 361              		.code	16
 362              		.thumb_func
 363              		.type	accept, %function
 364              	accept:
 365              	.LFB39:
 177:.\main.c      **** 
 178:.\main.c      **** void accept(char a[],const char b[])
 179:.\main.c      **** {
 366              		.loc 1 179 0
 367              		.cfi_startproc
 368              	.LVL37:
 369 0000 10B5     		push	{r4, lr}
 370              		.cfi_def_cfa_offset 8
 371              		.cfi_offset 4, -8
 372              		.cfi_offset 14, -4
 373 0002 041C     		mov	r4, r0
 180:.\main.c      ****     
 181:.\main.c      ****     if(strcmp(a, b) == 0)
 374              		.loc 1 181 0
 375 0004 FFF7FEFF 		bl	strcmp
 376              	.LVL38:
 377 0008 0028     		cmp	r0, #0
 378 000a 22D1     		bne	.L23
 182:.\main.c      ****     {
 183:.\main.c      ****         clear();
 379              		.loc 1 183 0
 380 000c FFF7FEFF 		bl	clear
 381              	.LVL39:
 184:.\main.c      ****         setCursor(1,0);
 382              		.loc 1 184 0
 383 0010 0120     		mov	r0, #1
 384 0012 0021     		mov	r1, #0
 385 0014 FFF7FEFF 		bl	setCursor
 386              	.LVL40:
ARM GAS  C:\Users\744\AppData\Local\Temp\ccu3YEwP.s 			page 11


 185:.\main.c      ****         if(security_active)
 387              		.loc 1 185 0
 388 0018 1A4B     		ldr	r3, .L26
 389 001a 1B78     		ldrb	r3, [r3]
 390 001c 002B     		cmp	r3, #0
 391 001e 0FD0     		beq	.L24
 186:.\main.c      ****         {
 187:.\main.c      ****             LCD_print("Alarm disabled");
 392              		.loc 1 187 0
 393 0020 1948     		ldr	r0, .L26+4
 394 0022 FFF7FEFF 		bl	LCD_print
 395              	.LVL41:
 188:.\main.c      ****             LED_GREEN_Write(0);
 396              		.loc 1 188 0
 397 0026 0020     		mov	r0, #0
 398 0028 FFF7FEFF 		bl	LED_GREEN_Write
 399              	.LVL42:
 189:.\main.c      ****             LED_RED_Write(1);
 400              		.loc 1 189 0
 401 002c 0120     		mov	r0, #1
 402 002e FFF7FEFF 		bl	LED_RED_Write
 403              	.LVL43:
 190:.\main.c      ****             security_active = false;
 404              		.loc 1 190 0
 405 0032 0022     		mov	r2, #0
 406 0034 134B     		ldr	r3, .L26
 407 0036 1A70     		strb	r2, [r3]
 191:.\main.c      ****             accepted = true;
 408              		.loc 1 191 0
 409 0038 0132     		add	r2, r2, #1
 410 003a 144B     		ldr	r3, .L26+8
 411 003c 9A73     		strb	r2, [r3, #14]
 412 003e 11E0     		b	.L25
 413              	.L24:
 192:.\main.c      ****         }
 193:.\main.c      ****         else if(!security_active)
 414              		.loc 1 193 0
 415 0040 002B     		cmp	r3, #0
 416 0042 0FD1     		bne	.L25
 194:.\main.c      ****         {
 195:.\main.c      ****             LCD_print("Alarm enabled");
 417              		.loc 1 195 0
 418 0044 1248     		ldr	r0, .L26+12
 419 0046 FFF7FEFF 		bl	LCD_print
 420              	.LVL44:
 196:.\main.c      ****             security_active = true;
 421              		.loc 1 196 0
 422 004a 0122     		mov	r2, #1
 423 004c 0D4B     		ldr	r3, .L26
 424 004e 1A70     		strb	r2, [r3]
 425 0050 08E0     		b	.L25
 426              	.L23:
 197:.\main.c      ****         }
 198:.\main.c      ****         
 199:.\main.c      ****     }
 200:.\main.c      ****     else 
 201:.\main.c      ****     {
ARM GAS  C:\Users\744\AppData\Local\Temp\ccu3YEwP.s 			page 12


 202:.\main.c      ****         clear();
 427              		.loc 1 202 0
 428 0052 FFF7FEFF 		bl	clear
 429              	.LVL45:
 203:.\main.c      ****         setCursor(1,0);
 430              		.loc 1 203 0
 431 0056 0120     		mov	r0, #1
 432 0058 0021     		mov	r1, #0
 433 005a FFF7FEFF 		bl	setCursor
 434              	.LVL46:
 204:.\main.c      ****         LCD_print("Wrong password");
 435              		.loc 1 204 0
 436 005e 0D48     		ldr	r0, .L26+16
 437 0060 FFF7FEFF 		bl	LCD_print
 438              	.LVL47:
 439              	.L25:
 205:.\main.c      ****     }
 206:.\main.c      ****     memset(a,'\0',strlen(a));
 440              		.loc 1 206 0
 441 0064 201C     		mov	r0, r4
 442 0066 FFF7FEFF 		bl	strlen
 443              	.LVL48:
 444 006a 021C     		mov	r2, r0
 445 006c 201C     		mov	r0, r4
 446 006e 0021     		mov	r1, #0
 447 0070 FFF7FEFF 		bl	memset
 448              	.LVL49:
 207:.\main.c      ****     i = 0;
 449              		.loc 1 207 0
 450 0074 0022     		mov	r2, #0
 451 0076 054B     		ldr	r3, .L26+8
 452 0078 5A73     		strb	r2, [r3, #13]
 208:.\main.c      ****     setCursor(0,1);
 453              		.loc 1 208 0
 454 007a 0020     		mov	r0, #0
 455 007c 0121     		mov	r1, #1
 456 007e FFF7FEFF 		bl	setCursor
 457              	.LVL50:
 209:.\main.c      **** }
 458              		.loc 1 209 0
 459              		@ sp needed
 460              	.LVL51:
 461 0082 10BD     		pop	{r4, pc}
 462              	.L27:
 463              		.align	2
 464              	.L26:
 465 0084 00000000 		.word	.LANCHOR1
 466 0088 28000000 		.word	.LC18
 467 008c 00000000 		.word	.LANCHOR0
 468 0090 38000000 		.word	.LC21
 469 0094 48000000 		.word	.LC23
 470              		.cfi_endproc
 471              	.LFE39:
 472              		.size	accept, .-accept
 473              		.section	.text.password,"ax",%progbits
 474              		.align	2
 475              		.global	password
ARM GAS  C:\Users\744\AppData\Local\Temp\ccu3YEwP.s 			page 13


 476              		.code	16
 477              		.thumb_func
 478              		.type	password, %function
 479              	password:
 480              	.LFB40:
 210:.\main.c      **** 
 211:.\main.c      **** void password()
 212:.\main.c      **** {
 481              		.loc 1 212 0
 482              		.cfi_startproc
 483 0000 10B5     		push	{r4, lr}
 484              		.cfi_def_cfa_offset 8
 485              		.cfi_offset 4, -8
 486              		.cfi_offset 14, -4
 213:.\main.c      ****     Key = Get_KBD_Char();		//Value recieved from Matrix
 487              		.loc 1 213 0
 488 0002 FFF7FEFF 		bl	Get_KBD_Char
 489              	.LVL52:
 490 0006 244B     		ldr	r3, .L44
 491 0008 1870     		strb	r0, [r3]
 214:.\main.c      ****         switch(Key)             //Recognition of pressed key
 492              		.loc 1 214 0
 493 000a 2338     		sub	r0, r0, #35
 494 000c C3B2     		uxtb	r3, r0
 495 000e 162B     		cmp	r3, #22
 496 0010 35D8     		bhi	.L29
 497 0012 9800     		lsl	r0, r3, #2
 498 0014 214B     		ldr	r3, .L44+4
 499 0016 1B58     		ldr	r3, [r3, r0]
 500 0018 9F46     		mov	pc, r3
 501              		.section	.rodata
 502              		.align	2
 503              	.L31:
 504 0000 26000000 		.word	.L30
 505 0004 7E000000 		.word	.L29
 506 0008 7E000000 		.word	.L29
 507 000c 7E000000 		.word	.L29
 508 0010 7E000000 		.word	.L29
 509 0014 7E000000 		.word	.L29
 510 0018 7E000000 		.word	.L29
 511 001c 1A000000 		.word	.L32
 512 0020 7E000000 		.word	.L29
 513 0024 7E000000 		.word	.L29
 514 0028 7E000000 		.word	.L29
 515 002c 7E000000 		.word	.L29
 516 0030 7E000000 		.word	.L29
 517 0034 76000000 		.word	.L33
 518 0038 2E000000 		.word	.L34
 519 003c 36000000 		.word	.L35
 520 0040 3E000000 		.word	.L36
 521 0044 46000000 		.word	.L37
 522 0048 4E000000 		.word	.L38
 523 004c 56000000 		.word	.L39
 524 0050 5E000000 		.word	.L40
 525 0054 66000000 		.word	.L41
 526 0058 6E000000 		.word	.L42
 527              		.section	.text.password
ARM GAS  C:\Users\744\AppData\Local\Temp\ccu3YEwP.s 			page 14


 528              	.L32:
 215:.\main.c      ****         {              
 216:.\main.c      ****             case '*':
 217:.\main.c      ****                 accept(pass_arr, ref_pass);
 529              		.loc 1 217 0
 530 001a 214B     		ldr	r3, .L44+8
 531 001c 9968     		ldr	r1, [r3, #8]
 532 001e 2148     		ldr	r0, .L44+12
 533 0020 FFF7FEFF 		bl	accept
 534              	.LVL53:
 218:.\main.c      ****                 break;
 535              		.loc 1 218 0
 536 0024 37E0     		b	.L28
 537              	.L30:
 219:.\main.c      ****             case '#':
 220:.\main.c      ****                 discard(pass_arr);
 538              		.loc 1 220 0
 539 0026 1F48     		ldr	r0, .L44+12
 540 0028 FFF7FEFF 		bl	discard
 541              	.LVL54:
 221:.\main.c      ****                 break;
 542              		.loc 1 221 0
 543 002c 33E0     		b	.L28
 544              	.L34:
 222:.\main.c      ****             case '1':
 223:.\main.c      ****                 input_char('1');
 545              		.loc 1 223 0
 546 002e 3120     		mov	r0, #49
 547 0030 FFF7FEFF 		bl	input_char
 548              	.LVL55:
 224:.\main.c      ****                 break;
 549              		.loc 1 224 0
 550 0034 2FE0     		b	.L28
 551              	.L35:
 225:.\main.c      ****             case '2':
 226:.\main.c      ****                 input_char('2');
 552              		.loc 1 226 0
 553 0036 3220     		mov	r0, #50
 554 0038 FFF7FEFF 		bl	input_char
 555              	.LVL56:
 227:.\main.c      ****                 break;
 556              		.loc 1 227 0
 557 003c 2BE0     		b	.L28
 558              	.L36:
 228:.\main.c      ****             case '3':
 229:.\main.c      ****                 input_char('3');
 559              		.loc 1 229 0
 560 003e 3320     		mov	r0, #51
 561 0040 FFF7FEFF 		bl	input_char
 562              	.LVL57:
 230:.\main.c      ****                 break;
 563              		.loc 1 230 0
 564 0044 27E0     		b	.L28
 565              	.L37:
 231:.\main.c      ****             case '4':
 232:.\main.c      ****                 input_char('4');
 566              		.loc 1 232 0
ARM GAS  C:\Users\744\AppData\Local\Temp\ccu3YEwP.s 			page 15


 567 0046 3420     		mov	r0, #52
 568 0048 FFF7FEFF 		bl	input_char
 569              	.LVL58:
 233:.\main.c      ****                 break;
 570              		.loc 1 233 0
 571 004c 23E0     		b	.L28
 572              	.L38:
 234:.\main.c      ****             case '5':
 235:.\main.c      ****                 input_char('5');
 573              		.loc 1 235 0
 574 004e 3520     		mov	r0, #53
 575 0050 FFF7FEFF 		bl	input_char
 576              	.LVL59:
 236:.\main.c      ****                 break;
 577              		.loc 1 236 0
 578 0054 1FE0     		b	.L28
 579              	.L39:
 237:.\main.c      ****             case '6':
 238:.\main.c      ****                 input_char('6');
 580              		.loc 1 238 0
 581 0056 3620     		mov	r0, #54
 582 0058 FFF7FEFF 		bl	input_char
 583              	.LVL60:
 239:.\main.c      ****                 break;
 584              		.loc 1 239 0
 585 005c 1BE0     		b	.L28
 586              	.L40:
 240:.\main.c      ****             case '7':
 241:.\main.c      ****                 input_char('7');
 587              		.loc 1 241 0
 588 005e 3720     		mov	r0, #55
 589 0060 FFF7FEFF 		bl	input_char
 590              	.LVL61:
 242:.\main.c      ****                 break;
 591              		.loc 1 242 0
 592 0064 17E0     		b	.L28
 593              	.L41:
 243:.\main.c      ****             case '8':
 244:.\main.c      ****                 input_char('8');
 594              		.loc 1 244 0
 595 0066 3820     		mov	r0, #56
 596 0068 FFF7FEFF 		bl	input_char
 597              	.LVL62:
 245:.\main.c      ****                 break;
 598              		.loc 1 245 0
 599 006c 13E0     		b	.L28
 600              	.L42:
 246:.\main.c      ****             case '9':
 247:.\main.c      ****                 input_char('9');
 601              		.loc 1 247 0
 602 006e 3920     		mov	r0, #57
 603 0070 FFF7FEFF 		bl	input_char
 604              	.LVL63:
 248:.\main.c      ****                 break;
 605              		.loc 1 248 0
 606 0074 0FE0     		b	.L28
 607              	.L33:
ARM GAS  C:\Users\744\AppData\Local\Temp\ccu3YEwP.s 			page 16


 249:.\main.c      ****             case '0':
 250:.\main.c      ****                 input_char('0');
 608              		.loc 1 250 0
 609 0076 3020     		mov	r0, #48
 610 0078 FFF7FEFF 		bl	input_char
 611              	.LVL64:
 251:.\main.c      ****                 break;
 612              		.loc 1 251 0
 613 007c 0BE0     		b	.L28
 614              	.L29:
 252:.\main.c      **** 
 253:.\main.c      ****             default:
 254:.\main.c      ****                 memset(pass_arr,'\0', strlen(pass_arr));
 615              		.loc 1 254 0
 616 007e 094C     		ldr	r4, .L44+12
 617 0080 201C     		mov	r0, r4
 618 0082 FFF7FEFF 		bl	strlen
 619              	.LVL65:
 620 0086 021C     		mov	r2, r0
 621 0088 201C     		mov	r0, r4
 622 008a 0021     		mov	r1, #0
 623 008c FFF7FEFF 		bl	memset
 624              	.LVL66:
 255:.\main.c      ****                 write(' ');
 625              		.loc 1 255 0
 626 0090 2020     		mov	r0, #32
 627 0092 FFF7FEFF 		bl	write
 628              	.LVL67:
 629              	.L28:
 256:.\main.c      ****                 break;
 257:.\main.c      ****         }
 258:.\main.c      **** }
 630              		.loc 1 258 0
 631              		@ sp needed
 632 0096 10BD     		pop	{r4, pc}
 633              	.L45:
 634              		.align	2
 635              	.L44:
 636 0098 00000000 		.word	Key
 637 009c 00000000 		.word	.L31
 638 00a0 00000000 		.word	.LANCHOR1
 639 00a4 00000000 		.word	pass_arr
 640              		.cfi_endproc
 641              	.LFE40:
 642              		.size	password, .-password
 643              		.section	.text.motion_detection,"ax",%progbits
 644              		.align	2
 645              		.global	motion_detection
 646              		.code	16
 647              		.thumb_func
 648              		.type	motion_detection, %function
 649              	motion_detection:
 650              	.LFB41:
 259:.\main.c      **** 
 260:.\main.c      **** void motion_detection()
 261:.\main.c      **** {
 651              		.loc 1 261 0
ARM GAS  C:\Users\744\AppData\Local\Temp\ccu3YEwP.s 			page 17


 652              		.cfi_startproc
 653 0000 08B5     		push	{r3, lr}
 654              		.cfi_def_cfa_offset 8
 655              		.cfi_offset 3, -8
 656              		.cfi_offset 14, -4
 262:.\main.c      ****     if(security_active)
 657              		.loc 1 262 0
 658 0002 3D4B     		ldr	r3, .L52
 659 0004 1B78     		ldrb	r3, [r3]
 660 0006 002B     		cmp	r3, #0
 661 0008 41D0     		beq	.L47
 263:.\main.c      ****     {
 264:.\main.c      ****         if(PIR_1_Read()==1)
 662              		.loc 1 264 0
 663 000a FFF7FEFF 		bl	PIR_1_Read
 664              	.LVL68:
 665 000e 0128     		cmp	r0, #1
 666 0010 1CD1     		bne	.L48
 265:.\main.c      ****         {
 266:.\main.c      ****             clear();
 667              		.loc 1 266 0
 668 0012 FFF7FEFF 		bl	clear
 669              	.LVL69:
 267:.\main.c      ****             setCursor(0,0);
 670              		.loc 1 267 0
 671 0016 0020     		mov	r0, #0
 672 0018 0021     		mov	r1, #0
 673 001a FFF7FEFF 		bl	setCursor
 674              	.LVL70:
 268:.\main.c      ****             motion_detected = true;
 675              		.loc 1 268 0
 676 001e 0122     		mov	r2, #1
 677 0020 364B     		ldr	r3, .L52+4
 678 0022 1A70     		strb	r2, [r3]
 269:.\main.c      ****             LCD_print("Guestroom ALARM!");
 679              		.loc 1 269 0
 680 0024 3648     		ldr	r0, .L52+8
 681 0026 FFF7FEFF 		bl	LCD_print
 682              	.LVL71:
 270:.\main.c      ****             LED_GREEN_Write(1);
 683              		.loc 1 270 0
 684 002a 0120     		mov	r0, #1
 685 002c FFF7FEFF 		bl	LED_GREEN_Write
 686              	.LVL72:
 271:.\main.c      ****             LED_RED_Write(0);
 687              		.loc 1 271 0
 688 0030 0020     		mov	r0, #0
 689 0032 FFF7FEFF 		bl	LED_RED_Write
 690              	.LVL73:
 272:.\main.c      ****             Buzzer_Write(!Buzzer_Read());
 691              		.loc 1 272 0
 692 0036 FFF7FEFF 		bl	Buzzer_Read
 693              	.LVL74:
 694 003a 4342     		neg	r3, r0
 695 003c 5841     		adc	r0, r0, r3
 696 003e C0B2     		uxtb	r0, r0
 697 0040 FFF7FEFF 		bl	Buzzer_Write
ARM GAS  C:\Users\744\AppData\Local\Temp\ccu3YEwP.s 			page 18


 698              	.LVL75:
 273:.\main.c      ****             CyDelay(200);
 699              		.loc 1 273 0
 700 0044 C820     		mov	r0, #200
 701 0046 FFF7FEFF 		bl	CyDelay
 702              	.LVL76:
 703 004a 54E0     		b	.L46
 704              	.L48:
 274:.\main.c      ****         }
 275:.\main.c      ****         else if(PIR_2_Read()==1)
 705              		.loc 1 275 0
 706 004c FFF7FEFF 		bl	PIR_2_Read
 707              	.LVL77:
 708 0050 0128     		cmp	r0, #1
 709 0052 50D1     		bne	.L46
 276:.\main.c      ****         {
 277:.\main.c      ****             clear();
 710              		.loc 1 277 0
 711 0054 FFF7FEFF 		bl	clear
 712              	.LVL78:
 278:.\main.c      ****             setCursor(0,0);
 713              		.loc 1 278 0
 714 0058 0020     		mov	r0, #0
 715 005a 0021     		mov	r1, #0
 716 005c FFF7FEFF 		bl	setCursor
 717              	.LVL79:
 279:.\main.c      ****             motion_detected = true;
 718              		.loc 1 279 0
 719 0060 0122     		mov	r2, #1
 720 0062 264B     		ldr	r3, .L52+4
 721 0064 1A70     		strb	r2, [r3]
 280:.\main.c      ****             LCD_print("Bedroom ALARM!");
 722              		.loc 1 280 0
 723 0066 2748     		ldr	r0, .L52+12
 724 0068 FFF7FEFF 		bl	LCD_print
 725              	.LVL80:
 281:.\main.c      ****             LED_GREEN_Write(1);
 726              		.loc 1 281 0
 727 006c 0120     		mov	r0, #1
 728 006e FFF7FEFF 		bl	LED_GREEN_Write
 729              	.LVL81:
 282:.\main.c      ****             LED_RED_Write(0);
 730              		.loc 1 282 0
 731 0072 0020     		mov	r0, #0
 732 0074 FFF7FEFF 		bl	LED_RED_Write
 733              	.LVL82:
 283:.\main.c      ****             Buzzer_Write(!Buzzer_Read());
 734              		.loc 1 283 0
 735 0078 FFF7FEFF 		bl	Buzzer_Read
 736              	.LVL83:
 737 007c 4342     		neg	r3, r0
 738 007e 5841     		adc	r0, r0, r3
 739 0080 C0B2     		uxtb	r0, r0
 740 0082 FFF7FEFF 		bl	Buzzer_Write
 741              	.LVL84:
 284:.\main.c      ****             CyDelay(200);
 742              		.loc 1 284 0
ARM GAS  C:\Users\744\AppData\Local\Temp\ccu3YEwP.s 			page 19


 743 0086 C820     		mov	r0, #200
 744 0088 FFF7FEFF 		bl	CyDelay
 745              	.LVL85:
 746 008c 33E0     		b	.L46
 747              	.L47:
 285:.\main.c      ****         }
 286:.\main.c      **** //        else if(PIR_3_Read()==1)
 287:.\main.c      **** //        {
 288:.\main.c      **** //            clear();
 289:.\main.c      **** //            setCursor(0,0);
 290:.\main.c      **** //            motion_detected = true;
 291:.\main.c      **** //            LCD_print("Hall ALARM!");
 292:.\main.c      **** ////            LED_GREEN_Write(1);
 293:.\main.c      **** ////            LED_RED_Write(0);
 294:.\main.c      **** ////            Buzzer_Write(!Buzzer_Read());
 295:.\main.c      **** ////            CyDelay(200);
 296:.\main.c      **** //        }
 297:.\main.c      **** //        else if(PIR_4_Read()==1)
 298:.\main.c      **** //        {
 299:.\main.c      **** //            clear();
 300:.\main.c      **** //            setCursor(0,0);
 301:.\main.c      **** //            motion_detected = true;
 302:.\main.c      **** //            LCD_print("Kitchen ALARM!");
 303:.\main.c      **** ////            LED_GREEN_Write(1);
 304:.\main.c      **** ////            LED_RED_Write(0);
 305:.\main.c      **** ////            Buzzer_Write(!Buzzer_Read());
 306:.\main.c      **** ////            CyDelay(200);
 307:.\main.c      **** //        }
 308:.\main.c      ****     }
 309:.\main.c      ****     else if(security_active && ((PIR_1_Read()==0) || (PIR_2_Read()==0) || (PIR_3_Read()==0) || (PIR
 748              		.loc 1 309 0
 749 008e 002B     		cmp	r3, #0
 750 0090 28D0     		beq	.L50
 751              		.loc 1 309 0 is_stmt 0 discriminator 1
 752 0092 FFF7FEFF 		bl	PIR_1_Read
 753              	.LVL86:
 754 0096 0028     		cmp	r0, #0
 755 0098 0BD0     		beq	.L51
 756              		.loc 1 309 0 discriminator 2
 757 009a FFF7FEFF 		bl	PIR_2_Read
 758              	.LVL87:
 759 009e 0028     		cmp	r0, #0
 760 00a0 07D0     		beq	.L51
 761              		.loc 1 309 0 discriminator 3
 762 00a2 FFF7FEFF 		bl	PIR_3_Read
 763              	.LVL88:
 764 00a6 0028     		cmp	r0, #0
 765 00a8 03D0     		beq	.L51
 766              		.loc 1 309 0 discriminator 4
 767 00aa FFF7FEFF 		bl	PIR_4_Read
 768              	.LVL89:
 769 00ae 0028     		cmp	r0, #0
 770 00b0 18D1     		bne	.L50
 771              	.L51:
 310:.\main.c      ****     {
 311:.\main.c      ****         clear();
 772              		.loc 1 311 0 is_stmt 1
ARM GAS  C:\Users\744\AppData\Local\Temp\ccu3YEwP.s 			page 20


 773 00b2 FFF7FEFF 		bl	clear
 774              	.LVL90:
 312:.\main.c      ****         setCursor(1,0);
 775              		.loc 1 312 0
 776 00b6 0120     		mov	r0, #1
 777 00b8 0021     		mov	r1, #0
 778 00ba FFF7FEFF 		bl	setCursor
 779              	.LVL91:
 313:.\main.c      ****         motion_detected = false;
 780              		.loc 1 313 0
 781 00be 0022     		mov	r2, #0
 782 00c0 0E4B     		ldr	r3, .L52+4
 783 00c2 1A70     		strb	r2, [r3]
 314:.\main.c      ****         LCD_print("NO MOTION");
 784              		.loc 1 314 0
 785 00c4 1048     		ldr	r0, .L52+16
 786 00c6 FFF7FEFF 		bl	LCD_print
 787              	.LVL92:
 315:.\main.c      ****         LED_GREEN_Write(0);
 788              		.loc 1 315 0
 789 00ca 0020     		mov	r0, #0
 790 00cc FFF7FEFF 		bl	LED_GREEN_Write
 791              	.LVL93:
 316:.\main.c      ****         LED_RED_Write(1);
 792              		.loc 1 316 0
 793 00d0 0120     		mov	r0, #1
 794 00d2 FFF7FEFF 		bl	LED_RED_Write
 795              	.LVL94:
 317:.\main.c      ****         Buzzer_Write(1);
 796              		.loc 1 317 0
 797 00d6 0120     		mov	r0, #1
 798 00d8 FFF7FEFF 		bl	Buzzer_Write
 799              	.LVL95:
 318:.\main.c      ****         CyDelay(200);
 800              		.loc 1 318 0
 801 00dc C820     		mov	r0, #200
 802 00de FFF7FEFF 		bl	CyDelay
 803              	.LVL96:
 804 00e2 08E0     		b	.L46
 805              	.L50:
 319:.\main.c      ****     }
 320:.\main.c      ****     else 
 321:.\main.c      ****     {   
 322:.\main.c      ****         motion_detected = false;
 806              		.loc 1 322 0
 807 00e4 0022     		mov	r2, #0
 808 00e6 054B     		ldr	r3, .L52+4
 809 00e8 1A70     		strb	r2, [r3]
 323:.\main.c      ****         LED_GREEN_Write(0);
 810              		.loc 1 323 0
 811 00ea 0020     		mov	r0, #0
 812 00ec FFF7FEFF 		bl	LED_GREEN_Write
 813              	.LVL97:
 324:.\main.c      ****         LED_RED_Write(1);
 814              		.loc 1 324 0
 815 00f0 0120     		mov	r0, #1
 816 00f2 FFF7FEFF 		bl	LED_RED_Write
ARM GAS  C:\Users\744\AppData\Local\Temp\ccu3YEwP.s 			page 21


 817              	.LVL98:
 818              	.L46:
 325:.\main.c      ****     }
 326:.\main.c      ****     
 327:.\main.c      **** }
 819              		.loc 1 327 0
 820              		@ sp needed
 821 00f6 08BD     		pop	{r3, pc}
 822              	.L53:
 823              		.align	2
 824              	.L52:
 825 00f8 00000000 		.word	.LANCHOR1
 826 00fc 00000000 		.word	.LANCHOR0
 827 0100 58000000 		.word	.LC31
 828 0104 6C000000 		.word	.LC33
 829 0108 7C000000 		.word	.LC35
 830              		.cfi_endproc
 831              	.LFE41:
 832              		.size	motion_detection, .-motion_detection
 833              		.section	.text.main,"ax",%progbits
 834              		.align	2
 835              		.global	main
 836              		.code	16
 837              		.thumb_func
 838              		.type	main, %function
 839              	main:
 840              	.LFB34:
  52:.\main.c      ****     CyGlobalIntEnable; /* Enable global interrupts. */
 841              		.loc 1 52 0
 842              		.cfi_startproc
 843 0000 08B5     		push	{r3, lr}
 844              		.cfi_def_cfa_offset 8
 845              		.cfi_offset 3, -8
 846              		.cfi_offset 14, -4
  53:.\main.c      ****     
 847              		.loc 1 53 0
 848              	@ 53 ".\main.c" 1
 849 0002 62B6     		CPSIE   i
 850              	@ 0 "" 2
  55:.\main.c      ****     LiquidCrystal_I2C_init(Addr,16,2,0);
 851              		.loc 1 55 0
 852              		.code	16
 853 0004 FFF7FEFF 		bl	Keyboard_Init
 854              	.LVL99:
  56:.\main.c      ****     begin();
 855              		.loc 1 56 0
 856 0008 1E4B     		ldr	r3, .L57
 857 000a 187B     		ldrb	r0, [r3, #12]
 858 000c 1021     		mov	r1, #16
 859 000e 0222     		mov	r2, #2
 860 0010 0023     		mov	r3, #0
 861 0012 FFF7FEFF 		bl	LiquidCrystal_I2C_init
 862              	.LVL100:
  57:.\main.c      ****     Alarm_Timer_Start();
 863              		.loc 1 57 0
 864 0016 FFF7FEFF 		bl	begin
 865              	.LVL101:
ARM GAS  C:\Users\744\AppData\Local\Temp\ccu3YEwP.s 			page 22


  58:.\main.c      ****     I2C_Start();
 866              		.loc 1 58 0
 867 001a FFF7FEFF 		bl	Alarm_Timer_Start
 868              	.LVL102:
  59:.\main.c      ****     UART_Start();
 869              		.loc 1 59 0
 870 001e FFF7FEFF 		bl	I2C_Start
 871              	.LVL103:
  60:.\main.c      ****     Alarm_Int_StartEx(MY_ISR);
 872              		.loc 1 60 0
 873 0022 FFF7FEFF 		bl	UART_Start
 874              	.LVL104:
  61:.\main.c      ****     
 875              		.loc 1 61 0
 876 0026 1848     		ldr	r0, .L57+4
 877 0028 FFF7FEFF 		bl	Alarm_Int_StartEx
 878              	.LVL105:
  64:.\main.c      ****     setCursor(0,1);
 879              		.loc 1 64 0
 880 002c FFF7FEFF 		bl	clear
 881              	.LVL106:
  65:.\main.c      ****     
 882              		.loc 1 65 0
 883 0030 0020     		mov	r0, #0
 884 0032 0121     		mov	r1, #1
 885 0034 FFF7FEFF 		bl	setCursor
 886              	.LVL107:
  67:.\main.c      ****     LED_RED_Write(1);
 887              		.loc 1 67 0
 888 0038 0120     		mov	r0, #1
 889 003a FFF7FEFF 		bl	LED_GREEN_Write
 890              	.LVL108:
  68:.\main.c      ****     Buzzer_Write(1);
 891              		.loc 1 68 0
 892 003e 0120     		mov	r0, #1
 893 0040 FFF7FEFF 		bl	LED_RED_Write
 894              	.LVL109:
  69:.\main.c      **** 
 895              		.loc 1 69 0
 896 0044 0120     		mov	r0, #1
 897 0046 FFF7FEFF 		bl	Buzzer_Write
 898              	.LVL110:
 899              	.L55:
  73:.\main.c      ****         if(security_active && motion_detected)
 900              		.loc 1 73 0
 901 004a FFF7FEFF 		bl	motion_detection
 902              	.LVL111:
  74:.\main.c      ****         {
 903              		.loc 1 74 0
 904 004e 0D4B     		ldr	r3, .L57
 905 0050 1B78     		ldrb	r3, [r3]
 906 0052 002B     		cmp	r3, #0
 907 0054 F9D0     		beq	.L55
  74:.\main.c      ****         {
 908              		.loc 1 74 0 is_stmt 0 discriminator 1
 909 0056 0D4B     		ldr	r3, .L57+8
 910 0058 1B78     		ldrb	r3, [r3]
ARM GAS  C:\Users\744\AppData\Local\Temp\ccu3YEwP.s 			page 23


 911 005a 002B     		cmp	r3, #0
 912 005c F5D0     		beq	.L55
  76:.\main.c      ****             if(!box_closed)
 913              		.loc 1 76 0 is_stmt 1
 914 005e FFF7FEFF 		bl	key_id
 915              	.LVL112:
  77:.\main.c      ****             {
 916              		.loc 1 77 0
 917 0062 084B     		ldr	r3, .L57
 918 0064 5B78     		ldrb	r3, [r3, #1]
 919 0066 002B     		cmp	r3, #0
 920 0068 EFD1     		bne	.L55
  79:.\main.c      ****                 if(accepted == true)
 921              		.loc 1 79 0
 922 006a FFF7FEFF 		bl	password
 923              	.LVL113:
  80:.\main.c      ****                 {
 924              		.loc 1 80 0
 925 006e 074B     		ldr	r3, .L57+8
 926 0070 9B7B     		ldrb	r3, [r3, #14]
 927 0072 002B     		cmp	r3, #0
 928 0074 E9D0     		beq	.L55
  82:.\main.c      ****                     motion_detected = false;
 929              		.loc 1 82 0
 930 0076 0023     		mov	r3, #0
 931 0078 024A     		ldr	r2, .L57
 932 007a 1370     		strb	r3, [r2]
  83:.\main.c      ****                 }
 933              		.loc 1 83 0
 934 007c 034A     		ldr	r2, .L57+8
 935 007e 1370     		strb	r3, [r2]
 936 0080 E3E7     		b	.L55
 937              	.L58:
 938 0082 C046     		.align	2
 939              	.L57:
 940 0084 00000000 		.word	.LANCHOR1
 941 0088 00000000 		.word	MY_ISR
 942 008c 00000000 		.word	.LANCHOR0
 943              		.cfi_endproc
 944              	.LFE34:
 945              		.size	main, .-main
 946              		.global	compared
 947              		.global	accepted
 948              		.global	keys_locked
 949              		.global	box_closed
 950              		.global	motion_detected
 951              		.global	security_active
 952              		.global	j
 953              		.global	ref_id
 954              		.comm	id_arr,14,4
 955              		.global	i
 956              		.global	ref_pass
 957              		.comm	pass_arr,18,4
 958              		.global	a_count
 959              		.comm	ch,4,4
 960              		.comm	Key,1,1
 961              		.global	Addr
ARM GAS  C:\Users\744\AppData\Local\Temp\ccu3YEwP.s 			page 24


 962              		.data
 963              		.align	2
 964              		.set	.LANCHOR1,. + 0
 965              		.type	security_active, %object
 966              		.size	security_active, 1
 967              	security_active:
 968 0000 01       		.byte	1
 969              		.type	box_closed, %object
 970              		.size	box_closed, 1
 971              	box_closed:
 972 0001 01       		.byte	1
 973 0002 0000     		.space	2
 974              		.type	ref_id, %object
 975              		.size	ref_id, 4
 976              	ref_id:
 977 0004 88000000 		.word	.LC40
 978              		.type	ref_pass, %object
 979              		.size	ref_pass, 4
 980              	ref_pass:
 981 0008 98000000 		.word	.LC41
 982              		.type	Addr, %object
 983              		.size	Addr, 4
 984              	Addr:
 985 000c 27000000 		.word	39
 986              		.section	.rodata.str1.4,"aMS",%progbits,1
 987              		.align	2
 988              	.LC2:
 989 0000 414C4152 		.ascii	"ALARM!\000"
 989      4D2100
 990 0007 00       		.space	1
 991              	.LC7:
 992 0008 426F7820 		.ascii	"Box opened\000"
 992      6F70656E 
 992      656400
 993 0013 00       		.space	1
 994              	.LC9:
 995 0014 49443A20 		.ascii	"ID: \000"
 995      00
 996 0019 000000   		.space	3
 997              	.LC11:
 998 001c 57726F6E 		.ascii	"Wrong key\000"
 998      67206B65 
 998      7900
 999 0026 0000     		.space	2
 1000              	.LC18:
 1001 0028 416C6172 		.ascii	"Alarm disabled\000"
 1001      6D206469 
 1001      7361626C 
 1001      656400
 1002 0037 00       		.space	1
 1003              	.LC21:
 1004 0038 416C6172 		.ascii	"Alarm enabled\000"
 1004      6D20656E 
 1004      61626C65 
 1004      6400
 1005 0046 0000     		.space	2
 1006              	.LC23:
ARM GAS  C:\Users\744\AppData\Local\Temp\ccu3YEwP.s 			page 25


 1007 0048 57726F6E 		.ascii	"Wrong password\000"
 1007      67207061 
 1007      7373776F 
 1007      726400
 1008 0057 00       		.space	1
 1009              	.LC31:
 1010 0058 47756573 		.ascii	"Guestroom ALARM!\000"
 1010      74726F6F 
 1010      6D20414C 
 1010      41524D21 
 1010      00
 1011 0069 000000   		.space	3
 1012              	.LC33:
 1013 006c 42656472 		.ascii	"Bedroom ALARM!\000"
 1013      6F6F6D20 
 1013      414C4152 
 1013      4D2100
 1014 007b 00       		.space	1
 1015              	.LC35:
 1016 007c 4E4F204D 		.ascii	"NO MOTION\000"
 1016      4F54494F 
 1016      4E00
 1017 0086 0000     		.space	2
 1018              	.LC40:
 1019 0088 30393030 		.ascii	"09008B316BD8\000"
 1019      38423331 
 1019      36424438 
 1019      00
 1020 0095 000000   		.space	3
 1021              	.LC41:
 1022 0098 31313131 		.ascii	"1111\000"
 1022      00
 1023 009d 000000   		.bss
 1024              		.align	2
 1025              		.set	.LANCHOR0,. + 0
 1026              		.type	motion_detected, %object
 1027              		.size	motion_detected, 1
 1028              	motion_detected:
 1029 0000 00       		.space	1
 1030 0001 000000   		.space	3
 1031              		.type	a_count, %object
 1032              		.size	a_count, 4
 1033              	a_count:
 1034 0004 00000000 		.space	4
 1035              		.type	j, %object
 1036              		.size	j, 4
 1037              	j:
 1038 0008 00000000 		.space	4
 1039              		.type	compared, %object
 1040              		.size	compared, 1
 1041              	compared:
 1042 000c 00       		.space	1
 1043              		.type	i, %object
 1044              		.size	i, 1
 1045              	i:
 1046 000d 00       		.space	1
 1047              		.type	accepted, %object
ARM GAS  C:\Users\744\AppData\Local\Temp\ccu3YEwP.s 			page 26


 1048              		.size	accepted, 1
 1049              	accepted:
 1050 000e 00       		.space	1
 1051              		.type	keys_locked, %object
 1052              		.size	keys_locked, 1
 1053              	keys_locked:
 1054 000f 00       		.space	1
 1055              		.text
 1056              	.Letext0:
 1057              		.file 2 "c:\\program files (x86)\\cypress\\psoc creator\\3.3\\psoc creator\\import\\gnu\\arm\\4.9.
 1058              		.file 3 "c:\\program files (x86)\\cypress\\psoc creator\\3.3\\psoc creator\\import\\gnu\\arm\\4.9.
 1059              		.file 4 "Generated_Source\\PSoC4/cytypes.h"
 1060              		.file 5 "c:\\program files (x86)\\cypress\\psoc creator\\3.3\\psoc creator\\import\\gnu\\arm\\4.9.
 1061              		.file 6 "c:\\program files (x86)\\cypress\\psoc creator\\3.3\\psoc creator\\import\\gnu\\arm\\4.9.
 1062              		.file 7 "Generated_Source\\PSoC4/LED_GREEN.h"
 1063              		.file 8 "Generated_Source\\PSoC4/LED_RED.h"
 1064              		.file 9 ".\\LiquidCrystal_I2C.h"
 1065              		.file 10 "Generated_Source\\PSoC4/Buzzer.h"
 1066              		.file 11 "c:\\program files (x86)\\cypress\\psoc creator\\3.3\\psoc creator\\import\\gnu\\arm\\4.9
 1067              		.file 12 "Generated_Source\\PSoC4/UART_SPI_UART.h"
 1068              		.file 13 "./Keyboard.h"
 1069              		.file 14 "Generated_Source\\PSoC4/PIR_1.h"
 1070              		.file 15 "Generated_Source\\PSoC4/CyLib.h"
 1071              		.file 16 "Generated_Source\\PSoC4/PIR_2.h"
 1072              		.file 17 "Generated_Source\\PSoC4/PIR_3.h"
 1073              		.file 18 "Generated_Source\\PSoC4/PIR_4.h"
 1074              		.file 19 "Generated_Source\\PSoC4/Alarm_Timer.h"
 1075              		.file 20 "Generated_Source\\PSoC4/I2C.h"
 1076              		.file 21 "Generated_Source\\PSoC4/UART.h"
 1077              		.file 22 "Generated_Source\\PSoC4/Alarm_Int.h"