ARM GAS  C:\Users\744\AppData\Local\Temp\ccqs8niK.s 			page 1


   1              		.cpu cortex-m0
   2              		.fpu softvfp
   3              		.eabi_attribute 20, 1
   4              		.eabi_attribute 21, 1
   5              		.eabi_attribute 23, 3
   6              		.eabi_attribute 24, 1
   7              		.eabi_attribute 25, 1
   8              		.eabi_attribute 26, 1
   9              		.eabi_attribute 30, 1
  10              		.eabi_attribute 34, 0
  11              		.eabi_attribute 18, 4
  12              		.code	16
  13              		.file	"main.c"
  14              		.text
  15              	.Ltext0:
  16              		.cfi_sections	.debug_frame
  17              		.section	.text.ISR_SW,"ax",%progbits
  18              		.align	2
  19              		.global	ISR_SW
  20              		.code	16
  21              		.thumb_func
  22              		.type	ISR_SW, %function
  23              	ISR_SW:
  24              	.LFB34:
  25              		.file 1 ".\\main.c"
   1:.\main.c      **** #include <project.h>
   2:.\main.c      **** 
   3:.\main.c      **** #define LED_ON 0
   4:.\main.c      **** #define LED_OFF 1
   5:.\main.c      **** 
   6:.\main.c      **** uint32 red_count = 0;
   7:.\main.c      **** uint32 ms_count = 0;
   8:.\main.c      **** 
   9:.\main.c      **** void enable_green(uint32 state);
  10:.\main.c      **** void enable_red(uint32 state);
  11:.\main.c      **** 
  12:.\main.c      **** int is_green_enabled = 1;
  13:.\main.c      **** int is_green_disabled = 0;
  14:.\main.c      **** 
  15:.\main.c      **** 
  16:.\main.c      **** 
  17:.\main.c      **** 
  18:.\main.c      **** CY_ISR(MY_ISR) 
  19:.\main.c      **** {
  20:.\main.c      ****     ms_count++;
  21:.\main.c      ****     if(ms_count == 1000)
  22:.\main.c      ****     {
  23:.\main.c      ****         if(is_green_enabled)
  24:.\main.c      ****         {
  25:.\main.c      ****             red_count++;
  26:.\main.c      ****             if(red_count == 2 ) 
  27:.\main.c      ****             {
  28:.\main.c      ****                 enable_green(0);   
  29:.\main.c      ****                 enable_red(1);
  30:.\main.c      ****             }
  31:.\main.c      ****         }
  32:.\main.c      ****         else
ARM GAS  C:\Users\744\AppData\Local\Temp\ccqs8niK.s 			page 2


  33:.\main.c      ****         {
  34:.\main.c      ****             red_count++;
  35:.\main.c      ****             if(red_count == 5 ) 
  36:.\main.c      ****             {
  37:.\main.c      ****                 enable_green(1);   
  38:.\main.c      ****                 enable_red(0);
  39:.\main.c      ****             }
  40:.\main.c      ****         }
  41:.\main.c      ****         ms_count = 0;
  42:.\main.c      ****     }
  43:.\main.c      **** 
  44:.\main.c      **** }
  45:.\main.c      **** CY_ISR(ISR_SW)
  46:.\main.c      **** {       
  26              		.loc 1 46 0
  27              		.cfi_startproc
  28 0000 08B5     		push	{r3, lr}
  29              		.cfi_def_cfa_offset 8
  30              		.cfi_offset 3, -8
  31              		.cfi_offset 14, -4
  47:.\main.c      ****         Green_LED_Write(LED_ON);
  32              		.loc 1 47 0
  33 0002 0020     		mov	r0, #0
  34 0004 FFF7FEFF 		bl	Green_LED_Write
  35              	.LVL0:
  48:.\main.c      ****         Red_LED_Write(LED_OFF);
  36              		.loc 1 48 0
  37 0008 0120     		mov	r0, #1
  38 000a FFF7FEFF 		bl	Red_LED_Write
  39              	.LVL1:
  49:.\main.c      ****         isr_1_StartEx(MY_ISR); 
  40              		.loc 1 49 0
  41 000e 0448     		ldr	r0, .L2
  42 0010 FFF7FEFF 		bl	isr_1_StartEx
  43              	.LVL2:
  50:.\main.c      ****         Timer_Green_Start();
  44              		.loc 1 50 0
  45 0014 FFF7FEFF 		bl	Timer_Green_Start
  46              	.LVL3:
  51:.\main.c      ****         Pin_SW_ClearInterrupt();
  47              		.loc 1 51 0
  48 0018 FFF7FEFF 		bl	Pin_SW_ClearInterrupt
  49              	.LVL4:
  52:.\main.c      **** }
  50              		.loc 1 52 0
  51              		@ sp needed
  52 001c 08BD     		pop	{r3, pc}
  53              	.L3:
  54 001e C046     		.align	2
  55              	.L2:
  56 0020 00000000 		.word	MY_ISR
  57              		.cfi_endproc
  58              	.LFE34:
  59              		.size	ISR_SW, .-ISR_SW
  60              		.section	.text.main,"ax",%progbits
  61              		.align	2
  62              		.global	main
ARM GAS  C:\Users\744\AppData\Local\Temp\ccqs8niK.s 			page 3


  63              		.code	16
  64              		.thumb_func
  65              		.type	main, %function
  66              	main:
  67              	.LFB35:
  53:.\main.c      **** 
  54:.\main.c      **** int main()
  55:.\main.c      **** {
  68              		.loc 1 55 0
  69              		.cfi_startproc
  70 0000 08B5     		push	{r3, lr}
  71              		.cfi_def_cfa_offset 8
  72              		.cfi_offset 3, -8
  73              		.cfi_offset 14, -4
  56:.\main.c      ****     SW_Int_StartEx(ISR_SW);    
  74              		.loc 1 56 0
  75 0002 0248     		ldr	r0, .L6
  76 0004 FFF7FEFF 		bl	SW_Int_StartEx
  77              	.LVL5:
  57:.\main.c      ****     CyGlobalIntEnable; 
  78              		.loc 1 57 0
  79              	@ 57 ".\main.c" 1
  80 0008 62B6     		CPSIE   i
  81              	@ 0 "" 2
  82              		.code	16
  83              	.L5:
  58:.\main.c      ****      
  59:.\main.c      ****     for(;;);
  84              		.loc 1 59 0 discriminator 1
  85 000a FEE7     		b	.L5
  86              	.L7:
  87              		.align	2
  88              	.L6:
  89 000c 00000000 		.word	ISR_SW
  90              		.cfi_endproc
  91              	.LFE35:
  92              		.size	main, .-main
  93              		.section	.text.enable_red,"ax",%progbits
  94              		.align	2
  95              		.global	enable_red
  96              		.code	16
  97              		.thumb_func
  98              		.type	enable_red, %function
  99              	enable_red:
 100              	.LFB36:
  60:.\main.c      **** }
  61:.\main.c      ****  
  62:.\main.c      **** void enable_red(uint32 state)
  63:.\main.c      **** {
 101              		.loc 1 63 0
 102              		.cfi_startproc
 103              	.LVL6:
 104 0000 08B5     		push	{r3, lr}
 105              		.cfi_def_cfa_offset 8
 106              		.cfi_offset 3, -8
 107              		.cfi_offset 14, -4
  64:.\main.c      ****     red_count = 0;
ARM GAS  C:\Users\744\AppData\Local\Temp\ccqs8niK.s 			page 4


 108              		.loc 1 64 0
 109 0002 0022     		mov	r2, #0
 110 0004 034B     		ldr	r3, .L9
 111 0006 1A60     		str	r2, [r3]
  65:.\main.c      ****     Red_LED_Write(state ? LED_ON : LED_OFF);        
 112              		.loc 1 65 0
 113 0008 4342     		neg	r3, r0
 114 000a 5841     		adc	r0, r0, r3
 115              	.LVL7:
 116 000c C0B2     		uxtb	r0, r0
 117 000e FFF7FEFF 		bl	Red_LED_Write
 118              	.LVL8:
  66:.\main.c      **** }
 119              		.loc 1 66 0
 120              		@ sp needed
 121 0012 08BD     		pop	{r3, pc}
 122              	.L10:
 123              		.align	2
 124              	.L9:
 125 0014 00000000 		.word	.LANCHOR0
 126              		.cfi_endproc
 127              	.LFE36:
 128              		.size	enable_red, .-enable_red
 129              		.section	.text.enable_green,"ax",%progbits
 130              		.align	2
 131              		.global	enable_green
 132              		.code	16
 133              		.thumb_func
 134              		.type	enable_green, %function
 135              	enable_green:
 136              	.LFB37:
  67:.\main.c      **** 
  68:.\main.c      **** void enable_green(uint32 state)
  69:.\main.c      **** {
 137              		.loc 1 69 0
 138              		.cfi_startproc
 139              	.LVL9:
 140 0000 10B5     		push	{r4, lr}
 141              		.cfi_def_cfa_offset 8
 142              		.cfi_offset 4, -8
 143              		.cfi_offset 14, -4
 144 0002 041C     		mov	r4, r0
  70:.\main.c      ****     Green_LED_Write(state ? LED_ON : LED_OFF);
 145              		.loc 1 70 0
 146 0004 6042     		neg	r0, r4
 147 0006 6041     		adc	r0, r0, r4
 148              	.LVL10:
 149 0008 C0B2     		uxtb	r0, r0
 150 000a FFF7FEFF 		bl	Green_LED_Write
 151              	.LVL11:
  71:.\main.c      ****     is_green_enabled = state;
 152              		.loc 1 71 0
 153 000e 014B     		ldr	r3, .L12
 154 0010 1C60     		str	r4, [r3]
  72:.\main.c      **** }...
 155              		.loc 1 72 0
 156              		@ sp needed
ARM GAS  C:\Users\744\AppData\Local\Temp\ccqs8niK.s 			page 5


 157              	.LVL12:
 158 0012 10BD     		pop	{r4, pc}
 159              	.L13:
 160              		.align	2
 161              	.L12:
 162 0014 00000000 		.word	.LANCHOR1
 163              		.cfi_endproc
 164              	.LFE37:
 165              		.size	enable_green, .-enable_green
 166              		.section	.text.MY_ISR,"ax",%progbits
 167              		.align	2
 168              		.global	MY_ISR
 169              		.code	16
 170              		.thumb_func
 171              		.type	MY_ISR, %function
 172              	MY_ISR:
 173              	.LFB33:
  19:.\main.c      **** {
 174              		.loc 1 19 0
 175              		.cfi_startproc
 176 0000 08B5     		push	{r3, lr}
 177              		.cfi_def_cfa_offset 8
 178              		.cfi_offset 3, -8
 179              		.cfi_offset 14, -4
  20:.\main.c      ****     ms_count++;
 180              		.loc 1 20 0
 181 0002 144A     		ldr	r2, .L18
 182 0004 5368     		ldr	r3, [r2, #4]
 183 0006 0133     		add	r3, r3, #1
 184 0008 5360     		str	r3, [r2, #4]
  21:.\main.c      ****     if(ms_count == 1000)
 185              		.loc 1 21 0
 186 000a FA22     		mov	r2, #250
 187 000c 9200     		lsl	r2, r2, #2
 188 000e 9342     		cmp	r3, r2
 189 0010 1FD1     		bne	.L14
  23:.\main.c      ****         if(is_green_enabled)
 190              		.loc 1 23 0
 191 0012 114B     		ldr	r3, .L18+4
 192 0014 1B68     		ldr	r3, [r3]
 193 0016 002B     		cmp	r3, #0
 194 0018 0CD0     		beq	.L16
  25:.\main.c      ****             red_count++;
 195              		.loc 1 25 0
 196 001a 0E4A     		ldr	r2, .L18
 197 001c 1368     		ldr	r3, [r2]
 198 001e 0133     		add	r3, r3, #1
 199 0020 1360     		str	r3, [r2]
  26:.\main.c      ****             if(red_count == 2 ) 
 200              		.loc 1 26 0
 201 0022 022B     		cmp	r3, #2
 202 0024 12D1     		bne	.L17
  28:.\main.c      ****                 enable_green(0);   
 203              		.loc 1 28 0
 204 0026 0020     		mov	r0, #0
 205 0028 FFF7FEFF 		bl	enable_green
 206              	.LVL13:
ARM GAS  C:\Users\744\AppData\Local\Temp\ccqs8niK.s 			page 6


  29:.\main.c      ****                 enable_red(1);
 207              		.loc 1 29 0
 208 002c 0120     		mov	r0, #1
 209 002e FFF7FEFF 		bl	enable_red
 210              	.LVL14:
 211 0032 0BE0     		b	.L17
 212              	.L16:
  34:.\main.c      ****             red_count++;
 213              		.loc 1 34 0
 214 0034 074A     		ldr	r2, .L18
 215 0036 1368     		ldr	r3, [r2]
 216 0038 0133     		add	r3, r3, #1
 217 003a 1360     		str	r3, [r2]
  35:.\main.c      ****             if(red_count == 5 ) 
 218              		.loc 1 35 0
 219 003c 052B     		cmp	r3, #5
 220 003e 05D1     		bne	.L17
  37:.\main.c      ****                 enable_green(1);   
 221              		.loc 1 37 0
 222 0040 0120     		mov	r0, #1
 223 0042 FFF7FEFF 		bl	enable_green
 224              	.LVL15:
  38:.\main.c      ****                 enable_red(0);
 225              		.loc 1 38 0
 226 0046 0020     		mov	r0, #0
 227 0048 FFF7FEFF 		bl	enable_red
 228              	.LVL16:
 229              	.L17:
  41:.\main.c      ****         ms_count = 0;
 230              		.loc 1 41 0
 231 004c 0022     		mov	r2, #0
 232 004e 014B     		ldr	r3, .L18
 233 0050 5A60     		str	r2, [r3, #4]
 234              	.L14:
  44:.\main.c      **** }
 235              		.loc 1 44 0
 236              		@ sp needed
 237 0052 08BD     		pop	{r3, pc}
 238              	.L19:
 239              		.align	2
 240              	.L18:
 241 0054 00000000 		.word	.LANCHOR0
 242 0058 00000000 		.word	.LANCHOR1
 243              		.cfi_endproc
 244              	.LFE33:
 245              		.size	MY_ISR, .-MY_ISR
 246              		.global	is_green_disabled
 247              		.global	is_green_enabled
 248              		.global	ms_count
 249              		.global	red_count
 250              		.data
 251              		.align	2
 252              		.set	.LANCHOR1,. + 0
 253              		.type	is_green_enabled, %object
 254              		.size	is_green_enabled, 4
 255              	is_green_enabled:
 256 0000 01000000 		.word	1
ARM GAS  C:\Users\744\AppData\Local\Temp\ccqs8niK.s 			page 7


 257              		.bss
 258              		.align	2
 259              		.set	.LANCHOR0,. + 0
 260              		.type	red_count, %object
 261              		.size	red_count, 4
 262              	red_count:
 263 0000 00000000 		.space	4
 264              		.type	ms_count, %object
 265              		.size	ms_count, 4
 266              	ms_count:
 267 0004 00000000 		.space	4
 268              		.type	is_green_disabled, %object
 269              		.size	is_green_disabled, 4
 270              	is_green_disabled:
 271 0008 00000000 		.space	4
 272              		.text
 273              	.Letext0:
 274              		.file 2 "Generated_Source\\PSoC4/cytypes.h"
 275              		.file 3 "Generated_Source\\PSoC4/Green_LED.h"
 276              		.file 4 "Generated_Source\\PSoC4/Red_LED.h"
 277              		.file 5 "Generated_Source\\PSoC4/isr_1.h"
 278              		.file 6 "Generated_Source\\PSoC4/Timer_Green.h"
 279              		.file 7 "Generated_Source\\PSoC4/Pin_SW.h"
 280              		.file 8 "Generated_Source\\PSoC4/SW_Int.h"