ARM GAS  C:\Users\744\AppData\Local\Temp\cckezfec.s 			page 1


   1              		.cpu cortex-m0
   2              		.fpu softvfp
   3              		.eabi_attribute 20, 1
   4              		.eabi_attribute 21, 1
   5              		.eabi_attribute 23, 3
   6              		.eabi_attribute 24, 1
   7              		.eabi_attribute 25, 1
   8              		.eabi_attribute 26, 1
   9              		.eabi_attribute 30, 1
  10              		.eabi_attribute 34, 0
  11              		.eabi_attribute 18, 4
  12              		.code	16
  13              		.file	"cyfitter_cfg.c"
  14              		.text
  15              	.Ltext0:
  16              		.cfi_sections	.debug_frame
  17              		.section	.text.cfg_write_bytes32,"ax",%progbits
  18              		.align	2
  19              		.code	16
  20              		.thumb_func
  21              		.type	cfg_write_bytes32, %function
  22              	cfg_write_bytes32:
  23              	.LFB3:
  24              		.file 1 ".\\Generated_Source\\PSoC4\\cyfitter_cfg.c"
   1:.\Generated_Source\PSoC4/cyfitter_cfg.c **** /*******************************************************************************
   2:.\Generated_Source\PSoC4/cyfitter_cfg.c **** * File Name: cyfitter_cfg.c
   3:.\Generated_Source\PSoC4/cyfitter_cfg.c **** * 
   4:.\Generated_Source\PSoC4/cyfitter_cfg.c **** * PSoC Creator  3.3 CP1
   5:.\Generated_Source\PSoC4/cyfitter_cfg.c **** *
   6:.\Generated_Source\PSoC4/cyfitter_cfg.c **** * Description:
   7:.\Generated_Source\PSoC4/cyfitter_cfg.c **** * This file contains device initialization code.
   8:.\Generated_Source\PSoC4/cyfitter_cfg.c **** * Except for the user defined sections in CyClockStartupError(), this file should not be modified.
   9:.\Generated_Source\PSoC4/cyfitter_cfg.c **** * This file is automatically generated by PSoC Creator.
  10:.\Generated_Source\PSoC4/cyfitter_cfg.c **** *
  11:.\Generated_Source\PSoC4/cyfitter_cfg.c **** ********************************************************************************
  12:.\Generated_Source\PSoC4/cyfitter_cfg.c **** * Copyright (c) 2007-2015 Cypress Semiconductor.  All rights reserved.
  13:.\Generated_Source\PSoC4/cyfitter_cfg.c **** * You may use this file only in accordance with the license, terms, conditions, 
  14:.\Generated_Source\PSoC4/cyfitter_cfg.c **** * disclaimers, and limitations in the end user license agreement accompanying 
  15:.\Generated_Source\PSoC4/cyfitter_cfg.c **** * the software package with which this file was provided.
  16:.\Generated_Source\PSoC4/cyfitter_cfg.c **** ********************************************************************************/
  17:.\Generated_Source\PSoC4/cyfitter_cfg.c **** 
  18:.\Generated_Source\PSoC4/cyfitter_cfg.c **** #include <string.h>
  19:.\Generated_Source\PSoC4/cyfitter_cfg.c **** #include "cytypes.h"
  20:.\Generated_Source\PSoC4/cyfitter_cfg.c **** #include "cydevice_trm.h"
  21:.\Generated_Source\PSoC4/cyfitter_cfg.c **** #include "cyfitter.h"
  22:.\Generated_Source\PSoC4/cyfitter_cfg.c **** #include "CyLib.h"
  23:.\Generated_Source\PSoC4/cyfitter_cfg.c **** #include "CyLFClk.h"
  24:.\Generated_Source\PSoC4/cyfitter_cfg.c **** #include "cyfitter_cfg.h"
  25:.\Generated_Source\PSoC4/cyfitter_cfg.c **** 
  26:.\Generated_Source\PSoC4/cyfitter_cfg.c **** 
  27:.\Generated_Source\PSoC4/cyfitter_cfg.c **** #if defined(__GNUC__) || defined(__ARMCC_VERSION)
  28:.\Generated_Source\PSoC4/cyfitter_cfg.c ****     #define CYPACKED 
  29:.\Generated_Source\PSoC4/cyfitter_cfg.c ****     #define CYPACKED_ATTR __attribute__ ((packed))
  30:.\Generated_Source\PSoC4/cyfitter_cfg.c ****     #define CYALIGNED __attribute__ ((aligned))
  31:.\Generated_Source\PSoC4/cyfitter_cfg.c ****     #define CY_CFG_UNUSED __attribute__ ((unused))
  32:.\Generated_Source\PSoC4/cyfitter_cfg.c ****     #define CY_CFG_SECTION __attribute__ ((section(".psocinit")))
  33:.\Generated_Source\PSoC4/cyfitter_cfg.c ****     
ARM GAS  C:\Users\744\AppData\Local\Temp\cckezfec.s 			page 2


  34:.\Generated_Source\PSoC4/cyfitter_cfg.c ****     #if defined(__ARMCC_VERSION)
  35:.\Generated_Source\PSoC4/cyfitter_cfg.c ****         #define CY_CFG_MEMORY_BARRIER() __memory_changed()
  36:.\Generated_Source\PSoC4/cyfitter_cfg.c ****     #else
  37:.\Generated_Source\PSoC4/cyfitter_cfg.c ****         #define CY_CFG_MEMORY_BARRIER() __sync_synchronize()
  38:.\Generated_Source\PSoC4/cyfitter_cfg.c ****     #endif
  39:.\Generated_Source\PSoC4/cyfitter_cfg.c ****     
  40:.\Generated_Source\PSoC4/cyfitter_cfg.c **** #elif defined(__ICCARM__)
  41:.\Generated_Source\PSoC4/cyfitter_cfg.c ****     #include <intrinsics.h>
  42:.\Generated_Source\PSoC4/cyfitter_cfg.c **** 
  43:.\Generated_Source\PSoC4/cyfitter_cfg.c ****     #define CYPACKED __packed
  44:.\Generated_Source\PSoC4/cyfitter_cfg.c ****     #define CYPACKED_ATTR 
  45:.\Generated_Source\PSoC4/cyfitter_cfg.c ****     #define CYALIGNED _Pragma("data_alignment=4")
  46:.\Generated_Source\PSoC4/cyfitter_cfg.c ****     #define CY_CFG_UNUSED _Pragma("diag_suppress=Pe177")
  47:.\Generated_Source\PSoC4/cyfitter_cfg.c ****     #define CY_CFG_SECTION _Pragma("location=\".psocinit\"")
  48:.\Generated_Source\PSoC4/cyfitter_cfg.c ****     
  49:.\Generated_Source\PSoC4/cyfitter_cfg.c ****     #define CY_CFG_MEMORY_BARRIER() __DMB()
  50:.\Generated_Source\PSoC4/cyfitter_cfg.c ****     
  51:.\Generated_Source\PSoC4/cyfitter_cfg.c **** #else
  52:.\Generated_Source\PSoC4/cyfitter_cfg.c ****     #error Unsupported toolchain
  53:.\Generated_Source\PSoC4/cyfitter_cfg.c **** #endif
  54:.\Generated_Source\PSoC4/cyfitter_cfg.c **** 
  55:.\Generated_Source\PSoC4/cyfitter_cfg.c **** 
  56:.\Generated_Source\PSoC4/cyfitter_cfg.c **** CY_CFG_UNUSED
  57:.\Generated_Source\PSoC4/cyfitter_cfg.c **** static void CYMEMZERO(void *s, size_t n);
  58:.\Generated_Source\PSoC4/cyfitter_cfg.c **** CY_CFG_UNUSED
  59:.\Generated_Source\PSoC4/cyfitter_cfg.c **** static void CYMEMZERO(void *s, size_t n)
  60:.\Generated_Source\PSoC4/cyfitter_cfg.c **** {
  61:.\Generated_Source\PSoC4/cyfitter_cfg.c **** 	(void)memset(s, 0, n);
  62:.\Generated_Source\PSoC4/cyfitter_cfg.c **** }
  63:.\Generated_Source\PSoC4/cyfitter_cfg.c **** CY_CFG_UNUSED
  64:.\Generated_Source\PSoC4/cyfitter_cfg.c **** static void CYCONFIGCPY(void *dest, const void *src, size_t n);
  65:.\Generated_Source\PSoC4/cyfitter_cfg.c **** CY_CFG_UNUSED
  66:.\Generated_Source\PSoC4/cyfitter_cfg.c **** static void CYCONFIGCPY(void *dest, const void *src, size_t n)
  67:.\Generated_Source\PSoC4/cyfitter_cfg.c **** {
  68:.\Generated_Source\PSoC4/cyfitter_cfg.c **** 	(void)memcpy(dest, src, n);
  69:.\Generated_Source\PSoC4/cyfitter_cfg.c **** }
  70:.\Generated_Source\PSoC4/cyfitter_cfg.c **** CY_CFG_UNUSED
  71:.\Generated_Source\PSoC4/cyfitter_cfg.c **** static void CYCONFIGCPYCODE(void *dest, const void *src, size_t n);
  72:.\Generated_Source\PSoC4/cyfitter_cfg.c **** CY_CFG_UNUSED
  73:.\Generated_Source\PSoC4/cyfitter_cfg.c **** static void CYCONFIGCPYCODE(void *dest, const void *src, size_t n)
  74:.\Generated_Source\PSoC4/cyfitter_cfg.c **** {
  75:.\Generated_Source\PSoC4/cyfitter_cfg.c **** 	(void)memcpy(dest, src, n);
  76:.\Generated_Source\PSoC4/cyfitter_cfg.c **** }
  77:.\Generated_Source\PSoC4/cyfitter_cfg.c **** 
  78:.\Generated_Source\PSoC4/cyfitter_cfg.c **** 
  79:.\Generated_Source\PSoC4/cyfitter_cfg.c **** 
  80:.\Generated_Source\PSoC4/cyfitter_cfg.c **** /* Clock startup error codes                                                   */
  81:.\Generated_Source\PSoC4/cyfitter_cfg.c **** #define CYCLOCKSTART_NO_ERROR    0u
  82:.\Generated_Source\PSoC4/cyfitter_cfg.c **** #define CYCLOCKSTART_XTAL_ERROR  1u
  83:.\Generated_Source\PSoC4/cyfitter_cfg.c **** #define CYCLOCKSTART_32KHZ_ERROR 2u
  84:.\Generated_Source\PSoC4/cyfitter_cfg.c **** #define CYCLOCKSTART_PLL_ERROR   3u
  85:.\Generated_Source\PSoC4/cyfitter_cfg.c **** 
  86:.\Generated_Source\PSoC4/cyfitter_cfg.c **** #ifdef CY_NEED_CYCLOCKSTARTUPERROR
  87:.\Generated_Source\PSoC4/cyfitter_cfg.c **** /*******************************************************************************
  88:.\Generated_Source\PSoC4/cyfitter_cfg.c **** * Function Name: CyClockStartupError
  89:.\Generated_Source\PSoC4/cyfitter_cfg.c **** ********************************************************************************
  90:.\Generated_Source\PSoC4/cyfitter_cfg.c **** * Summary:
ARM GAS  C:\Users\744\AppData\Local\Temp\cckezfec.s 			page 3


  91:.\Generated_Source\PSoC4/cyfitter_cfg.c **** *  If an error is encountered during clock configuration (crystal startup error,
  92:.\Generated_Source\PSoC4/cyfitter_cfg.c **** *  PLL lock error, etc.), the system will end up here.  Unless reimplemented by
  93:.\Generated_Source\PSoC4/cyfitter_cfg.c **** *  the customer, this function will stop in an infinite loop.
  94:.\Generated_Source\PSoC4/cyfitter_cfg.c **** *
  95:.\Generated_Source\PSoC4/cyfitter_cfg.c **** * Parameters:
  96:.\Generated_Source\PSoC4/cyfitter_cfg.c **** *   void
  97:.\Generated_Source\PSoC4/cyfitter_cfg.c **** *
  98:.\Generated_Source\PSoC4/cyfitter_cfg.c **** * Return:
  99:.\Generated_Source\PSoC4/cyfitter_cfg.c **** *   void
 100:.\Generated_Source\PSoC4/cyfitter_cfg.c **** *
 101:.\Generated_Source\PSoC4/cyfitter_cfg.c **** *******************************************************************************/
 102:.\Generated_Source\PSoC4/cyfitter_cfg.c **** CY_CFG_UNUSED
 103:.\Generated_Source\PSoC4/cyfitter_cfg.c **** static void CyClockStartupError(uint8 errorCode);
 104:.\Generated_Source\PSoC4/cyfitter_cfg.c **** CY_CFG_UNUSED
 105:.\Generated_Source\PSoC4/cyfitter_cfg.c **** static void CyClockStartupError(uint8 errorCode)
 106:.\Generated_Source\PSoC4/cyfitter_cfg.c **** {
 107:.\Generated_Source\PSoC4/cyfitter_cfg.c ****     /* To remove the compiler warning if errorCode not used.                */
 108:.\Generated_Source\PSoC4/cyfitter_cfg.c ****     errorCode = errorCode;
 109:.\Generated_Source\PSoC4/cyfitter_cfg.c **** 
 110:.\Generated_Source\PSoC4/cyfitter_cfg.c ****     /* `#START CyClockStartupError` */
 111:.\Generated_Source\PSoC4/cyfitter_cfg.c **** 
 112:.\Generated_Source\PSoC4/cyfitter_cfg.c ****     /* If we have a clock startup error (bad MHz crystal, PLL lock, etc.),  */
 113:.\Generated_Source\PSoC4/cyfitter_cfg.c ****     /* we will end up here to allow the customer to implement something to  */
 114:.\Generated_Source\PSoC4/cyfitter_cfg.c ****     /* deal with the clock condition.                                       */
 115:.\Generated_Source\PSoC4/cyfitter_cfg.c **** 
 116:.\Generated_Source\PSoC4/cyfitter_cfg.c ****     /* `#END` */
 117:.\Generated_Source\PSoC4/cyfitter_cfg.c **** 
 118:.\Generated_Source\PSoC4/cyfitter_cfg.c ****     /* If nothing else, stop here since the clocks have not started         */
 119:.\Generated_Source\PSoC4/cyfitter_cfg.c ****     /* correctly.                                                           */
 120:.\Generated_Source\PSoC4/cyfitter_cfg.c ****     while(1) {}
 121:.\Generated_Source\PSoC4/cyfitter_cfg.c **** }
 122:.\Generated_Source\PSoC4/cyfitter_cfg.c **** #endif
 123:.\Generated_Source\PSoC4/cyfitter_cfg.c **** 
 124:.\Generated_Source\PSoC4/cyfitter_cfg.c **** #define CY_CFG_BASE_ADDR_COUNT 8u
 125:.\Generated_Source\PSoC4/cyfitter_cfg.c **** CYPACKED typedef struct
 126:.\Generated_Source\PSoC4/cyfitter_cfg.c **** {
 127:.\Generated_Source\PSoC4/cyfitter_cfg.c **** 	uint8 offset;
 128:.\Generated_Source\PSoC4/cyfitter_cfg.c **** 	uint8 value;
 129:.\Generated_Source\PSoC4/cyfitter_cfg.c **** } CYPACKED_ATTR cy_cfg_addrvalue_t;
 130:.\Generated_Source\PSoC4/cyfitter_cfg.c **** 
 131:.\Generated_Source\PSoC4/cyfitter_cfg.c **** 
 132:.\Generated_Source\PSoC4/cyfitter_cfg.c **** 
 133:.\Generated_Source\PSoC4/cyfitter_cfg.c **** /*******************************************************************************
 134:.\Generated_Source\PSoC4/cyfitter_cfg.c **** * Function Name: cfg_write_bytes32
 135:.\Generated_Source\PSoC4/cyfitter_cfg.c **** ********************************************************************************
 136:.\Generated_Source\PSoC4/cyfitter_cfg.c **** * Summary:
 137:.\Generated_Source\PSoC4/cyfitter_cfg.c **** *  This function is used for setting up the chip configuration areas that
 138:.\Generated_Source\PSoC4/cyfitter_cfg.c **** *  contain relatively sparse data.
 139:.\Generated_Source\PSoC4/cyfitter_cfg.c **** *
 140:.\Generated_Source\PSoC4/cyfitter_cfg.c **** * Parameters:
 141:.\Generated_Source\PSoC4/cyfitter_cfg.c **** *   void
 142:.\Generated_Source\PSoC4/cyfitter_cfg.c **** *
 143:.\Generated_Source\PSoC4/cyfitter_cfg.c **** * Return:
 144:.\Generated_Source\PSoC4/cyfitter_cfg.c **** *   void
 145:.\Generated_Source\PSoC4/cyfitter_cfg.c **** *
 146:.\Generated_Source\PSoC4/cyfitter_cfg.c **** *******************************************************************************/
 147:.\Generated_Source\PSoC4/cyfitter_cfg.c **** static void cfg_write_bytes32(const uint32 addr_table[], const cy_cfg_addrvalue_t data_table[]);
ARM GAS  C:\Users\744\AppData\Local\Temp\cckezfec.s 			page 4


 148:.\Generated_Source\PSoC4/cyfitter_cfg.c **** static void cfg_write_bytes32(const uint32 addr_table[], const cy_cfg_addrvalue_t data_table[])
 149:.\Generated_Source\PSoC4/cyfitter_cfg.c **** {
  25              		.loc 1 149 0
  26              		.cfi_startproc
  27              	.LVL0:
  28 0000 F0B5     		push	{r4, r5, r6, r7, lr}
  29              		.cfi_def_cfa_offset 20
  30              		.cfi_offset 4, -20
  31              		.cfi_offset 5, -16
  32              		.cfi_offset 6, -12
  33              		.cfi_offset 7, -8
  34              		.cfi_offset 14, -4
  35              	.LVL1:
 150:.\Generated_Source\PSoC4/cyfitter_cfg.c **** 	/* For 32-bit little-endian architectures */
 151:.\Generated_Source\PSoC4/cyfitter_cfg.c **** 	uint32 i, j = 0u;
  36              		.loc 1 151 0
  37 0002 0025     		mov	r5, #0
 152:.\Generated_Source\PSoC4/cyfitter_cfg.c **** 	for (i = 0u; i < CY_CFG_BASE_ADDR_COUNT; i++)
  38              		.loc 1 152 0
  39 0004 0027     		mov	r7, #0
  40 0006 11E0     		b	.L2
  41              	.LVL2:
  42              	.L5:
  43              	.LBB2:
 153:.\Generated_Source\PSoC4/cyfitter_cfg.c **** 	{
 154:.\Generated_Source\PSoC4/cyfitter_cfg.c **** 		uint32 baseAddr = addr_table[i];
  44              		.loc 1 154 0
  45 0008 BB00     		lsl	r3, r7, #2
  46 000a C658     		ldr	r6, [r0, r3]
  47              	.LVL3:
 155:.\Generated_Source\PSoC4/cyfitter_cfg.c **** 		uint8 count = (uint8)baseAddr;
  48              		.loc 1 155 0
  49 000c F3B2     		uxtb	r3, r6
  50              	.LVL4:
 156:.\Generated_Source\PSoC4/cyfitter_cfg.c **** 		baseAddr &= 0xFFFFFF00u;
  51              		.loc 1 156 0
  52 000e FF22     		mov	r2, #255
  53 0010 9643     		bic	r6, r2
  54              	.LVL5:
 157:.\Generated_Source\PSoC4/cyfitter_cfg.c **** 		while (count != 0u)
  55              		.loc 1 157 0
  56 0012 08E0     		b	.L3
  57              	.L4:
 158:.\Generated_Source\PSoC4/cyfitter_cfg.c **** 		{
 159:.\Generated_Source\PSoC4/cyfitter_cfg.c **** 			CY_SET_XTND_REG8((void CYFAR *)(baseAddr + data_table[j].offset), data_table[j].value);
  58              		.loc 1 159 0
  59 0014 6A00     		lsl	r2, r5, #1
  60 0016 8A18     		add	r2, r1, r2
  61 0018 1478     		ldrb	r4, [r2]
  62 001a A419     		add	r4, r4, r6
  63 001c 5278     		ldrb	r2, [r2, #1]
  64 001e 2270     		strb	r2, [r4]
 160:.\Generated_Source\PSoC4/cyfitter_cfg.c **** 			j++;
  65              		.loc 1 160 0
  66 0020 0135     		add	r5, r5, #1
  67              	.LVL6:
 161:.\Generated_Source\PSoC4/cyfitter_cfg.c **** 			count--;
ARM GAS  C:\Users\744\AppData\Local\Temp\cckezfec.s 			page 5


  68              		.loc 1 161 0
  69 0022 013B     		sub	r3, r3, #1
  70              	.LVL7:
  71 0024 DBB2     		uxtb	r3, r3
  72              	.LVL8:
  73              	.L3:
 157:.\Generated_Source\PSoC4/cyfitter_cfg.c **** 		{
  74              		.loc 1 157 0
  75 0026 002B     		cmp	r3, #0
  76 0028 F4D1     		bne	.L4
  77              	.LBE2:
 152:.\Generated_Source\PSoC4/cyfitter_cfg.c **** 	{
  78              		.loc 1 152 0 discriminator 2
  79 002a 0137     		add	r7, r7, #1
  80              	.LVL9:
  81              	.L2:
 152:.\Generated_Source\PSoC4/cyfitter_cfg.c **** 	{
  82              		.loc 1 152 0 is_stmt 0 discriminator 1
  83 002c 072F     		cmp	r7, #7
  84 002e EBD9     		bls	.L5
 162:.\Generated_Source\PSoC4/cyfitter_cfg.c **** 		}
 163:.\Generated_Source\PSoC4/cyfitter_cfg.c **** 	}
 164:.\Generated_Source\PSoC4/cyfitter_cfg.c **** }
  85              		.loc 1 164 0 is_stmt 1
  86              		@ sp needed
  87              	.LVL10:
  88              	.LVL11:
  89 0030 F0BD     		pop	{r4, r5, r6, r7, pc}
  90              		.cfi_endproc
  91              	.LFE3:
  92              		.size	cfg_write_bytes32, .-cfg_write_bytes32
  93 0032 C046     		.section	.text.CYMEMZERO,"ax",%progbits
  94              		.align	2
  95              		.code	16
  96              		.thumb_func
  97              		.type	CYMEMZERO, %function
  98              	CYMEMZERO:
  99              	.LFB0:
  60:.\Generated_Source\PSoC4/cyfitter_cfg.c **** 	(void)memset(s, 0, n);
 100              		.loc 1 60 0
 101              		.cfi_startproc
 102              	.LVL12:
 103 0000 08B5     		push	{r3, lr}
 104              		.cfi_def_cfa_offset 8
 105              		.cfi_offset 3, -8
 106              		.cfi_offset 14, -4
 107 0002 0A1C     		mov	r2, r1
  61:.\Generated_Source\PSoC4/cyfitter_cfg.c **** }
 108              		.loc 1 61 0
 109 0004 0021     		mov	r1, #0
 110              	.LVL13:
 111 0006 FFF7FEFF 		bl	memset
 112              	.LVL14:
  62:.\Generated_Source\PSoC4/cyfitter_cfg.c **** CY_CFG_UNUSED
 113              		.loc 1 62 0
 114              		@ sp needed
 115 000a 08BD     		pop	{r3, pc}
ARM GAS  C:\Users\744\AppData\Local\Temp\cckezfec.s 			page 6


 116              		.cfi_endproc
 117              	.LFE0:
 118              		.size	CYMEMZERO, .-CYMEMZERO
 119              		.section	.psocinit,"ax",%progbits
 120              		.align	2
 121              		.code	16
 122              		.thumb_func
 123              		.type	ClockSetup, %function
 124              	ClockSetup:
 125              	.LFB4:
 165:.\Generated_Source\PSoC4/cyfitter_cfg.c **** 
 166:.\Generated_Source\PSoC4/cyfitter_cfg.c **** 
 167:.\Generated_Source\PSoC4/cyfitter_cfg.c **** /*******************************************************************************
 168:.\Generated_Source\PSoC4/cyfitter_cfg.c **** * Function Name: ClockSetup
 169:.\Generated_Source\PSoC4/cyfitter_cfg.c **** ********************************************************************************
 170:.\Generated_Source\PSoC4/cyfitter_cfg.c **** *
 171:.\Generated_Source\PSoC4/cyfitter_cfg.c **** * Summary:
 172:.\Generated_Source\PSoC4/cyfitter_cfg.c **** *   Performs the initialization of all of the clocks in the device based on the
 173:.\Generated_Source\PSoC4/cyfitter_cfg.c **** *   settings in the Clock tab of the DWR.  This includes enabling the requested
 174:.\Generated_Source\PSoC4/cyfitter_cfg.c **** *   clocks and setting the necessary dividers to produce the desired frequency. 
 175:.\Generated_Source\PSoC4/cyfitter_cfg.c **** *
 176:.\Generated_Source\PSoC4/cyfitter_cfg.c **** * Parameters:
 177:.\Generated_Source\PSoC4/cyfitter_cfg.c **** *   void
 178:.\Generated_Source\PSoC4/cyfitter_cfg.c **** *
 179:.\Generated_Source\PSoC4/cyfitter_cfg.c **** * Return:
 180:.\Generated_Source\PSoC4/cyfitter_cfg.c **** *   void
 181:.\Generated_Source\PSoC4/cyfitter_cfg.c **** *
 182:.\Generated_Source\PSoC4/cyfitter_cfg.c **** *******************************************************************************/
 183:.\Generated_Source\PSoC4/cyfitter_cfg.c **** static void ClockSetup(void);
 184:.\Generated_Source\PSoC4/cyfitter_cfg.c **** CY_CFG_SECTION
 185:.\Generated_Source\PSoC4/cyfitter_cfg.c **** static void ClockSetup(void)
 186:.\Generated_Source\PSoC4/cyfitter_cfg.c **** {
 126              		.loc 1 186 0
 127              		.cfi_startproc
 128 0000 10B5     		push	{r4, lr}
 129              		.cfi_def_cfa_offset 8
 130              		.cfi_offset 4, -8
 131              		.cfi_offset 14, -4
 187:.\Generated_Source\PSoC4/cyfitter_cfg.c **** 	/* Enable HALF_EN before trimming for the flash accelerator. */
 188:.\Generated_Source\PSoC4/cyfitter_cfg.c **** 	CY_SET_REG32((void CYXDATA *)(CYREG_CLK_SELECT), (CY_GET_REG32((void *)CYREG_CLK_SELECT) | 0x00040
 132              		.loc 1 188 0
 133 0002 0F4C     		ldr	r4, .L8
 134 0004 2368     		ldr	r3, [r4]
 135 0006 8022     		mov	r2, #128
 136 0008 D202     		lsl	r2, r2, #11
 137 000a 1343     		orr	r3, r2
 138 000c 2360     		str	r3, [r4]
 189:.\Generated_Source\PSoC4/cyfitter_cfg.c **** 
 190:.\Generated_Source\PSoC4/cyfitter_cfg.c **** 	/* Setup and trim IMO based on desired frequency. */
 191:.\Generated_Source\PSoC4/cyfitter_cfg.c **** 	CySysClkWriteImoFreq(24u);
 139              		.loc 1 191 0
 140 000e 1820     		mov	r0, #24
 141 0010 FFF7FEFF 		bl	CySysClkWriteImoFreq
 142              	.LVL15:
 192:.\Generated_Source\PSoC4/cyfitter_cfg.c **** 
 193:.\Generated_Source\PSoC4/cyfitter_cfg.c **** 	/* Disable HALF_EN since it is not required at this IMO frequency. */
 194:.\Generated_Source\PSoC4/cyfitter_cfg.c **** 	CY_SET_REG32((void CYXDATA *)(CYREG_CLK_SELECT), (CY_GET_REG32((void *)CYREG_CLK_SELECT) & 0xFFFBF
ARM GAS  C:\Users\744\AppData\Local\Temp\cckezfec.s 			page 7


 143              		.loc 1 194 0
 144 0014 2268     		ldr	r2, [r4]
 145 0016 0B4B     		ldr	r3, .L8+4
 146 0018 1340     		and	r3, r2
 147 001a 2360     		str	r3, [r4]
 195:.\Generated_Source\PSoC4/cyfitter_cfg.c **** 	/* CYDEV_CLK_ILO_CONFIG Starting address: CYDEV_CLK_ILO_CONFIG */
 196:.\Generated_Source\PSoC4/cyfitter_cfg.c **** 	CY_SET_XTND_REG32((void CYFAR *)(CYREG_CLK_ILO_CONFIG), 0x80000006u);
 148              		.loc 1 196 0
 149 001c 0A4A     		ldr	r2, .L8+8
 150 001e 0B4B     		ldr	r3, .L8+12
 151 0020 1A60     		str	r2, [r3]
 197:.\Generated_Source\PSoC4/cyfitter_cfg.c **** 
 198:.\Generated_Source\PSoC4/cyfitter_cfg.c **** 
 199:.\Generated_Source\PSoC4/cyfitter_cfg.c **** 	/* CYDEV_CLK_IMO_CONFIG Starting address: CYDEV_CLK_IMO_CONFIG */
 200:.\Generated_Source\PSoC4/cyfitter_cfg.c **** 	CY_SET_XTND_REG32((void CYFAR *)(CYREG_CLK_IMO_CONFIG), 0x80000000u);
 152              		.loc 1 200 0
 153 0022 063A     		sub	r2, r2, #6
 154 0024 0A4B     		ldr	r3, .L8+16
 155 0026 1A60     		str	r2, [r3]
 201:.\Generated_Source\PSoC4/cyfitter_cfg.c **** 
 202:.\Generated_Source\PSoC4/cyfitter_cfg.c **** 	(void)CyIntSetVector(9u, &CySysWdtIsr);
 156              		.loc 1 202 0
 157 0028 0920     		mov	r0, #9
 158 002a 0A49     		ldr	r1, .L8+20
 159 002c FFF7FEFF 		bl	CyIntSetVector
 160              	.LVL16:
 203:.\Generated_Source\PSoC4/cyfitter_cfg.c **** 	CyIntEnable(9u);
 161              		.loc 1 203 0
 162 0030 0920     		mov	r0, #9
 163 0032 FFF7FEFF 		bl	CyIntEnable
 164              	.LVL17:
 204:.\Generated_Source\PSoC4/cyfitter_cfg.c **** 	CY_SET_XTND_REG32((void CYFAR *)(CYREG_WDT_CONFIG), 0x00000000u);
 165              		.loc 1 204 0
 166 0036 0022     		mov	r2, #0
 167 0038 074B     		ldr	r3, .L8+24
 168 003a 1A60     		str	r2, [r3]
 205:.\Generated_Source\PSoC4/cyfitter_cfg.c **** }
 169              		.loc 1 205 0
 170              		@ sp needed
 171 003c 10BD     		pop	{r4, pc}
 172              	.L9:
 173 003e C046     		.align	2
 174              	.L8:
 175 0040 00010B40 		.word	1074462976
 176 0044 FFFFFBFF 		.word	-262145
 177 0048 06000080 		.word	-2147483642
 178 004c 04010B40 		.word	1074462980
 179 0050 08010B40 		.word	1074462984
 180 0054 00000000 		.word	CySysWdtIsr
 181 0058 0C020B40 		.word	1074463244
 182              		.cfi_endproc
 183              	.LFE4:
 184              		.size	ClockSetup, .-ClockSetup
 185              		.align	2
 186              		.global	cyfitter_cfg
 187              		.code	16
 188              		.thumb_func
ARM GAS  C:\Users\744\AppData\Local\Temp\cckezfec.s 			page 8


 189              		.type	cyfitter_cfg, %function
 190              	cyfitter_cfg:
 191              	.LFB6:
 206:.\Generated_Source\PSoC4/cyfitter_cfg.c **** 
 207:.\Generated_Source\PSoC4/cyfitter_cfg.c **** 
 208:.\Generated_Source\PSoC4/cyfitter_cfg.c **** /* Analog API Functions */
 209:.\Generated_Source\PSoC4/cyfitter_cfg.c **** 
 210:.\Generated_Source\PSoC4/cyfitter_cfg.c **** 
 211:.\Generated_Source\PSoC4/cyfitter_cfg.c **** /*******************************************************************************
 212:.\Generated_Source\PSoC4/cyfitter_cfg.c **** * Function Name: AnalogSetDefault
 213:.\Generated_Source\PSoC4/cyfitter_cfg.c **** ********************************************************************************
 214:.\Generated_Source\PSoC4/cyfitter_cfg.c **** *
 215:.\Generated_Source\PSoC4/cyfitter_cfg.c **** * Summary:
 216:.\Generated_Source\PSoC4/cyfitter_cfg.c **** *  Sets up the analog portions of the chip to default values based on chip
 217:.\Generated_Source\PSoC4/cyfitter_cfg.c **** *  configuration options from the project.
 218:.\Generated_Source\PSoC4/cyfitter_cfg.c **** *
 219:.\Generated_Source\PSoC4/cyfitter_cfg.c **** * Parameters:
 220:.\Generated_Source\PSoC4/cyfitter_cfg.c **** *  void
 221:.\Generated_Source\PSoC4/cyfitter_cfg.c **** *
 222:.\Generated_Source\PSoC4/cyfitter_cfg.c **** * Return:
 223:.\Generated_Source\PSoC4/cyfitter_cfg.c **** *  void
 224:.\Generated_Source\PSoC4/cyfitter_cfg.c **** *
 225:.\Generated_Source\PSoC4/cyfitter_cfg.c **** *******************************************************************************/
 226:.\Generated_Source\PSoC4/cyfitter_cfg.c **** static void AnalogSetDefault(void);
 227:.\Generated_Source\PSoC4/cyfitter_cfg.c **** static void AnalogSetDefault(void)
 228:.\Generated_Source\PSoC4/cyfitter_cfg.c **** {
 229:.\Generated_Source\PSoC4/cyfitter_cfg.c **** }
 230:.\Generated_Source\PSoC4/cyfitter_cfg.c **** 
 231:.\Generated_Source\PSoC4/cyfitter_cfg.c **** #define CY_AMUX_UNUSED CYREG_CM0_ROM_DWT
 232:.\Generated_Source\PSoC4/cyfitter_cfg.c **** 
 233:.\Generated_Source\PSoC4/cyfitter_cfg.c **** 
 234:.\Generated_Source\PSoC4/cyfitter_cfg.c **** /*******************************************************************************
 235:.\Generated_Source\PSoC4/cyfitter_cfg.c **** * Function Name: cyfitter_cfg
 236:.\Generated_Source\PSoC4/cyfitter_cfg.c **** ********************************************************************************
 237:.\Generated_Source\PSoC4/cyfitter_cfg.c **** * Summary:
 238:.\Generated_Source\PSoC4/cyfitter_cfg.c **** *  This function is called by the start-up code for the selected device. It
 239:.\Generated_Source\PSoC4/cyfitter_cfg.c **** *  performs all of the necessary device configuration based on the design
 240:.\Generated_Source\PSoC4/cyfitter_cfg.c **** *  settings.  This includes settings from the Design Wide Resources (DWR) such
 241:.\Generated_Source\PSoC4/cyfitter_cfg.c **** *  as Clocks and Pins as well as any component configuration that is necessary.
 242:.\Generated_Source\PSoC4/cyfitter_cfg.c **** *
 243:.\Generated_Source\PSoC4/cyfitter_cfg.c **** * Parameters:  
 244:.\Generated_Source\PSoC4/cyfitter_cfg.c **** *   void
 245:.\Generated_Source\PSoC4/cyfitter_cfg.c **** *
 246:.\Generated_Source\PSoC4/cyfitter_cfg.c **** * Return:
 247:.\Generated_Source\PSoC4/cyfitter_cfg.c **** *   void
 248:.\Generated_Source\PSoC4/cyfitter_cfg.c **** *
 249:.\Generated_Source\PSoC4/cyfitter_cfg.c **** *******************************************************************************/
 250:.\Generated_Source\PSoC4/cyfitter_cfg.c **** CY_CFG_SECTION
 251:.\Generated_Source\PSoC4/cyfitter_cfg.c **** void cyfitter_cfg(void)
 252:.\Generated_Source\PSoC4/cyfitter_cfg.c **** {
 192              		.loc 1 252 0
 193              		.cfi_startproc
 194 005c 10B5     		push	{r4, lr}
 195              		.cfi_def_cfa_offset 8
 196              		.cfi_offset 4, -8
 197              		.cfi_offset 14, -4
 253:.\Generated_Source\PSoC4/cyfitter_cfg.c **** 	/* Disable interrupts by default. Let user enable if/when they want. */
ARM GAS  C:\Users\744\AppData\Local\Temp\cckezfec.s 			page 9


 254:.\Generated_Source\PSoC4/cyfitter_cfg.c **** 	CyGlobalIntDisable;
 198              		.loc 1 254 0
 199              	@ 254 ".\Generated_Source\PSoC4\cyfitter_cfg.c" 1
 200 005e 72B6     		CPSID   i
 201              	@ 0 "" 2
 255:.\Generated_Source\PSoC4/cyfitter_cfg.c **** 
 256:.\Generated_Source\PSoC4/cyfitter_cfg.c **** 	/* Enable the clock in the interrupt controller for the routed interrupts */
 257:.\Generated_Source\PSoC4/cyfitter_cfg.c **** 	CY_SET_REG8((void *)CYREG_UDB_UDBIF_INT_CLK_CTL, 0x01u);
 202              		.loc 1 257 0
 203              		.code	16
 204 0060 0122     		mov	r2, #1
 205 0062 2C4B     		ldr	r3, .L13
 206 0064 1A70     		strb	r2, [r3]
 207              	.LVL18:
 208              	.LBB3:
 258:.\Generated_Source\PSoC4/cyfitter_cfg.c **** 	{
 259:.\Generated_Source\PSoC4/cyfitter_cfg.c **** 		static const uint32 CYCODE cy_cfg_addr_table[] = {
 260:.\Generated_Source\PSoC4/cyfitter_cfg.c **** 			0x400F0001u, /* Base address: 0x400F0000 Count: 1 */
 261:.\Generated_Source\PSoC4/cyfitter_cfg.c **** 			0x400F3028u, /* Base address: 0x400F3000 Count: 40 */
 262:.\Generated_Source\PSoC4/cyfitter_cfg.c **** 			0x400F3108u, /* Base address: 0x400F3100 Count: 8 */
 263:.\Generated_Source\PSoC4/cyfitter_cfg.c **** 			0x400F3220u, /* Base address: 0x400F3200 Count: 32 */
 264:.\Generated_Source\PSoC4/cyfitter_cfg.c **** 			0x400F3313u, /* Base address: 0x400F3300 Count: 19 */
 265:.\Generated_Source\PSoC4/cyfitter_cfg.c **** 			0x400F4002u, /* Base address: 0x400F4000 Count: 2 */
 266:.\Generated_Source\PSoC4/cyfitter_cfg.c **** 			0x400F4103u, /* Base address: 0x400F4100 Count: 3 */
 267:.\Generated_Source\PSoC4/cyfitter_cfg.c **** 			0x400F6002u, /* Base address: 0x400F6000 Count: 2 */
 268:.\Generated_Source\PSoC4/cyfitter_cfg.c **** 		};
 269:.\Generated_Source\PSoC4/cyfitter_cfg.c **** 
 270:.\Generated_Source\PSoC4/cyfitter_cfg.c **** 		static const cy_cfg_addrvalue_t CYCODE cy_cfg_data_table[] = {
 271:.\Generated_Source\PSoC4/cyfitter_cfg.c **** 			{0x82u, 0x0Du},
 272:.\Generated_Source\PSoC4/cyfitter_cfg.c **** 			{0x40u, 0x51u},
 273:.\Generated_Source\PSoC4/cyfitter_cfg.c **** 			{0x49u, 0xFFu},
 274:.\Generated_Source\PSoC4/cyfitter_cfg.c **** 			{0x4Au, 0xFFu},
 275:.\Generated_Source\PSoC4/cyfitter_cfg.c **** 			{0x4Bu, 0xFFu},
 276:.\Generated_Source\PSoC4/cyfitter_cfg.c **** 			{0x4Fu, 0x01u},
 277:.\Generated_Source\PSoC4/cyfitter_cfg.c **** 			{0x50u, 0x18u},
 278:.\Generated_Source\PSoC4/cyfitter_cfg.c **** 			{0x5Au, 0x04u},
 279:.\Generated_Source\PSoC4/cyfitter_cfg.c **** 			{0x5Du, 0x09u},
 280:.\Generated_Source\PSoC4/cyfitter_cfg.c **** 			{0x5Fu, 0x01u},
 281:.\Generated_Source\PSoC4/cyfitter_cfg.c **** 			{0x60u, 0x40u},
 282:.\Generated_Source\PSoC4/cyfitter_cfg.c **** 			{0x62u, 0x40u},
 283:.\Generated_Source\PSoC4/cyfitter_cfg.c **** 			{0x64u, 0x40u},
 284:.\Generated_Source\PSoC4/cyfitter_cfg.c **** 			{0x65u, 0x40u},
 285:.\Generated_Source\PSoC4/cyfitter_cfg.c **** 			{0x66u, 0x80u},
 286:.\Generated_Source\PSoC4/cyfitter_cfg.c **** 			{0x68u, 0x80u},
 287:.\Generated_Source\PSoC4/cyfitter_cfg.c **** 			{0x6Au, 0x80u},
 288:.\Generated_Source\PSoC4/cyfitter_cfg.c **** 			{0x6Cu, 0x80u},
 289:.\Generated_Source\PSoC4/cyfitter_cfg.c **** 			{0x6Eu, 0x80u},
 290:.\Generated_Source\PSoC4/cyfitter_cfg.c **** 			{0xC0u, 0x41u},
 291:.\Generated_Source\PSoC4/cyfitter_cfg.c **** 			{0xC9u, 0xFFu},
 292:.\Generated_Source\PSoC4/cyfitter_cfg.c **** 			{0xCAu, 0xFFu},
 293:.\Generated_Source\PSoC4/cyfitter_cfg.c **** 			{0xCBu, 0xFFu},
 294:.\Generated_Source\PSoC4/cyfitter_cfg.c **** 			{0xCDu, 0x83u},
 295:.\Generated_Source\PSoC4/cyfitter_cfg.c **** 			{0xCEu, 0x03u},
 296:.\Generated_Source\PSoC4/cyfitter_cfg.c **** 			{0xCFu, 0x01u},
 297:.\Generated_Source\PSoC4/cyfitter_cfg.c **** 			{0xD0u, 0x18u},
 298:.\Generated_Source\PSoC4/cyfitter_cfg.c **** 			{0xD2u, 0x80u},
 299:.\Generated_Source\PSoC4/cyfitter_cfg.c **** 			{0xDAu, 0x04u},
ARM GAS  C:\Users\744\AppData\Local\Temp\cckezfec.s 			page 10


 300:.\Generated_Source\PSoC4/cyfitter_cfg.c **** 			{0xDBu, 0x04u},
 301:.\Generated_Source\PSoC4/cyfitter_cfg.c **** 			{0xDDu, 0x99u},
 302:.\Generated_Source\PSoC4/cyfitter_cfg.c **** 			{0xDFu, 0x01u},
 303:.\Generated_Source\PSoC4/cyfitter_cfg.c **** 			{0xE0u, 0x40u},
 304:.\Generated_Source\PSoC4/cyfitter_cfg.c **** 			{0xE2u, 0x40u},
 305:.\Generated_Source\PSoC4/cyfitter_cfg.c **** 			{0xE4u, 0x40u},
 306:.\Generated_Source\PSoC4/cyfitter_cfg.c **** 			{0xE5u, 0x40u},
 307:.\Generated_Source\PSoC4/cyfitter_cfg.c **** 			{0xE6u, 0x80u},
 308:.\Generated_Source\PSoC4/cyfitter_cfg.c **** 			{0xE8u, 0x80u},
 309:.\Generated_Source\PSoC4/cyfitter_cfg.c **** 			{0xEAu, 0x80u},
 310:.\Generated_Source\PSoC4/cyfitter_cfg.c **** 			{0xECu, 0x80u},
 311:.\Generated_Source\PSoC4/cyfitter_cfg.c **** 			{0xEEu, 0x80u},
 312:.\Generated_Source\PSoC4/cyfitter_cfg.c **** 			{0x42u, 0x02u},
 313:.\Generated_Source\PSoC4/cyfitter_cfg.c **** 			{0x46u, 0x82u},
 314:.\Generated_Source\PSoC4/cyfitter_cfg.c **** 			{0x48u, 0x01u},
 315:.\Generated_Source\PSoC4/cyfitter_cfg.c **** 			{0x74u, 0x01u},
 316:.\Generated_Source\PSoC4/cyfitter_cfg.c **** 			{0x76u, 0x80u},
 317:.\Generated_Source\PSoC4/cyfitter_cfg.c **** 			{0x77u, 0x80u},
 318:.\Generated_Source\PSoC4/cyfitter_cfg.c **** 			{0xD0u, 0x98u},
 319:.\Generated_Source\PSoC4/cyfitter_cfg.c **** 			{0xD2u, 0x08u},
 320:.\Generated_Source\PSoC4/cyfitter_cfg.c **** 			{0x0Eu, 0x01u},
 321:.\Generated_Source\PSoC4/cyfitter_cfg.c **** 			{0x2Eu, 0x01u},
 322:.\Generated_Source\PSoC4/cyfitter_cfg.c **** 			{0x30u, 0x01u},
 323:.\Generated_Source\PSoC4/cyfitter_cfg.c **** 			{0x36u, 0x01u},
 324:.\Generated_Source\PSoC4/cyfitter_cfg.c **** 			{0x3Eu, 0x01u},
 325:.\Generated_Source\PSoC4/cyfitter_cfg.c **** 			{0x40u, 0x41u},
 326:.\Generated_Source\PSoC4/cyfitter_cfg.c **** 			{0x45u, 0xECu},
 327:.\Generated_Source\PSoC4/cyfitter_cfg.c **** 			{0x47u, 0x20u},
 328:.\Generated_Source\PSoC4/cyfitter_cfg.c **** 			{0x48u, 0x23u},
 329:.\Generated_Source\PSoC4/cyfitter_cfg.c **** 			{0x49u, 0xFFu},
 330:.\Generated_Source\PSoC4/cyfitter_cfg.c **** 			{0x4Au, 0xFFu},
 331:.\Generated_Source\PSoC4/cyfitter_cfg.c **** 			{0x4Bu, 0xFFu},
 332:.\Generated_Source\PSoC4/cyfitter_cfg.c **** 			{0x4Du, 0x83u},
 333:.\Generated_Source\PSoC4/cyfitter_cfg.c **** 			{0x4Eu, 0x03u},
 334:.\Generated_Source\PSoC4/cyfitter_cfg.c **** 			{0x4Fu, 0x01u},
 335:.\Generated_Source\PSoC4/cyfitter_cfg.c **** 			{0x50u, 0x18u},
 336:.\Generated_Source\PSoC4/cyfitter_cfg.c **** 			{0x54u, 0x01u},
 337:.\Generated_Source\PSoC4/cyfitter_cfg.c **** 			{0x58u, 0x04u},
 338:.\Generated_Source\PSoC4/cyfitter_cfg.c **** 			{0x5Au, 0x04u},
 339:.\Generated_Source\PSoC4/cyfitter_cfg.c **** 			{0x5Bu, 0x04u},
 340:.\Generated_Source\PSoC4/cyfitter_cfg.c **** 			{0x5Cu, 0x09u},
 341:.\Generated_Source\PSoC4/cyfitter_cfg.c **** 			{0x5Du, 0x99u},
 342:.\Generated_Source\PSoC4/cyfitter_cfg.c **** 			{0x5Fu, 0x01u},
 343:.\Generated_Source\PSoC4/cyfitter_cfg.c **** 			{0x60u, 0x40u},
 344:.\Generated_Source\PSoC4/cyfitter_cfg.c **** 			{0x62u, 0x40u},
 345:.\Generated_Source\PSoC4/cyfitter_cfg.c **** 			{0x64u, 0x40u},
 346:.\Generated_Source\PSoC4/cyfitter_cfg.c **** 			{0x65u, 0x40u},
 347:.\Generated_Source\PSoC4/cyfitter_cfg.c **** 			{0x66u, 0x80u},
 348:.\Generated_Source\PSoC4/cyfitter_cfg.c **** 			{0x68u, 0x80u},
 349:.\Generated_Source\PSoC4/cyfitter_cfg.c **** 			{0x6Au, 0x80u},
 350:.\Generated_Source\PSoC4/cyfitter_cfg.c **** 			{0x6Cu, 0x80u},
 351:.\Generated_Source\PSoC4/cyfitter_cfg.c **** 			{0x6Eu, 0x80u},
 352:.\Generated_Source\PSoC4/cyfitter_cfg.c **** 			{0x06u, 0x02u},
 353:.\Generated_Source\PSoC4/cyfitter_cfg.c **** 			{0x17u, 0x80u},
 354:.\Generated_Source\PSoC4/cyfitter_cfg.c **** 			{0x1Eu, 0x80u},
 355:.\Generated_Source\PSoC4/cyfitter_cfg.c **** 			{0x1Fu, 0x80u},
 356:.\Generated_Source\PSoC4/cyfitter_cfg.c **** 			{0x46u, 0x82u},
ARM GAS  C:\Users\744\AppData\Local\Temp\cckezfec.s 			page 11


 357:.\Generated_Source\PSoC4/cyfitter_cfg.c **** 			{0x4Du, 0x04u},
 358:.\Generated_Source\PSoC4/cyfitter_cfg.c **** 			{0x4Fu, 0x01u},
 359:.\Generated_Source\PSoC4/cyfitter_cfg.c **** 			{0x56u, 0x02u},
 360:.\Generated_Source\PSoC4/cyfitter_cfg.c **** 			{0x5Du, 0x04u},
 361:.\Generated_Source\PSoC4/cyfitter_cfg.c **** 			{0x5Eu, 0x80u},
 362:.\Generated_Source\PSoC4/cyfitter_cfg.c **** 			{0x5Fu, 0x01u},
 363:.\Generated_Source\PSoC4/cyfitter_cfg.c **** 			{0x87u, 0x80u},
 364:.\Generated_Source\PSoC4/cyfitter_cfg.c **** 			{0x9Au, 0x80u},
 365:.\Generated_Source\PSoC4/cyfitter_cfg.c **** 			{0x9Bu, 0x80u},
 366:.\Generated_Source\PSoC4/cyfitter_cfg.c **** 			{0x9Eu, 0x02u},
 367:.\Generated_Source\PSoC4/cyfitter_cfg.c **** 			{0xC0u, 0x80u},
 368:.\Generated_Source\PSoC4/cyfitter_cfg.c **** 			{0xC4u, 0x80u},
 369:.\Generated_Source\PSoC4/cyfitter_cfg.c **** 			{0xD0u, 0x90u},
 370:.\Generated_Source\PSoC4/cyfitter_cfg.c **** 			{0xD6u, 0xD0u},
 371:.\Generated_Source\PSoC4/cyfitter_cfg.c **** 			{0x6Fu, 0x20u},
 372:.\Generated_Source\PSoC4/cyfitter_cfg.c **** 			{0xDAu, 0x80u},
 373:.\Generated_Source\PSoC4/cyfitter_cfg.c **** 			{0x87u, 0x20u},
 374:.\Generated_Source\PSoC4/cyfitter_cfg.c **** 			{0xA7u, 0x20u},
 375:.\Generated_Source\PSoC4/cyfitter_cfg.c **** 			{0xE6u, 0x10u},
 376:.\Generated_Source\PSoC4/cyfitter_cfg.c **** 			{0x02u, 0x01u},
 377:.\Generated_Source\PSoC4/cyfitter_cfg.c **** 			{0x11u, 0x01u},
 378:.\Generated_Source\PSoC4/cyfitter_cfg.c **** 		};
 379:.\Generated_Source\PSoC4/cyfitter_cfg.c **** 
 380:.\Generated_Source\PSoC4/cyfitter_cfg.c **** 
 381:.\Generated_Source\PSoC4/cyfitter_cfg.c **** 
 382:.\Generated_Source\PSoC4/cyfitter_cfg.c **** 		CYPACKED typedef struct {
 383:.\Generated_Source\PSoC4/cyfitter_cfg.c **** 			void CYFAR *address;
 384:.\Generated_Source\PSoC4/cyfitter_cfg.c **** 			uint16 size;
 385:.\Generated_Source\PSoC4/cyfitter_cfg.c **** 		} CYPACKED_ATTR cfg_memset_t;
 386:.\Generated_Source\PSoC4/cyfitter_cfg.c **** 
 387:.\Generated_Source\PSoC4/cyfitter_cfg.c **** 		static const cfg_memset_t CYCODE cfg_memset_list [] = {
 388:.\Generated_Source\PSoC4/cyfitter_cfg.c **** 			/* address, size */
 389:.\Generated_Source\PSoC4/cyfitter_cfg.c **** 			{(void CYFAR *)(CYDEV_UDB_P0_U0_BASE), 1024u},
 390:.\Generated_Source\PSoC4/cyfitter_cfg.c **** 			{(void CYFAR *)(CYDEV_UDB_DSI0_BASE), 1024u},
 391:.\Generated_Source\PSoC4/cyfitter_cfg.c **** 		};
 392:.\Generated_Source\PSoC4/cyfitter_cfg.c **** 
 393:.\Generated_Source\PSoC4/cyfitter_cfg.c **** 		uint8 CYDATA i;
 394:.\Generated_Source\PSoC4/cyfitter_cfg.c **** 
 395:.\Generated_Source\PSoC4/cyfitter_cfg.c **** 		/* Zero out critical memory blocks before beginning configuration */
 396:.\Generated_Source\PSoC4/cyfitter_cfg.c **** 		for (i = 0u; i < (sizeof(cfg_memset_list)/sizeof(cfg_memset_list[0])); i++)
 209              		.loc 1 396 0
 210 0066 0024     		mov	r4, #0
 211 0068 10E0     		b	.L11
 212              	.LVL19:
 213              	.L12:
 214              	.LBB4:
 397:.\Generated_Source\PSoC4/cyfitter_cfg.c **** 		{
 398:.\Generated_Source\PSoC4/cyfitter_cfg.c **** 			const cfg_memset_t CYCODE * CYDATA ms = &cfg_memset_list[i];
 399:.\Generated_Source\PSoC4/cyfitter_cfg.c **** 			CYMEMZERO(ms->address, (size_t)(uint32)(ms->size));
 215              		.loc 1 399 0 discriminator 3
 216 006a 2B48     		ldr	r0, .L13+4
 217 006c 6300     		lsl	r3, r4, #1
 218 006e 1A19     		add	r2, r3, r4
 219 0070 5200     		lsl	r2, r2, #1
 220 0072 8218     		add	r2, r0, r2
 221 0074 9188     		ldrh	r1, [r2, #4]
 222 0076 1B19     		add	r3, r3, r4
ARM GAS  C:\Users\744\AppData\Local\Temp\cckezfec.s 			page 12


 223 0078 5B00     		lsl	r3, r3, #1
 224 007a 1A5A     		ldrh	r2, [r3, r0]
 225 007c C318     		add	r3, r0, r3
 226 007e 5888     		ldrh	r0, [r3, #2]
 227 0080 0004     		lsl	r0, r0, #16
 228 0082 1043     		orr	r0, r2
 229 0084 FFF7FEFF 		bl	CYMEMZERO
 230              	.LVL20:
 231              	.LBE4:
 396:.\Generated_Source\PSoC4/cyfitter_cfg.c **** 		{
 232              		.loc 1 396 0 discriminator 3
 233 0088 0134     		add	r4, r4, #1
 234              	.LVL21:
 235 008a E4B2     		uxtb	r4, r4
 236              	.LVL22:
 237              	.L11:
 396:.\Generated_Source\PSoC4/cyfitter_cfg.c **** 		{
 238              		.loc 1 396 0 is_stmt 0 discriminator 1
 239 008c 012C     		cmp	r4, #1
 240 008e ECD9     		bls	.L12
 400:.\Generated_Source\PSoC4/cyfitter_cfg.c **** 		}
 401:.\Generated_Source\PSoC4/cyfitter_cfg.c **** 
 402:.\Generated_Source\PSoC4/cyfitter_cfg.c **** 		cfg_write_bytes32(cy_cfg_addr_table, cy_cfg_data_table);
 241              		.loc 1 402 0 is_stmt 1
 242 0090 2149     		ldr	r1, .L13+4
 243 0092 081C     		mov	r0, r1
 244 0094 0C30     		add	r0, r0, #12
 245 0096 2C31     		add	r1, r1, #44
 246 0098 FFF7FEFF 		bl	cfg_write_bytes32
 247              	.LVL23:
 403:.\Generated_Source\PSoC4/cyfitter_cfg.c **** 
 404:.\Generated_Source\PSoC4/cyfitter_cfg.c **** 		/* HSIOM Starting address: CYDEV_HSIOM_BASE */
 405:.\Generated_Source\PSoC4/cyfitter_cfg.c **** 		CY_SET_XTND_REG32((void CYFAR *)(CYREG_HSIOM_PORT_SEL3), 0x0000EE00u);
 248              		.loc 1 405 0
 249 009c EE22     		mov	r2, #238
 250 009e 1202     		lsl	r2, r2, #8
 251 00a0 1E4B     		ldr	r3, .L13+8
 252 00a2 1A60     		str	r2, [r3]
 406:.\Generated_Source\PSoC4/cyfitter_cfg.c **** 
 407:.\Generated_Source\PSoC4/cyfitter_cfg.c **** 		/* UDB_PA_1 Starting address: CYDEV_UDB_PA1_BASE */
 408:.\Generated_Source\PSoC4/cyfitter_cfg.c **** 		CY_SET_XTND_REG32((void CYFAR *)(CYDEV_UDB_PA1_BASE), 0x00990000u);
 253              		.loc 1 408 0
 254 00a4 9923     		mov	r3, #153
 255 00a6 1B04     		lsl	r3, r3, #16
 256 00a8 1D4A     		ldr	r2, .L13+12
 257 00aa 1360     		str	r3, [r2]
 409:.\Generated_Source\PSoC4/cyfitter_cfg.c **** 		CY_SET_XTND_REG32((void CYFAR *)(CYREG_UDB_PA1_CFG4), 0x02A80000u);
 258              		.loc 1 409 0
 259 00ac AA21     		mov	r1, #170
 260 00ae 8904     		lsl	r1, r1, #18
 261 00b0 1C4A     		ldr	r2, .L13+16
 262 00b2 1160     		str	r1, [r2]
 410:.\Generated_Source\PSoC4/cyfitter_cfg.c **** 
 411:.\Generated_Source\PSoC4/cyfitter_cfg.c **** 		/* UDB_PA_2 Starting address: CYDEV_UDB_PA2_BASE */
 412:.\Generated_Source\PSoC4/cyfitter_cfg.c **** 		CY_SET_XTND_REG32((void CYFAR *)(CYDEV_UDB_PA2_BASE), 0x00990000u);
 263              		.loc 1 412 0
 264 00b4 1C4A     		ldr	r2, .L13+20
ARM GAS  C:\Users\744\AppData\Local\Temp\cckezfec.s 			page 13


 265 00b6 1360     		str	r3, [r2]
 413:.\Generated_Source\PSoC4/cyfitter_cfg.c **** 
 414:.\Generated_Source\PSoC4/cyfitter_cfg.c **** 		/* UDB_PA_3 Starting address: CYDEV_UDB_PA3_BASE */
 415:.\Generated_Source\PSoC4/cyfitter_cfg.c **** 		CY_SET_XTND_REG32((void CYFAR *)(CYDEV_UDB_PA3_BASE), 0x00990000u);
 266              		.loc 1 415 0
 267 00b8 1C4A     		ldr	r2, .L13+24
 268 00ba 1360     		str	r3, [r2]
 416:.\Generated_Source\PSoC4/cyfitter_cfg.c **** 		CY_SET_XTND_REG32((void CYFAR *)(CYREG_UDB_PA3_CFG4), 0xAA000000u);
 269              		.loc 1 416 0
 270 00bc AA22     		mov	r2, #170
 271 00be 1206     		lsl	r2, r2, #24
 272 00c0 1B4B     		ldr	r3, .L13+28
 273 00c2 1A60     		str	r2, [r3]
 417:.\Generated_Source\PSoC4/cyfitter_cfg.c **** 
 418:.\Generated_Source\PSoC4/cyfitter_cfg.c **** 		/* INT_SELECT Starting address: CYDEV_CPUSS_INTR_SELECT */
 419:.\Generated_Source\PSoC4/cyfitter_cfg.c **** 		CY_SET_XTND_REG32((void CYFAR *)(CYREG_CPUSS_INTR_SELECT), 0x00000001u);
 274              		.loc 1 419 0
 275 00c4 0122     		mov	r2, #1
 276 00c6 1B4B     		ldr	r3, .L13+32
 277 00c8 1A60     		str	r2, [r3]
 420:.\Generated_Source\PSoC4/cyfitter_cfg.c **** 
 421:.\Generated_Source\PSoC4/cyfitter_cfg.c **** 		/* INT_CONFIG Starting address: CYDEV_UDB_INT_CFG */
 422:.\Generated_Source\PSoC4/cyfitter_cfg.c **** 		CY_SET_XTND_REG32((void CYFAR *)(CYREG_UDB_INT_CFG), 0x00000002u);
 278              		.loc 1 422 0
 279 00ca 0132     		add	r2, r2, #1
 280 00cc 1A4B     		ldr	r3, .L13+36
 281 00ce 1A60     		str	r2, [r3]
 423:.\Generated_Source\PSoC4/cyfitter_cfg.c **** 
 424:.\Generated_Source\PSoC4/cyfitter_cfg.c **** 		/* Enable digital routing */
 425:.\Generated_Source\PSoC4/cyfitter_cfg.c **** 		CY_SET_XTND_REG8((void *)CYREG_UDB_UDBIF_BANK_CTL, CY_GET_XTND_REG8((void *)CYREG_UDB_UDBIF_BANK_
 282              		.loc 1 425 0
 283 00d0 1A4B     		ldr	r3, .L13+40
 284 00d2 1978     		ldrb	r1, [r3]
 285 00d4 0A43     		orr	r2, r1
 286 00d6 1A70     		strb	r2, [r3]
 426:.\Generated_Source\PSoC4/cyfitter_cfg.c **** 
 427:.\Generated_Source\PSoC4/cyfitter_cfg.c **** 		/* Enable UDB array */
 428:.\Generated_Source\PSoC4/cyfitter_cfg.c **** 		CY_SET_XTND_REG8((void *)CYREG_UDB_UDBIF_WAIT_CFG, (uint8)((CY_GET_XTND_REG8((void *)CYREG_UDB_UD
 287              		.loc 1 428 0
 288 00d8 1948     		ldr	r0, .L13+44
 289 00da 0278     		ldrb	r2, [r0]
 290 00dc 3C21     		mov	r1, #60
 291 00de 8A43     		bic	r2, r1
 292 00e0 2839     		sub	r1, r1, #40
 293 00e2 0A43     		orr	r2, r1
 294 00e4 0270     		strb	r2, [r0]
 429:.\Generated_Source\PSoC4/cyfitter_cfg.c **** 		CY_SET_XTND_REG8((void *)CYREG_UDB_UDBIF_BANK_CTL, (uint8)(CY_GET_XTND_REG8((void *)CYREG_UDB_UDB
 295              		.loc 1 429 0
 296 00e6 1978     		ldrb	r1, [r3]
 297 00e8 1622     		mov	r2, #22
 298 00ea 0A43     		orr	r2, r1
 299 00ec 1A70     		strb	r2, [r3]
 300              	.LBE3:
 430:.\Generated_Source\PSoC4/cyfitter_cfg.c **** 	}
 431:.\Generated_Source\PSoC4/cyfitter_cfg.c **** 
 432:.\Generated_Source\PSoC4/cyfitter_cfg.c **** 	/* Perform second pass device configuration. These items must be configured in specific order afte
 433:.\Generated_Source\PSoC4/cyfitter_cfg.c **** 	/* IOPINS0_1 Starting address: CYDEV_PRT1_BASE */
ARM GAS  C:\Users\744\AppData\Local\Temp\cckezfec.s 			page 14


 434:.\Generated_Source\PSoC4/cyfitter_cfg.c **** 	CY_SET_XTND_REG32((void CYFAR *)(CYDEV_PRT1_BASE), 0x0000001Eu);
 301              		.loc 1 434 0
 302 00ee 1E22     		mov	r2, #30
 303 00f0 144B     		ldr	r3, .L13+48
 304 00f2 1A60     		str	r2, [r3]
 435:.\Generated_Source\PSoC4/cyfitter_cfg.c **** 	CY_SET_XTND_REG32((void CYFAR *)(CYREG_PRT1_PC), 0x00002490u);
 305              		.loc 1 435 0
 306 00f4 144A     		ldr	r2, .L13+52
 307 00f6 154B     		ldr	r3, .L13+56
 308 00f8 1A60     		str	r2, [r3]
 436:.\Generated_Source\PSoC4/cyfitter_cfg.c **** 
 437:.\Generated_Source\PSoC4/cyfitter_cfg.c **** 	/* IOPINS0_2 Starting address: CYDEV_PRT2_BASE */
 438:.\Generated_Source\PSoC4/cyfitter_cfg.c **** 	CY_SET_XTND_REG32((void CYFAR *)(CYREG_PRT2_PC), 0x001B6DB6u);
 309              		.loc 1 438 0
 310 00fa 154A     		ldr	r2, .L13+60
 311 00fc 154B     		ldr	r3, .L13+64
 312 00fe 1A60     		str	r2, [r3]
 439:.\Generated_Source\PSoC4/cyfitter_cfg.c **** 
 440:.\Generated_Source\PSoC4/cyfitter_cfg.c **** 	/* IOPINS0_3 Starting address: CYDEV_PRT3_BASE */
 441:.\Generated_Source\PSoC4/cyfitter_cfg.c **** 	CY_SET_XTND_REG32((void CYFAR *)(CYDEV_PRT3_BASE), 0x000000F0u);
 313              		.loc 1 441 0
 314 0100 F022     		mov	r2, #240
 315 0102 154B     		ldr	r3, .L13+68
 316 0104 1A60     		str	r2, [r3]
 442:.\Generated_Source\PSoC4/cyfitter_cfg.c **** 	CY_SET_XTND_REG32((void CYFAR *)(CYREG_PRT3_PC), 0x00492D80u);
 317              		.loc 1 442 0
 318 0106 154A     		ldr	r2, .L13+72
 319 0108 154B     		ldr	r3, .L13+76
 320 010a 1A60     		str	r2, [r3]
 443:.\Generated_Source\PSoC4/cyfitter_cfg.c **** 
 444:.\Generated_Source\PSoC4/cyfitter_cfg.c **** 	/* Setup clocks based on selections from Clock DWR */
 445:.\Generated_Source\PSoC4/cyfitter_cfg.c **** 	ClockSetup();
 321              		.loc 1 445 0
 322 010c FFF778FF 		bl	ClockSetup
 323              	.LVL24:
 446:.\Generated_Source\PSoC4/cyfitter_cfg.c **** 
 447:.\Generated_Source\PSoC4/cyfitter_cfg.c **** 	/* Perform basic analog initialization to defaults */
 448:.\Generated_Source\PSoC4/cyfitter_cfg.c **** 	AnalogSetDefault();
 449:.\Generated_Source\PSoC4/cyfitter_cfg.c **** 
 450:.\Generated_Source\PSoC4/cyfitter_cfg.c **** }
 324              		.loc 1 450 0
 325              		@ sp needed
 326              	.LVL25:
 327 0110 10BD     		pop	{r4, pc}
 328              	.L14:
 329 0112 C046     		.align	2
 330              	.L13:
 331 0114 1C700F40 		.word	1074753564
 332 0118 00000000 		.word	.LANCHOR0
 333 011c 0C000140 		.word	1073807372
 334 0120 10500F40 		.word	1074745360
 335 0124 14500F40 		.word	1074745364
 336 0128 20500F40 		.word	1074745376
 337 012c 30500F40 		.word	1074745392
 338 0130 34500F40 		.word	1074745396
 339 0134 20000040 		.word	1073741856
 340 0138 00800F40 		.word	1074757632
ARM GAS  C:\Users\744\AppData\Local\Temp\cckezfec.s 			page 15


 341 013c 00700F40 		.word	1074753536
 342 0140 01700F40 		.word	1074753537
 343 0144 00010440 		.word	1074004224
 344 0148 90240000 		.word	9360
 345 014c 08010440 		.word	1074004232
 346 0150 B66D1B00 		.word	1797558
 347 0154 08020440 		.word	1074004488
 348 0158 00030440 		.word	1074004736
 349 015c 802D4900 		.word	4795776
 350 0160 08030440 		.word	1074004744
 351              		.cfi_endproc
 352              	.LFE6:
 353              		.size	cyfitter_cfg, .-cyfitter_cfg
 354              		.section	.rodata
 355              		.align	2
 356              		.set	.LANCHOR0,. + 0
 357              		.type	cfg_memset_list.4737, %object
 358              		.size	cfg_memset_list.4737, 12
 359              	cfg_memset_list.4737:
 360 0000 00300F40 		.word	1074737152
 361 0004 0004     		.short	1024
 362 0006 00400F40 		.4byte	1074741248
 363 000a 0004     		.short	1024
 364              		.type	cy_cfg_addr_table.4731, %object
 365              		.size	cy_cfg_addr_table.4731, 32
 366              	cy_cfg_addr_table.4731:
 367 000c 01000F40 		.word	1074724865
 368 0010 28300F40 		.word	1074737192
 369 0014 08310F40 		.word	1074737416
 370 0018 20320F40 		.word	1074737696
 371 001c 13330F40 		.word	1074737939
 372 0020 02400F40 		.word	1074741250
 373 0024 03410F40 		.word	1074741507
 374 0028 02600F40 		.word	1074749442
 375              		.type	cy_cfg_data_table.4732, %object
 376              		.size	cy_cfg_data_table.4732, 214
 377              	cy_cfg_data_table.4732:
 378 002c 82       		.byte	-126
 379 002d 0D       		.byte	13
 380 002e 40       		.byte	64
 381 002f 51       		.byte	81
 382 0030 49       		.byte	73
 383 0031 FF       		.byte	-1
 384 0032 4A       		.byte	74
 385 0033 FF       		.byte	-1
 386 0034 4B       		.byte	75
 387 0035 FF       		.byte	-1
 388 0036 4F       		.byte	79
 389 0037 01       		.byte	1
 390 0038 50       		.byte	80
 391 0039 18       		.byte	24
 392 003a 5A       		.byte	90
 393 003b 04       		.byte	4
 394 003c 5D       		.byte	93
 395 003d 09       		.byte	9
 396 003e 5F       		.byte	95
 397 003f 01       		.byte	1
ARM GAS  C:\Users\744\AppData\Local\Temp\cckezfec.s 			page 16


 398 0040 60       		.byte	96
 399 0041 40       		.byte	64
 400 0042 62       		.byte	98
 401 0043 40       		.byte	64
 402 0044 64       		.byte	100
 403 0045 40       		.byte	64
 404 0046 65       		.byte	101
 405 0047 40       		.byte	64
 406 0048 66       		.byte	102
 407 0049 80       		.byte	-128
 408 004a 68       		.byte	104
 409 004b 80       		.byte	-128
 410 004c 6A       		.byte	106
 411 004d 80       		.byte	-128
 412 004e 6C       		.byte	108
 413 004f 80       		.byte	-128
 414 0050 6E       		.byte	110
 415 0051 80       		.byte	-128
 416 0052 C0       		.byte	-64
 417 0053 41       		.byte	65
 418 0054 C9       		.byte	-55
 419 0055 FF       		.byte	-1
 420 0056 CA       		.byte	-54
 421 0057 FF       		.byte	-1
 422 0058 CB       		.byte	-53
 423 0059 FF       		.byte	-1
 424 005a CD       		.byte	-51
 425 005b 83       		.byte	-125
 426 005c CE       		.byte	-50
 427 005d 03       		.byte	3
 428 005e CF       		.byte	-49
 429 005f 01       		.byte	1
 430 0060 D0       		.byte	-48
 431 0061 18       		.byte	24
 432 0062 D2       		.byte	-46
 433 0063 80       		.byte	-128
 434 0064 DA       		.byte	-38
 435 0065 04       		.byte	4
 436 0066 DB       		.byte	-37
 437 0067 04       		.byte	4
 438 0068 DD       		.byte	-35
 439 0069 99       		.byte	-103
 440 006a DF       		.byte	-33
 441 006b 01       		.byte	1
 442 006c E0       		.byte	-32
 443 006d 40       		.byte	64
 444 006e E2       		.byte	-30
 445 006f 40       		.byte	64
 446 0070 E4       		.byte	-28
 447 0071 40       		.byte	64
 448 0072 E5       		.byte	-27
 449 0073 40       		.byte	64
 450 0074 E6       		.byte	-26
 451 0075 80       		.byte	-128
 452 0076 E8       		.byte	-24
 453 0077 80       		.byte	-128
 454 0078 EA       		.byte	-22
ARM GAS  C:\Users\744\AppData\Local\Temp\cckezfec.s 			page 17


 455 0079 80       		.byte	-128
 456 007a EC       		.byte	-20
 457 007b 80       		.byte	-128
 458 007c EE       		.byte	-18
 459 007d 80       		.byte	-128
 460 007e 42       		.byte	66
 461 007f 02       		.byte	2
 462 0080 46       		.byte	70
 463 0081 82       		.byte	-126
 464 0082 48       		.byte	72
 465 0083 01       		.byte	1
 466 0084 74       		.byte	116
 467 0085 01       		.byte	1
 468 0086 76       		.byte	118
 469 0087 80       		.byte	-128
 470 0088 77       		.byte	119
 471 0089 80       		.byte	-128
 472 008a D0       		.byte	-48
 473 008b 98       		.byte	-104
 474 008c D2       		.byte	-46
 475 008d 08       		.byte	8
 476 008e 0E       		.byte	14
 477 008f 01       		.byte	1
 478 0090 2E       		.byte	46
 479 0091 01       		.byte	1
 480 0092 30       		.byte	48
 481 0093 01       		.byte	1
 482 0094 36       		.byte	54
 483 0095 01       		.byte	1
 484 0096 3E       		.byte	62
 485 0097 01       		.byte	1
 486 0098 40       		.byte	64
 487 0099 41       		.byte	65
 488 009a 45       		.byte	69
 489 009b EC       		.byte	-20
 490 009c 47       		.byte	71
 491 009d 20       		.byte	32
 492 009e 48       		.byte	72
 493 009f 23       		.byte	35
 494 00a0 49       		.byte	73
 495 00a1 FF       		.byte	-1
 496 00a2 4A       		.byte	74
 497 00a3 FF       		.byte	-1
 498 00a4 4B       		.byte	75
 499 00a5 FF       		.byte	-1
 500 00a6 4D       		.byte	77
 501 00a7 83       		.byte	-125
 502 00a8 4E       		.byte	78
 503 00a9 03       		.byte	3
 504 00aa 4F       		.byte	79
 505 00ab 01       		.byte	1
 506 00ac 50       		.byte	80
 507 00ad 18       		.byte	24
 508 00ae 54       		.byte	84
 509 00af 01       		.byte	1
 510 00b0 58       		.byte	88
 511 00b1 04       		.byte	4
ARM GAS  C:\Users\744\AppData\Local\Temp\cckezfec.s 			page 18


 512 00b2 5A       		.byte	90
 513 00b3 04       		.byte	4
 514 00b4 5B       		.byte	91
 515 00b5 04       		.byte	4
 516 00b6 5C       		.byte	92
 517 00b7 09       		.byte	9
 518 00b8 5D       		.byte	93
 519 00b9 99       		.byte	-103
 520 00ba 5F       		.byte	95
 521 00bb 01       		.byte	1
 522 00bc 60       		.byte	96
 523 00bd 40       		.byte	64
 524 00be 62       		.byte	98
 525 00bf 40       		.byte	64
 526 00c0 64       		.byte	100
 527 00c1 40       		.byte	64
 528 00c2 65       		.byte	101
 529 00c3 40       		.byte	64
 530 00c4 66       		.byte	102
 531 00c5 80       		.byte	-128
 532 00c6 68       		.byte	104
 533 00c7 80       		.byte	-128
 534 00c8 6A       		.byte	106
 535 00c9 80       		.byte	-128
 536 00ca 6C       		.byte	108
 537 00cb 80       		.byte	-128
 538 00cc 6E       		.byte	110
 539 00cd 80       		.byte	-128
 540 00ce 06       		.byte	6
 541 00cf 02       		.byte	2
 542 00d0 17       		.byte	23
 543 00d1 80       		.byte	-128
 544 00d2 1E       		.byte	30
 545 00d3 80       		.byte	-128
 546 00d4 1F       		.byte	31
 547 00d5 80       		.byte	-128
 548 00d6 46       		.byte	70
 549 00d7 82       		.byte	-126
 550 00d8 4D       		.byte	77
 551 00d9 04       		.byte	4
 552 00da 4F       		.byte	79
 553 00db 01       		.byte	1
 554 00dc 56       		.byte	86
 555 00dd 02       		.byte	2
 556 00de 5D       		.byte	93
 557 00df 04       		.byte	4
 558 00e0 5E       		.byte	94
 559 00e1 80       		.byte	-128
 560 00e2 5F       		.byte	95
 561 00e3 01       		.byte	1
 562 00e4 87       		.byte	-121
 563 00e5 80       		.byte	-128
 564 00e6 9A       		.byte	-102
 565 00e7 80       		.byte	-128
 566 00e8 9B       		.byte	-101
 567 00e9 80       		.byte	-128
 568 00ea 9E       		.byte	-98
ARM GAS  C:\Users\744\AppData\Local\Temp\cckezfec.s 			page 19


 569 00eb 02       		.byte	2
 570 00ec C0       		.byte	-64
 571 00ed 80       		.byte	-128
 572 00ee C4       		.byte	-60
 573 00ef 80       		.byte	-128
 574 00f0 D0       		.byte	-48
 575 00f1 90       		.byte	-112
 576 00f2 D6       		.byte	-42
 577 00f3 D0       		.byte	-48
 578 00f4 6F       		.byte	111
 579 00f5 20       		.byte	32
 580 00f6 DA       		.byte	-38
 581 00f7 80       		.byte	-128
 582 00f8 87       		.byte	-121
 583 00f9 20       		.byte	32
 584 00fa A7       		.byte	-89
 585 00fb 20       		.byte	32
 586 00fc E6       		.byte	-26
 587 00fd 10       		.byte	16
 588 00fe 02       		.byte	2
 589 00ff 01       		.byte	1
 590 0100 11       		.byte	17
 591 0101 01       		.byte	1
 592 0102 0000     		.text
 593              	.Letext0:
 594              		.file 2 "c:\\program files (x86)\\cypress\\psoc creator\\3.3\\psoc creator\\import\\gnu\\arm\\4.9.
 595              		.file 3 ".\\Generated_Source\\PSoC4\\cytypes.h"
 596              		.file 4 ".\\Generated_Source\\PSoC4\\CyLib.h"