ARM GAS  C:\Users\744\AppData\Local\Temp\cc8e7qOt.s 			page 1


   1              		.cpu cortex-m0
   2              		.fpu softvfp
   3              		.eabi_attribute 20, 1
   4              		.eabi_attribute 21, 1
   5              		.eabi_attribute 23, 3
   6              		.eabi_attribute 24, 1
   7              		.eabi_attribute 25, 1
   8              		.eabi_attribute 26, 1
   9              		.eabi_attribute 30, 1
  10              		.eabi_attribute 34, 0
  11              		.eabi_attribute 18, 4
  12              		.code	16
  13              		.file	"Debounce_Timer.c"
  14              		.text
  15              	.Ltext0:
  16              		.cfi_sections	.debug_frame
  17              		.section	.text.Debounce_Timer_Enable,"ax",%progbits
  18              		.align	2
  19              		.global	Debounce_Timer_Enable
  20              		.code	16
  21              		.thumb_func
  22              		.type	Debounce_Timer_Enable, %function
  23              	Debounce_Timer_Enable:
  24              	.LFB1:
  25              		.file 1 ".\\Generated_Source\\PSoC4\\Debounce_Timer.c"
   1:.\Generated_Source\PSoC4/Debounce_Timer.c **** /*******************************************************************************
   2:.\Generated_Source\PSoC4/Debounce_Timer.c **** * File Name: Debounce_Timer.c
   3:.\Generated_Source\PSoC4/Debounce_Timer.c **** * Version 2.70
   4:.\Generated_Source\PSoC4/Debounce_Timer.c **** *
   5:.\Generated_Source\PSoC4/Debounce_Timer.c **** * Description:
   6:.\Generated_Source\PSoC4/Debounce_Timer.c **** *  The Timer component consists of a 8, 16, 24 or 32-bit timer with
   7:.\Generated_Source\PSoC4/Debounce_Timer.c **** *  a selectable period between 2 and 2^Width - 1.  The timer may free run
   8:.\Generated_Source\PSoC4/Debounce_Timer.c **** *  or be used as a capture timer as well.  The capture can be initiated
   9:.\Generated_Source\PSoC4/Debounce_Timer.c **** *  by a positive or negative edge signal as well as via software.
  10:.\Generated_Source\PSoC4/Debounce_Timer.c **** *  A trigger input can be programmed to enable the timer on rising edge
  11:.\Generated_Source\PSoC4/Debounce_Timer.c **** *  falling edge, either edge or continous run.
  12:.\Generated_Source\PSoC4/Debounce_Timer.c **** *  Interrupts may be generated due to a terminal count condition
  13:.\Generated_Source\PSoC4/Debounce_Timer.c **** *  or a capture event.
  14:.\Generated_Source\PSoC4/Debounce_Timer.c **** *
  15:.\Generated_Source\PSoC4/Debounce_Timer.c **** * Note:
  16:.\Generated_Source\PSoC4/Debounce_Timer.c **** *
  17:.\Generated_Source\PSoC4/Debounce_Timer.c **** ********************************************************************************
  18:.\Generated_Source\PSoC4/Debounce_Timer.c **** * Copyright 2008-2014, Cypress Semiconductor Corporation.  All rights reserved.
  19:.\Generated_Source\PSoC4/Debounce_Timer.c **** * You may use this file only in accordance with the license, terms, conditions,
  20:.\Generated_Source\PSoC4/Debounce_Timer.c **** * disclaimers, and limitations in the end user license agreement accompanying
  21:.\Generated_Source\PSoC4/Debounce_Timer.c **** * the software package with which this file was provided.
  22:.\Generated_Source\PSoC4/Debounce_Timer.c **** ********************************************************************************/
  23:.\Generated_Source\PSoC4/Debounce_Timer.c **** 
  24:.\Generated_Source\PSoC4/Debounce_Timer.c **** #include "Debounce_Timer.h"
  25:.\Generated_Source\PSoC4/Debounce_Timer.c **** 
  26:.\Generated_Source\PSoC4/Debounce_Timer.c **** uint8 Debounce_Timer_initVar = 0u;
  27:.\Generated_Source\PSoC4/Debounce_Timer.c **** 
  28:.\Generated_Source\PSoC4/Debounce_Timer.c **** 
  29:.\Generated_Source\PSoC4/Debounce_Timer.c **** /*******************************************************************************
  30:.\Generated_Source\PSoC4/Debounce_Timer.c **** * Function Name: Debounce_Timer_Init
  31:.\Generated_Source\PSoC4/Debounce_Timer.c **** ********************************************************************************
  32:.\Generated_Source\PSoC4/Debounce_Timer.c **** *
ARM GAS  C:\Users\744\AppData\Local\Temp\cc8e7qOt.s 			page 2


  33:.\Generated_Source\PSoC4/Debounce_Timer.c **** * Summary:
  34:.\Generated_Source\PSoC4/Debounce_Timer.c **** *  Initialize to the schematic state
  35:.\Generated_Source\PSoC4/Debounce_Timer.c **** *
  36:.\Generated_Source\PSoC4/Debounce_Timer.c **** * Parameters:
  37:.\Generated_Source\PSoC4/Debounce_Timer.c **** *  void
  38:.\Generated_Source\PSoC4/Debounce_Timer.c **** *
  39:.\Generated_Source\PSoC4/Debounce_Timer.c **** * Return:
  40:.\Generated_Source\PSoC4/Debounce_Timer.c **** *  void
  41:.\Generated_Source\PSoC4/Debounce_Timer.c **** *
  42:.\Generated_Source\PSoC4/Debounce_Timer.c **** *******************************************************************************/
  43:.\Generated_Source\PSoC4/Debounce_Timer.c **** void Debounce_Timer_Init(void) 
  44:.\Generated_Source\PSoC4/Debounce_Timer.c **** {
  45:.\Generated_Source\PSoC4/Debounce_Timer.c ****     #if(!Debounce_Timer_UsingFixedFunction)
  46:.\Generated_Source\PSoC4/Debounce_Timer.c ****             /* Interrupt State Backup for Critical Region*/
  47:.\Generated_Source\PSoC4/Debounce_Timer.c ****             uint8 Debounce_Timer_interruptState;
  48:.\Generated_Source\PSoC4/Debounce_Timer.c ****     #endif /* Interrupt state back up for Fixed Function only */
  49:.\Generated_Source\PSoC4/Debounce_Timer.c **** 
  50:.\Generated_Source\PSoC4/Debounce_Timer.c ****     #if (Debounce_Timer_UsingFixedFunction)
  51:.\Generated_Source\PSoC4/Debounce_Timer.c ****         /* Clear all bits but the enable bit (if it's already set) for Timer operation */
  52:.\Generated_Source\PSoC4/Debounce_Timer.c ****         Debounce_Timer_CONTROL &= Debounce_Timer_CTRL_ENABLE;
  53:.\Generated_Source\PSoC4/Debounce_Timer.c **** 
  54:.\Generated_Source\PSoC4/Debounce_Timer.c ****         /* Clear the mode bits for continuous run mode */
  55:.\Generated_Source\PSoC4/Debounce_Timer.c ****         #if (CY_PSOC5A)
  56:.\Generated_Source\PSoC4/Debounce_Timer.c ****             Debounce_Timer_CONTROL2 &= ((uint8)(~Debounce_Timer_CTRL_MODE_MASK));
  57:.\Generated_Source\PSoC4/Debounce_Timer.c ****         #endif /* Clear bits in CONTROL2 only in PSOC5A */
  58:.\Generated_Source\PSoC4/Debounce_Timer.c **** 
  59:.\Generated_Source\PSoC4/Debounce_Timer.c ****         #if (CY_PSOC3 || CY_PSOC5LP)
  60:.\Generated_Source\PSoC4/Debounce_Timer.c ****             Debounce_Timer_CONTROL3 &= ((uint8)(~Debounce_Timer_CTRL_MODE_MASK));
  61:.\Generated_Source\PSoC4/Debounce_Timer.c ****         #endif /* CONTROL3 register exists only in PSoC3 OR PSoC5LP */
  62:.\Generated_Source\PSoC4/Debounce_Timer.c **** 
  63:.\Generated_Source\PSoC4/Debounce_Timer.c ****         /* Check if One Shot mode is enabled i.e. RunMode !=0*/
  64:.\Generated_Source\PSoC4/Debounce_Timer.c ****         #if (Debounce_Timer_RunModeUsed != 0x0u)
  65:.\Generated_Source\PSoC4/Debounce_Timer.c ****             /* Set 3rd bit of Control register to enable one shot mode */
  66:.\Generated_Source\PSoC4/Debounce_Timer.c ****             Debounce_Timer_CONTROL |= 0x04u;
  67:.\Generated_Source\PSoC4/Debounce_Timer.c ****         #endif /* One Shot enabled only when RunModeUsed is not Continuous*/
  68:.\Generated_Source\PSoC4/Debounce_Timer.c **** 
  69:.\Generated_Source\PSoC4/Debounce_Timer.c ****         #if (Debounce_Timer_RunModeUsed == 2)
  70:.\Generated_Source\PSoC4/Debounce_Timer.c ****             #if (CY_PSOC5A)
  71:.\Generated_Source\PSoC4/Debounce_Timer.c ****                 /* Set last 2 bits of control2 register if one shot(halt on
  72:.\Generated_Source\PSoC4/Debounce_Timer.c ****                 interrupt) is enabled*/
  73:.\Generated_Source\PSoC4/Debounce_Timer.c ****                 Debounce_Timer_CONTROL2 |= 0x03u;
  74:.\Generated_Source\PSoC4/Debounce_Timer.c ****             #endif /* Set One-Shot Halt on Interrupt bit in CONTROL2 for PSoC5A */
  75:.\Generated_Source\PSoC4/Debounce_Timer.c **** 
  76:.\Generated_Source\PSoC4/Debounce_Timer.c ****             #if (CY_PSOC3 || CY_PSOC5LP)
  77:.\Generated_Source\PSoC4/Debounce_Timer.c ****                 /* Set last 2 bits of control3 register if one shot(halt on
  78:.\Generated_Source\PSoC4/Debounce_Timer.c ****                 interrupt) is enabled*/
  79:.\Generated_Source\PSoC4/Debounce_Timer.c ****                 Debounce_Timer_CONTROL3 |= 0x03u;
  80:.\Generated_Source\PSoC4/Debounce_Timer.c ****             #endif /* Set One-Shot Halt on Interrupt bit in CONTROL3 for PSoC3 or PSoC5LP */
  81:.\Generated_Source\PSoC4/Debounce_Timer.c **** 
  82:.\Generated_Source\PSoC4/Debounce_Timer.c ****         #endif /* Remove section if One Shot Halt on Interrupt is not enabled */
  83:.\Generated_Source\PSoC4/Debounce_Timer.c **** 
  84:.\Generated_Source\PSoC4/Debounce_Timer.c ****         #if (Debounce_Timer_UsingHWEnable != 0)
  85:.\Generated_Source\PSoC4/Debounce_Timer.c ****             #if (CY_PSOC5A)
  86:.\Generated_Source\PSoC4/Debounce_Timer.c ****                 /* Set the default Run Mode of the Timer to Continuous */
  87:.\Generated_Source\PSoC4/Debounce_Timer.c ****                 Debounce_Timer_CONTROL2 |= Debounce_Timer_CTRL_MODE_PULSEWIDTH;
  88:.\Generated_Source\PSoC4/Debounce_Timer.c ****             #endif /* Set Continuous Run Mode in CONTROL2 for PSoC5A */
  89:.\Generated_Source\PSoC4/Debounce_Timer.c **** 
ARM GAS  C:\Users\744\AppData\Local\Temp\cc8e7qOt.s 			page 3


  90:.\Generated_Source\PSoC4/Debounce_Timer.c ****             #if (CY_PSOC3 || CY_PSOC5LP)
  91:.\Generated_Source\PSoC4/Debounce_Timer.c ****                 /* Clear and Set ROD and COD bits of CFG2 register */
  92:.\Generated_Source\PSoC4/Debounce_Timer.c ****                 Debounce_Timer_CONTROL3 &= ((uint8)(~Debounce_Timer_CTRL_RCOD_MASK));
  93:.\Generated_Source\PSoC4/Debounce_Timer.c ****                 Debounce_Timer_CONTROL3 |= Debounce_Timer_CTRL_RCOD;
  94:.\Generated_Source\PSoC4/Debounce_Timer.c **** 
  95:.\Generated_Source\PSoC4/Debounce_Timer.c ****                 /* Clear and Enable the HW enable bit in CFG2 register */
  96:.\Generated_Source\PSoC4/Debounce_Timer.c ****                 Debounce_Timer_CONTROL3 &= ((uint8)(~Debounce_Timer_CTRL_ENBL_MASK));
  97:.\Generated_Source\PSoC4/Debounce_Timer.c ****                 Debounce_Timer_CONTROL3 |= Debounce_Timer_CTRL_ENBL;
  98:.\Generated_Source\PSoC4/Debounce_Timer.c **** 
  99:.\Generated_Source\PSoC4/Debounce_Timer.c ****                 /* Set the default Run Mode of the Timer to Continuous */
 100:.\Generated_Source\PSoC4/Debounce_Timer.c ****                 Debounce_Timer_CONTROL3 |= Debounce_Timer_CTRL_MODE_CONTINUOUS;
 101:.\Generated_Source\PSoC4/Debounce_Timer.c ****             #endif /* Set Continuous Run Mode in CONTROL3 for PSoC3ES3 or PSoC5A */
 102:.\Generated_Source\PSoC4/Debounce_Timer.c **** 
 103:.\Generated_Source\PSoC4/Debounce_Timer.c ****         #endif /* Configure Run Mode with hardware enable */
 104:.\Generated_Source\PSoC4/Debounce_Timer.c **** 
 105:.\Generated_Source\PSoC4/Debounce_Timer.c ****         /* Clear and Set SYNCTC and SYNCCMP bits of RT1 register */
 106:.\Generated_Source\PSoC4/Debounce_Timer.c ****         Debounce_Timer_RT1 &= ((uint8)(~Debounce_Timer_RT1_MASK));
 107:.\Generated_Source\PSoC4/Debounce_Timer.c ****         Debounce_Timer_RT1 |= Debounce_Timer_SYNC;
 108:.\Generated_Source\PSoC4/Debounce_Timer.c **** 
 109:.\Generated_Source\PSoC4/Debounce_Timer.c ****         /*Enable DSI Sync all all inputs of the Timer*/
 110:.\Generated_Source\PSoC4/Debounce_Timer.c ****         Debounce_Timer_RT1 &= ((uint8)(~Debounce_Timer_SYNCDSI_MASK));
 111:.\Generated_Source\PSoC4/Debounce_Timer.c ****         Debounce_Timer_RT1 |= Debounce_Timer_SYNCDSI_EN;
 112:.\Generated_Source\PSoC4/Debounce_Timer.c **** 
 113:.\Generated_Source\PSoC4/Debounce_Timer.c ****         /* Set the IRQ to use the status register interrupts */
 114:.\Generated_Source\PSoC4/Debounce_Timer.c ****         Debounce_Timer_CONTROL2 |= Debounce_Timer_CTRL2_IRQ_SEL;
 115:.\Generated_Source\PSoC4/Debounce_Timer.c ****     #endif /* Configuring registers of fixed function implementation */
 116:.\Generated_Source\PSoC4/Debounce_Timer.c **** 
 117:.\Generated_Source\PSoC4/Debounce_Timer.c ****     /* Set Initial values from Configuration */
 118:.\Generated_Source\PSoC4/Debounce_Timer.c ****     Debounce_Timer_WritePeriod(Debounce_Timer_INIT_PERIOD);
 119:.\Generated_Source\PSoC4/Debounce_Timer.c ****     Debounce_Timer_WriteCounter(Debounce_Timer_INIT_PERIOD);
 120:.\Generated_Source\PSoC4/Debounce_Timer.c **** 
 121:.\Generated_Source\PSoC4/Debounce_Timer.c ****     #if (Debounce_Timer_UsingHWCaptureCounter)/* Capture counter is enabled */
 122:.\Generated_Source\PSoC4/Debounce_Timer.c ****         Debounce_Timer_CAPTURE_COUNT_CTRL |= Debounce_Timer_CNTR_ENABLE;
 123:.\Generated_Source\PSoC4/Debounce_Timer.c ****         Debounce_Timer_SetCaptureCount(Debounce_Timer_INIT_CAPTURE_COUNT);
 124:.\Generated_Source\PSoC4/Debounce_Timer.c ****     #endif /* Configure capture counter value */
 125:.\Generated_Source\PSoC4/Debounce_Timer.c **** 
 126:.\Generated_Source\PSoC4/Debounce_Timer.c ****     #if (!Debounce_Timer_UsingFixedFunction)
 127:.\Generated_Source\PSoC4/Debounce_Timer.c ****         #if (Debounce_Timer_SoftwareCaptureMode)
 128:.\Generated_Source\PSoC4/Debounce_Timer.c ****             Debounce_Timer_SetCaptureMode(Debounce_Timer_INIT_CAPTURE_MODE);
 129:.\Generated_Source\PSoC4/Debounce_Timer.c ****         #endif /* Set Capture Mode for UDB implementation if capture mode is software controlled */
 130:.\Generated_Source\PSoC4/Debounce_Timer.c **** 
 131:.\Generated_Source\PSoC4/Debounce_Timer.c ****         #if (Debounce_Timer_SoftwareTriggerMode)
 132:.\Generated_Source\PSoC4/Debounce_Timer.c ****             #if (!Debounce_Timer_UDB_CONTROL_REG_REMOVED)
 133:.\Generated_Source\PSoC4/Debounce_Timer.c ****                 if (0u == (Debounce_Timer_CONTROL & Debounce_Timer__B_TIMER__TM_SOFTWARE))
 134:.\Generated_Source\PSoC4/Debounce_Timer.c ****                 {
 135:.\Generated_Source\PSoC4/Debounce_Timer.c ****                     Debounce_Timer_SetTriggerMode(Debounce_Timer_INIT_TRIGGER_MODE);
 136:.\Generated_Source\PSoC4/Debounce_Timer.c ****                 }
 137:.\Generated_Source\PSoC4/Debounce_Timer.c ****             #endif /* (!Debounce_Timer_UDB_CONTROL_REG_REMOVED) */
 138:.\Generated_Source\PSoC4/Debounce_Timer.c ****         #endif /* Set trigger mode for UDB Implementation if trigger mode is software controlled */
 139:.\Generated_Source\PSoC4/Debounce_Timer.c **** 
 140:.\Generated_Source\PSoC4/Debounce_Timer.c ****         /* CyEnterCriticalRegion and CyExitCriticalRegion are used to mark following region critica
 141:.\Generated_Source\PSoC4/Debounce_Timer.c ****         /* Enter Critical Region*/
 142:.\Generated_Source\PSoC4/Debounce_Timer.c ****         Debounce_Timer_interruptState = CyEnterCriticalSection();
 143:.\Generated_Source\PSoC4/Debounce_Timer.c **** 
 144:.\Generated_Source\PSoC4/Debounce_Timer.c ****         /* Use the interrupt output of the status register for IRQ output */
 145:.\Generated_Source\PSoC4/Debounce_Timer.c ****         Debounce_Timer_STATUS_AUX_CTRL |= Debounce_Timer_STATUS_ACTL_INT_EN_MASK;
 146:.\Generated_Source\PSoC4/Debounce_Timer.c **** 
ARM GAS  C:\Users\744\AppData\Local\Temp\cc8e7qOt.s 			page 4


 147:.\Generated_Source\PSoC4/Debounce_Timer.c ****         /* Exit Critical Region*/
 148:.\Generated_Source\PSoC4/Debounce_Timer.c ****         CyExitCriticalSection(Debounce_Timer_interruptState);
 149:.\Generated_Source\PSoC4/Debounce_Timer.c **** 
 150:.\Generated_Source\PSoC4/Debounce_Timer.c ****         #if (Debounce_Timer_EnableTriggerMode)
 151:.\Generated_Source\PSoC4/Debounce_Timer.c ****             Debounce_Timer_EnableTrigger();
 152:.\Generated_Source\PSoC4/Debounce_Timer.c ****         #endif /* Set Trigger enable bit for UDB implementation in the control register*/
 153:.\Generated_Source\PSoC4/Debounce_Timer.c **** 		
 154:.\Generated_Source\PSoC4/Debounce_Timer.c **** 		
 155:.\Generated_Source\PSoC4/Debounce_Timer.c ****         #if (Debounce_Timer_InterruptOnCaptureCount && !Debounce_Timer_UDB_CONTROL_REG_REMOVED)
 156:.\Generated_Source\PSoC4/Debounce_Timer.c ****             Debounce_Timer_SetInterruptCount(Debounce_Timer_INIT_INT_CAPTURE_COUNT);
 157:.\Generated_Source\PSoC4/Debounce_Timer.c ****         #endif /* Set interrupt count in UDB implementation if interrupt count feature is checked.*
 158:.\Generated_Source\PSoC4/Debounce_Timer.c **** 
 159:.\Generated_Source\PSoC4/Debounce_Timer.c ****         Debounce_Timer_ClearFIFO();
 160:.\Generated_Source\PSoC4/Debounce_Timer.c ****     #endif /* Configure additional features of UDB implementation */
 161:.\Generated_Source\PSoC4/Debounce_Timer.c **** 
 162:.\Generated_Source\PSoC4/Debounce_Timer.c ****     Debounce_Timer_SetInterruptMode(Debounce_Timer_INIT_INTERRUPT_MODE);
 163:.\Generated_Source\PSoC4/Debounce_Timer.c **** }
 164:.\Generated_Source\PSoC4/Debounce_Timer.c **** 
 165:.\Generated_Source\PSoC4/Debounce_Timer.c **** 
 166:.\Generated_Source\PSoC4/Debounce_Timer.c **** /*******************************************************************************
 167:.\Generated_Source\PSoC4/Debounce_Timer.c **** * Function Name: Debounce_Timer_Enable
 168:.\Generated_Source\PSoC4/Debounce_Timer.c **** ********************************************************************************
 169:.\Generated_Source\PSoC4/Debounce_Timer.c **** *
 170:.\Generated_Source\PSoC4/Debounce_Timer.c **** * Summary:
 171:.\Generated_Source\PSoC4/Debounce_Timer.c **** *  Enable the Timer
 172:.\Generated_Source\PSoC4/Debounce_Timer.c **** *
 173:.\Generated_Source\PSoC4/Debounce_Timer.c **** * Parameters:
 174:.\Generated_Source\PSoC4/Debounce_Timer.c **** *  void
 175:.\Generated_Source\PSoC4/Debounce_Timer.c **** *
 176:.\Generated_Source\PSoC4/Debounce_Timer.c **** * Return:
 177:.\Generated_Source\PSoC4/Debounce_Timer.c **** *  void
 178:.\Generated_Source\PSoC4/Debounce_Timer.c **** *
 179:.\Generated_Source\PSoC4/Debounce_Timer.c **** *******************************************************************************/
 180:.\Generated_Source\PSoC4/Debounce_Timer.c **** void Debounce_Timer_Enable(void) 
 181:.\Generated_Source\PSoC4/Debounce_Timer.c **** {
  26              		.loc 1 181 0
  27              		.cfi_startproc
 182:.\Generated_Source\PSoC4/Debounce_Timer.c ****     /* Globally Enable the Fixed Function Block chosen */
 183:.\Generated_Source\PSoC4/Debounce_Timer.c ****     #if (Debounce_Timer_UsingFixedFunction)
 184:.\Generated_Source\PSoC4/Debounce_Timer.c ****         Debounce_Timer_GLOBAL_ENABLE |= Debounce_Timer_BLOCK_EN_MASK;
 185:.\Generated_Source\PSoC4/Debounce_Timer.c ****         Debounce_Timer_GLOBAL_STBY_ENABLE |= Debounce_Timer_BLOCK_STBY_EN_MASK;
 186:.\Generated_Source\PSoC4/Debounce_Timer.c ****     #endif /* Set Enable bit for enabling Fixed function timer*/
 187:.\Generated_Source\PSoC4/Debounce_Timer.c **** 
 188:.\Generated_Source\PSoC4/Debounce_Timer.c ****     /* Remove assignment if control register is removed */
 189:.\Generated_Source\PSoC4/Debounce_Timer.c ****     #if (!Debounce_Timer_UDB_CONTROL_REG_REMOVED || Debounce_Timer_UsingFixedFunction)
 190:.\Generated_Source\PSoC4/Debounce_Timer.c ****         Debounce_Timer_CONTROL |= Debounce_Timer_CTRL_ENABLE;
  28              		.loc 1 190 0
  29 0000 024A     		ldr	r2, .L2
  30 0002 1178     		ldrb	r1, [r2]
  31 0004 8023     		mov	r3, #128
  32 0006 0B43     		orr	r3, r1
  33 0008 1370     		strb	r3, [r2]
 191:.\Generated_Source\PSoC4/Debounce_Timer.c ****     #endif /* Remove assignment if control register is removed */
 192:.\Generated_Source\PSoC4/Debounce_Timer.c **** }
  34              		.loc 1 192 0
  35              		@ sp needed
  36 000a 7047     		bx	lr
ARM GAS  C:\Users\744\AppData\Local\Temp\cc8e7qOt.s 			page 5


  37              	.L3:
  38              		.align	2
  39              	.L2:
  40 000c 71000F40 		.word	1074724977
  41              		.cfi_endproc
  42              	.LFE1:
  43              		.size	Debounce_Timer_Enable, .-Debounce_Timer_Enable
  44              		.section	.text.Debounce_Timer_Stop,"ax",%progbits
  45              		.align	2
  46              		.global	Debounce_Timer_Stop
  47              		.code	16
  48              		.thumb_func
  49              		.type	Debounce_Timer_Stop, %function
  50              	Debounce_Timer_Stop:
  51              	.LFB3:
 193:.\Generated_Source\PSoC4/Debounce_Timer.c **** 
 194:.\Generated_Source\PSoC4/Debounce_Timer.c **** 
 195:.\Generated_Source\PSoC4/Debounce_Timer.c **** /*******************************************************************************
 196:.\Generated_Source\PSoC4/Debounce_Timer.c **** * Function Name: Debounce_Timer_Start
 197:.\Generated_Source\PSoC4/Debounce_Timer.c **** ********************************************************************************
 198:.\Generated_Source\PSoC4/Debounce_Timer.c **** *
 199:.\Generated_Source\PSoC4/Debounce_Timer.c **** * Summary:
 200:.\Generated_Source\PSoC4/Debounce_Timer.c **** *  The start function initializes the timer with the default values, the
 201:.\Generated_Source\PSoC4/Debounce_Timer.c **** *  enables the timerto begin counting.  It does not enable interrupts,
 202:.\Generated_Source\PSoC4/Debounce_Timer.c **** *  the EnableInt command should be called if interrupt generation is required.
 203:.\Generated_Source\PSoC4/Debounce_Timer.c **** *
 204:.\Generated_Source\PSoC4/Debounce_Timer.c **** * Parameters:
 205:.\Generated_Source\PSoC4/Debounce_Timer.c **** *  void
 206:.\Generated_Source\PSoC4/Debounce_Timer.c **** *
 207:.\Generated_Source\PSoC4/Debounce_Timer.c **** * Return:
 208:.\Generated_Source\PSoC4/Debounce_Timer.c **** *  void
 209:.\Generated_Source\PSoC4/Debounce_Timer.c **** *
 210:.\Generated_Source\PSoC4/Debounce_Timer.c **** * Global variables:
 211:.\Generated_Source\PSoC4/Debounce_Timer.c **** *  Debounce_Timer_initVar: Is modified when this function is called for the
 212:.\Generated_Source\PSoC4/Debounce_Timer.c **** *   first time. Is used to ensure that initialization happens only once.
 213:.\Generated_Source\PSoC4/Debounce_Timer.c **** *
 214:.\Generated_Source\PSoC4/Debounce_Timer.c **** *******************************************************************************/
 215:.\Generated_Source\PSoC4/Debounce_Timer.c **** void Debounce_Timer_Start(void) 
 216:.\Generated_Source\PSoC4/Debounce_Timer.c **** {
 217:.\Generated_Source\PSoC4/Debounce_Timer.c ****     if(Debounce_Timer_initVar == 0u)
 218:.\Generated_Source\PSoC4/Debounce_Timer.c ****     {
 219:.\Generated_Source\PSoC4/Debounce_Timer.c ****         Debounce_Timer_Init();
 220:.\Generated_Source\PSoC4/Debounce_Timer.c **** 
 221:.\Generated_Source\PSoC4/Debounce_Timer.c ****         Debounce_Timer_initVar = 1u;   /* Clear this bit for Initialization */
 222:.\Generated_Source\PSoC4/Debounce_Timer.c ****     }
 223:.\Generated_Source\PSoC4/Debounce_Timer.c **** 
 224:.\Generated_Source\PSoC4/Debounce_Timer.c ****     /* Enable the Timer */
 225:.\Generated_Source\PSoC4/Debounce_Timer.c ****     Debounce_Timer_Enable();
 226:.\Generated_Source\PSoC4/Debounce_Timer.c **** }
 227:.\Generated_Source\PSoC4/Debounce_Timer.c **** 
 228:.\Generated_Source\PSoC4/Debounce_Timer.c **** 
 229:.\Generated_Source\PSoC4/Debounce_Timer.c **** /*******************************************************************************
 230:.\Generated_Source\PSoC4/Debounce_Timer.c **** * Function Name: Debounce_Timer_Stop
 231:.\Generated_Source\PSoC4/Debounce_Timer.c **** ********************************************************************************
 232:.\Generated_Source\PSoC4/Debounce_Timer.c **** *
 233:.\Generated_Source\PSoC4/Debounce_Timer.c **** * Summary:
 234:.\Generated_Source\PSoC4/Debounce_Timer.c **** *  The stop function halts the timer, but does not change any modes or disable
ARM GAS  C:\Users\744\AppData\Local\Temp\cc8e7qOt.s 			page 6


 235:.\Generated_Source\PSoC4/Debounce_Timer.c **** *  interrupts.
 236:.\Generated_Source\PSoC4/Debounce_Timer.c **** *
 237:.\Generated_Source\PSoC4/Debounce_Timer.c **** * Parameters:
 238:.\Generated_Source\PSoC4/Debounce_Timer.c **** *  void
 239:.\Generated_Source\PSoC4/Debounce_Timer.c **** *
 240:.\Generated_Source\PSoC4/Debounce_Timer.c **** * Return:
 241:.\Generated_Source\PSoC4/Debounce_Timer.c **** *  void
 242:.\Generated_Source\PSoC4/Debounce_Timer.c **** *
 243:.\Generated_Source\PSoC4/Debounce_Timer.c **** * Side Effects: If the Enable mode is set to Hardware only then this function
 244:.\Generated_Source\PSoC4/Debounce_Timer.c **** *               has no effect on the operation of the timer.
 245:.\Generated_Source\PSoC4/Debounce_Timer.c **** *
 246:.\Generated_Source\PSoC4/Debounce_Timer.c **** *******************************************************************************/
 247:.\Generated_Source\PSoC4/Debounce_Timer.c **** void Debounce_Timer_Stop(void) 
 248:.\Generated_Source\PSoC4/Debounce_Timer.c **** {
  52              		.loc 1 248 0
  53              		.cfi_startproc
 249:.\Generated_Source\PSoC4/Debounce_Timer.c ****     /* Disable Timer */
 250:.\Generated_Source\PSoC4/Debounce_Timer.c ****     #if(!Debounce_Timer_UDB_CONTROL_REG_REMOVED || Debounce_Timer_UsingFixedFunction)
 251:.\Generated_Source\PSoC4/Debounce_Timer.c ****         Debounce_Timer_CONTROL &= ((uint8)(~Debounce_Timer_CTRL_ENABLE));
  54              		.loc 1 251 0
  55 0000 024A     		ldr	r2, .L5
  56 0002 1178     		ldrb	r1, [r2]
  57 0004 7F23     		mov	r3, #127
  58 0006 0B40     		and	r3, r1
  59 0008 1370     		strb	r3, [r2]
 252:.\Generated_Source\PSoC4/Debounce_Timer.c ****     #endif /* Remove assignment if control register is removed */
 253:.\Generated_Source\PSoC4/Debounce_Timer.c **** 
 254:.\Generated_Source\PSoC4/Debounce_Timer.c ****     /* Globally disable the Fixed Function Block chosen */
 255:.\Generated_Source\PSoC4/Debounce_Timer.c ****     #if (Debounce_Timer_UsingFixedFunction)
 256:.\Generated_Source\PSoC4/Debounce_Timer.c ****         Debounce_Timer_GLOBAL_ENABLE &= ((uint8)(~Debounce_Timer_BLOCK_EN_MASK));
 257:.\Generated_Source\PSoC4/Debounce_Timer.c ****         Debounce_Timer_GLOBAL_STBY_ENABLE &= ((uint8)(~Debounce_Timer_BLOCK_STBY_EN_MASK));
 258:.\Generated_Source\PSoC4/Debounce_Timer.c ****     #endif /* Disable global enable for the Timer Fixed function block to stop the Timer*/
 259:.\Generated_Source\PSoC4/Debounce_Timer.c **** }
  60              		.loc 1 259 0
  61              		@ sp needed
  62 000a 7047     		bx	lr
  63              	.L6:
  64              		.align	2
  65              	.L5:
  66 000c 71000F40 		.word	1074724977
  67              		.cfi_endproc
  68              	.LFE3:
  69              		.size	Debounce_Timer_Stop, .-Debounce_Timer_Stop
  70              		.section	.text.Debounce_Timer_SetInterruptMode,"ax",%progbits
  71              		.align	2
  72              		.global	Debounce_Timer_SetInterruptMode
  73              		.code	16
  74              		.thumb_func
  75              		.type	Debounce_Timer_SetInterruptMode, %function
  76              	Debounce_Timer_SetInterruptMode:
  77              	.LFB4:
 260:.\Generated_Source\PSoC4/Debounce_Timer.c **** 
 261:.\Generated_Source\PSoC4/Debounce_Timer.c **** 
 262:.\Generated_Source\PSoC4/Debounce_Timer.c **** /*******************************************************************************
 263:.\Generated_Source\PSoC4/Debounce_Timer.c **** * Function Name: Debounce_Timer_SetInterruptMode
 264:.\Generated_Source\PSoC4/Debounce_Timer.c **** ********************************************************************************
 265:.\Generated_Source\PSoC4/Debounce_Timer.c **** *
ARM GAS  C:\Users\744\AppData\Local\Temp\cc8e7qOt.s 			page 7


 266:.\Generated_Source\PSoC4/Debounce_Timer.c **** * Summary:
 267:.\Generated_Source\PSoC4/Debounce_Timer.c **** *  This function selects which of the interrupt inputs may cause an interrupt.
 268:.\Generated_Source\PSoC4/Debounce_Timer.c **** *  The twosources are caputure and terminal.  One, both or neither may
 269:.\Generated_Source\PSoC4/Debounce_Timer.c **** *  be selected.
 270:.\Generated_Source\PSoC4/Debounce_Timer.c **** *
 271:.\Generated_Source\PSoC4/Debounce_Timer.c **** * Parameters:
 272:.\Generated_Source\PSoC4/Debounce_Timer.c **** *  interruptMode:   This parameter is used to enable interrups on either/or
 273:.\Generated_Source\PSoC4/Debounce_Timer.c **** *                   terminal count or capture.
 274:.\Generated_Source\PSoC4/Debounce_Timer.c **** *
 275:.\Generated_Source\PSoC4/Debounce_Timer.c **** * Return:
 276:.\Generated_Source\PSoC4/Debounce_Timer.c **** *  void
 277:.\Generated_Source\PSoC4/Debounce_Timer.c **** *
 278:.\Generated_Source\PSoC4/Debounce_Timer.c **** *******************************************************************************/
 279:.\Generated_Source\PSoC4/Debounce_Timer.c **** void Debounce_Timer_SetInterruptMode(uint8 interruptMode) 
 280:.\Generated_Source\PSoC4/Debounce_Timer.c **** {
  78              		.loc 1 280 0
  79              		.cfi_startproc
  80              	.LVL0:
 281:.\Generated_Source\PSoC4/Debounce_Timer.c ****     Debounce_Timer_STATUS_MASK = interruptMode;
  81              		.loc 1 281 0
  82 0000 014B     		ldr	r3, .L8
  83 0002 1870     		strb	r0, [r3]
 282:.\Generated_Source\PSoC4/Debounce_Timer.c **** }
  84              		.loc 1 282 0
  85              		@ sp needed
  86 0004 7047     		bx	lr
  87              	.L9:
  88 0006 C046     		.align	2
  89              	.L8:
  90 0008 82000F40 		.word	1074724994
  91              		.cfi_endproc
  92              	.LFE4:
  93              		.size	Debounce_Timer_SetInterruptMode, .-Debounce_Timer_SetInterruptMode
  94              		.section	.text.Debounce_Timer_SoftwareCapture,"ax",%progbits
  95              		.align	2
  96              		.global	Debounce_Timer_SoftwareCapture
  97              		.code	16
  98              		.thumb_func
  99              		.type	Debounce_Timer_SoftwareCapture, %function
 100              	Debounce_Timer_SoftwareCapture:
 101              	.LFB5:
 283:.\Generated_Source\PSoC4/Debounce_Timer.c **** 
 284:.\Generated_Source\PSoC4/Debounce_Timer.c **** 
 285:.\Generated_Source\PSoC4/Debounce_Timer.c **** /*******************************************************************************
 286:.\Generated_Source\PSoC4/Debounce_Timer.c **** * Function Name: Debounce_Timer_SoftwareCapture
 287:.\Generated_Source\PSoC4/Debounce_Timer.c **** ********************************************************************************
 288:.\Generated_Source\PSoC4/Debounce_Timer.c **** *
 289:.\Generated_Source\PSoC4/Debounce_Timer.c **** * Summary:
 290:.\Generated_Source\PSoC4/Debounce_Timer.c **** *  This function forces a capture independent of the capture signal.
 291:.\Generated_Source\PSoC4/Debounce_Timer.c **** *
 292:.\Generated_Source\PSoC4/Debounce_Timer.c **** * Parameters:
 293:.\Generated_Source\PSoC4/Debounce_Timer.c **** *  void
 294:.\Generated_Source\PSoC4/Debounce_Timer.c **** *
 295:.\Generated_Source\PSoC4/Debounce_Timer.c **** * Return:
 296:.\Generated_Source\PSoC4/Debounce_Timer.c **** *  void
 297:.\Generated_Source\PSoC4/Debounce_Timer.c **** *
 298:.\Generated_Source\PSoC4/Debounce_Timer.c **** * Side Effects:
ARM GAS  C:\Users\744\AppData\Local\Temp\cc8e7qOt.s 			page 8


 299:.\Generated_Source\PSoC4/Debounce_Timer.c **** *  An existing hardware capture could be overwritten.
 300:.\Generated_Source\PSoC4/Debounce_Timer.c **** *
 301:.\Generated_Source\PSoC4/Debounce_Timer.c **** *******************************************************************************/
 302:.\Generated_Source\PSoC4/Debounce_Timer.c **** void Debounce_Timer_SoftwareCapture(void) 
 303:.\Generated_Source\PSoC4/Debounce_Timer.c **** {
 102              		.loc 1 303 0
 103              		.cfi_startproc
 304:.\Generated_Source\PSoC4/Debounce_Timer.c ****     /* Generate a software capture by reading the counter register */
 305:.\Generated_Source\PSoC4/Debounce_Timer.c ****     #if(Debounce_Timer_UsingFixedFunction)
 306:.\Generated_Source\PSoC4/Debounce_Timer.c ****         (void)CY_GET_REG16(Debounce_Timer_COUNTER_LSB_PTR);
 307:.\Generated_Source\PSoC4/Debounce_Timer.c ****     #else
 308:.\Generated_Source\PSoC4/Debounce_Timer.c ****         (void)CY_GET_REG8(Debounce_Timer_COUNTER_LSB_PTR_8BIT);
 104              		.loc 1 308 0
 105 0000 014B     		ldr	r3, .L11
 106 0002 1B78     		ldrb	r3, [r3]
 309:.\Generated_Source\PSoC4/Debounce_Timer.c ****     #endif/* (Debounce_Timer_UsingFixedFunction) */
 310:.\Generated_Source\PSoC4/Debounce_Timer.c ****     /* Capture Data is now in the FIFO */
 311:.\Generated_Source\PSoC4/Debounce_Timer.c **** }
 107              		.loc 1 311 0
 108              		@ sp needed
 109 0004 7047     		bx	lr
 110              	.L12:
 111 0006 C046     		.align	2
 112              	.L11:
 113 0008 00000F40 		.word	1074724864
 114              		.cfi_endproc
 115              	.LFE5:
 116              		.size	Debounce_Timer_SoftwareCapture, .-Debounce_Timer_SoftwareCapture
 117              		.section	.text.Debounce_Timer_ReadStatusRegister,"ax",%progbits
 118              		.align	2
 119              		.global	Debounce_Timer_ReadStatusRegister
 120              		.code	16
 121              		.thumb_func
 122              		.type	Debounce_Timer_ReadStatusRegister, %function
 123              	Debounce_Timer_ReadStatusRegister:
 124              	.LFB6:
 312:.\Generated_Source\PSoC4/Debounce_Timer.c **** 
 313:.\Generated_Source\PSoC4/Debounce_Timer.c **** 
 314:.\Generated_Source\PSoC4/Debounce_Timer.c **** /*******************************************************************************
 315:.\Generated_Source\PSoC4/Debounce_Timer.c **** * Function Name: Debounce_Timer_ReadStatusRegister
 316:.\Generated_Source\PSoC4/Debounce_Timer.c **** ********************************************************************************
 317:.\Generated_Source\PSoC4/Debounce_Timer.c **** *
 318:.\Generated_Source\PSoC4/Debounce_Timer.c **** * Summary:
 319:.\Generated_Source\PSoC4/Debounce_Timer.c **** *  Reads the status register and returns it's state. This function should use
 320:.\Generated_Source\PSoC4/Debounce_Timer.c **** *  defined types for the bit-field information as the bits in this register may
 321:.\Generated_Source\PSoC4/Debounce_Timer.c **** *  be permuteable.
 322:.\Generated_Source\PSoC4/Debounce_Timer.c **** *
 323:.\Generated_Source\PSoC4/Debounce_Timer.c **** * Parameters:
 324:.\Generated_Source\PSoC4/Debounce_Timer.c **** *  void
 325:.\Generated_Source\PSoC4/Debounce_Timer.c **** *
 326:.\Generated_Source\PSoC4/Debounce_Timer.c **** * Return:
 327:.\Generated_Source\PSoC4/Debounce_Timer.c **** *  The contents of the status register
 328:.\Generated_Source\PSoC4/Debounce_Timer.c **** *
 329:.\Generated_Source\PSoC4/Debounce_Timer.c **** * Side Effects:
 330:.\Generated_Source\PSoC4/Debounce_Timer.c **** *  Status register bits may be clear on read.
 331:.\Generated_Source\PSoC4/Debounce_Timer.c **** *
 332:.\Generated_Source\PSoC4/Debounce_Timer.c **** *******************************************************************************/
ARM GAS  C:\Users\744\AppData\Local\Temp\cc8e7qOt.s 			page 9


 333:.\Generated_Source\PSoC4/Debounce_Timer.c **** uint8   Debounce_Timer_ReadStatusRegister(void) 
 334:.\Generated_Source\PSoC4/Debounce_Timer.c **** {
 125              		.loc 1 334 0
 126              		.cfi_startproc
 335:.\Generated_Source\PSoC4/Debounce_Timer.c ****     return (Debounce_Timer_STATUS);
 127              		.loc 1 335 0
 128 0000 014B     		ldr	r3, .L14
 129 0002 1878     		ldrb	r0, [r3]
 130 0004 C0B2     		uxtb	r0, r0
 336:.\Generated_Source\PSoC4/Debounce_Timer.c **** }
 131              		.loc 1 336 0
 132              		@ sp needed
 133 0006 7047     		bx	lr
 134              	.L15:
 135              		.align	2
 136              	.L14:
 137 0008 62000F40 		.word	1074724962
 138              		.cfi_endproc
 139              	.LFE6:
 140              		.size	Debounce_Timer_ReadStatusRegister, .-Debounce_Timer_ReadStatusRegister
 141              		.section	.text.Debounce_Timer_ReadControlRegister,"ax",%progbits
 142              		.align	2
 143              		.global	Debounce_Timer_ReadControlRegister
 144              		.code	16
 145              		.thumb_func
 146              		.type	Debounce_Timer_ReadControlRegister, %function
 147              	Debounce_Timer_ReadControlRegister:
 148              	.LFB7:
 337:.\Generated_Source\PSoC4/Debounce_Timer.c **** 
 338:.\Generated_Source\PSoC4/Debounce_Timer.c **** 
 339:.\Generated_Source\PSoC4/Debounce_Timer.c **** #if (!Debounce_Timer_UDB_CONTROL_REG_REMOVED) /* Remove API if control register is unused */
 340:.\Generated_Source\PSoC4/Debounce_Timer.c **** 
 341:.\Generated_Source\PSoC4/Debounce_Timer.c **** 
 342:.\Generated_Source\PSoC4/Debounce_Timer.c **** /*******************************************************************************
 343:.\Generated_Source\PSoC4/Debounce_Timer.c **** * Function Name: Debounce_Timer_ReadControlRegister
 344:.\Generated_Source\PSoC4/Debounce_Timer.c **** ********************************************************************************
 345:.\Generated_Source\PSoC4/Debounce_Timer.c **** *
 346:.\Generated_Source\PSoC4/Debounce_Timer.c **** * Summary:
 347:.\Generated_Source\PSoC4/Debounce_Timer.c **** *  Reads the control register and returns it's value.
 348:.\Generated_Source\PSoC4/Debounce_Timer.c **** *
 349:.\Generated_Source\PSoC4/Debounce_Timer.c **** * Parameters:
 350:.\Generated_Source\PSoC4/Debounce_Timer.c **** *  void
 351:.\Generated_Source\PSoC4/Debounce_Timer.c **** *
 352:.\Generated_Source\PSoC4/Debounce_Timer.c **** * Return:
 353:.\Generated_Source\PSoC4/Debounce_Timer.c **** *  The contents of the control register
 354:.\Generated_Source\PSoC4/Debounce_Timer.c **** *
 355:.\Generated_Source\PSoC4/Debounce_Timer.c **** *******************************************************************************/
 356:.\Generated_Source\PSoC4/Debounce_Timer.c **** uint8 Debounce_Timer_ReadControlRegister(void) 
 357:.\Generated_Source\PSoC4/Debounce_Timer.c **** {
 149              		.loc 1 357 0
 150              		.cfi_startproc
 358:.\Generated_Source\PSoC4/Debounce_Timer.c ****     #if (!Debounce_Timer_UDB_CONTROL_REG_REMOVED) 
 359:.\Generated_Source\PSoC4/Debounce_Timer.c ****         return ((uint8)Debounce_Timer_CONTROL);
 151              		.loc 1 359 0
 152 0000 014B     		ldr	r3, .L17
 153 0002 1878     		ldrb	r0, [r3]
 154 0004 C0B2     		uxtb	r0, r0
ARM GAS  C:\Users\744\AppData\Local\Temp\cc8e7qOt.s 			page 10


 360:.\Generated_Source\PSoC4/Debounce_Timer.c ****     #else
 361:.\Generated_Source\PSoC4/Debounce_Timer.c ****         return (0);
 362:.\Generated_Source\PSoC4/Debounce_Timer.c ****     #endif /* (!Debounce_Timer_UDB_CONTROL_REG_REMOVED) */
 363:.\Generated_Source\PSoC4/Debounce_Timer.c **** }
 155              		.loc 1 363 0
 156              		@ sp needed
 157 0006 7047     		bx	lr
 158              	.L18:
 159              		.align	2
 160              	.L17:
 161 0008 71000F40 		.word	1074724977
 162              		.cfi_endproc
 163              	.LFE7:
 164              		.size	Debounce_Timer_ReadControlRegister, .-Debounce_Timer_ReadControlRegister
 165              		.section	.text.Debounce_Timer_WriteControlRegister,"ax",%progbits
 166              		.align	2
 167              		.global	Debounce_Timer_WriteControlRegister
 168              		.code	16
 169              		.thumb_func
 170              		.type	Debounce_Timer_WriteControlRegister, %function
 171              	Debounce_Timer_WriteControlRegister:
 172              	.LFB8:
 364:.\Generated_Source\PSoC4/Debounce_Timer.c **** 
 365:.\Generated_Source\PSoC4/Debounce_Timer.c **** 
 366:.\Generated_Source\PSoC4/Debounce_Timer.c **** /*******************************************************************************
 367:.\Generated_Source\PSoC4/Debounce_Timer.c **** * Function Name: Debounce_Timer_WriteControlRegister
 368:.\Generated_Source\PSoC4/Debounce_Timer.c **** ********************************************************************************
 369:.\Generated_Source\PSoC4/Debounce_Timer.c **** *
 370:.\Generated_Source\PSoC4/Debounce_Timer.c **** * Summary:
 371:.\Generated_Source\PSoC4/Debounce_Timer.c **** *  Sets the bit-field of the control register.
 372:.\Generated_Source\PSoC4/Debounce_Timer.c **** *
 373:.\Generated_Source\PSoC4/Debounce_Timer.c **** * Parameters:
 374:.\Generated_Source\PSoC4/Debounce_Timer.c **** *  control: The contents of the control register
 375:.\Generated_Source\PSoC4/Debounce_Timer.c **** *
 376:.\Generated_Source\PSoC4/Debounce_Timer.c **** * Return:
 377:.\Generated_Source\PSoC4/Debounce_Timer.c **** *
 378:.\Generated_Source\PSoC4/Debounce_Timer.c **** *******************************************************************************/
 379:.\Generated_Source\PSoC4/Debounce_Timer.c **** void Debounce_Timer_WriteControlRegister(uint8 control) 
 380:.\Generated_Source\PSoC4/Debounce_Timer.c **** {
 173              		.loc 1 380 0
 174              		.cfi_startproc
 175              	.LVL1:
 381:.\Generated_Source\PSoC4/Debounce_Timer.c ****     #if (!Debounce_Timer_UDB_CONTROL_REG_REMOVED) 
 382:.\Generated_Source\PSoC4/Debounce_Timer.c ****         Debounce_Timer_CONTROL = control;
 176              		.loc 1 382 0
 177 0000 014B     		ldr	r3, .L20
 178 0002 1870     		strb	r0, [r3]
 383:.\Generated_Source\PSoC4/Debounce_Timer.c ****     #else
 384:.\Generated_Source\PSoC4/Debounce_Timer.c ****         control = 0u;
 385:.\Generated_Source\PSoC4/Debounce_Timer.c ****     #endif /* (!Debounce_Timer_UDB_CONTROL_REG_REMOVED) */
 386:.\Generated_Source\PSoC4/Debounce_Timer.c **** }
 179              		.loc 1 386 0
 180              		@ sp needed
 181 0004 7047     		bx	lr
 182              	.L21:
 183 0006 C046     		.align	2
 184              	.L20:
ARM GAS  C:\Users\744\AppData\Local\Temp\cc8e7qOt.s 			page 11


 185 0008 71000F40 		.word	1074724977
 186              		.cfi_endproc
 187              	.LFE8:
 188              		.size	Debounce_Timer_WriteControlRegister, .-Debounce_Timer_WriteControlRegister
 189              		.section	.text.Debounce_Timer_ReadPeriod,"ax",%progbits
 190              		.align	2
 191              		.global	Debounce_Timer_ReadPeriod
 192              		.code	16
 193              		.thumb_func
 194              		.type	Debounce_Timer_ReadPeriod, %function
 195              	Debounce_Timer_ReadPeriod:
 196              	.LFB9:
 387:.\Generated_Source\PSoC4/Debounce_Timer.c **** 
 388:.\Generated_Source\PSoC4/Debounce_Timer.c **** #endif /* Remove API if control register is unused */
 389:.\Generated_Source\PSoC4/Debounce_Timer.c **** 
 390:.\Generated_Source\PSoC4/Debounce_Timer.c **** 
 391:.\Generated_Source\PSoC4/Debounce_Timer.c **** /*******************************************************************************
 392:.\Generated_Source\PSoC4/Debounce_Timer.c **** * Function Name: Debounce_Timer_ReadPeriod
 393:.\Generated_Source\PSoC4/Debounce_Timer.c **** ********************************************************************************
 394:.\Generated_Source\PSoC4/Debounce_Timer.c **** *
 395:.\Generated_Source\PSoC4/Debounce_Timer.c **** * Summary:
 396:.\Generated_Source\PSoC4/Debounce_Timer.c **** *  This function returns the current value of the Period.
 397:.\Generated_Source\PSoC4/Debounce_Timer.c **** *
 398:.\Generated_Source\PSoC4/Debounce_Timer.c **** * Parameters:
 399:.\Generated_Source\PSoC4/Debounce_Timer.c **** *  void
 400:.\Generated_Source\PSoC4/Debounce_Timer.c **** *
 401:.\Generated_Source\PSoC4/Debounce_Timer.c **** * Return:
 402:.\Generated_Source\PSoC4/Debounce_Timer.c **** *  The present value of the counter.
 403:.\Generated_Source\PSoC4/Debounce_Timer.c **** *
 404:.\Generated_Source\PSoC4/Debounce_Timer.c **** *******************************************************************************/
 405:.\Generated_Source\PSoC4/Debounce_Timer.c **** uint32 Debounce_Timer_ReadPeriod(void) 
 406:.\Generated_Source\PSoC4/Debounce_Timer.c **** {
 197              		.loc 1 406 0
 198              		.cfi_startproc
 199 0000 08B5     		push	{r3, lr}
 200              		.cfi_def_cfa_offset 8
 201              		.cfi_offset 3, -8
 202              		.cfi_offset 14, -4
 407:.\Generated_Source\PSoC4/Debounce_Timer.c ****    #if(Debounce_Timer_UsingFixedFunction)
 408:.\Generated_Source\PSoC4/Debounce_Timer.c ****        return ((uint32)CY_GET_REG16(Debounce_Timer_PERIOD_LSB_PTR));
 409:.\Generated_Source\PSoC4/Debounce_Timer.c ****    #else
 410:.\Generated_Source\PSoC4/Debounce_Timer.c ****        return (CY_GET_REG24(Debounce_Timer_PERIOD_LSB_PTR));
 203              		.loc 1 410 0
 204 0002 0248     		ldr	r0, .L23
 205 0004 FFF7FEFF 		bl	CyGetReg24
 206              	.LVL2:
 411:.\Generated_Source\PSoC4/Debounce_Timer.c ****    #endif /* (Debounce_Timer_UsingFixedFunction) */
 412:.\Generated_Source\PSoC4/Debounce_Timer.c **** }
 207              		.loc 1 412 0
 208              		@ sp needed
 209 0008 08BD     		pop	{r3, pc}
 210              	.L24:
 211 000a C046     		.align	2
 212              	.L23:
 213 000c 20000F40 		.word	1074724896
 214              		.cfi_endproc
 215              	.LFE9:
ARM GAS  C:\Users\744\AppData\Local\Temp\cc8e7qOt.s 			page 12


 216              		.size	Debounce_Timer_ReadPeriod, .-Debounce_Timer_ReadPeriod
 217              		.section	.text.Debounce_Timer_WritePeriod,"ax",%progbits
 218              		.align	2
 219              		.global	Debounce_Timer_WritePeriod
 220              		.code	16
 221              		.thumb_func
 222              		.type	Debounce_Timer_WritePeriod, %function
 223              	Debounce_Timer_WritePeriod:
 224              	.LFB10:
 413:.\Generated_Source\PSoC4/Debounce_Timer.c **** 
 414:.\Generated_Source\PSoC4/Debounce_Timer.c **** 
 415:.\Generated_Source\PSoC4/Debounce_Timer.c **** /*******************************************************************************
 416:.\Generated_Source\PSoC4/Debounce_Timer.c **** * Function Name: Debounce_Timer_WritePeriod
 417:.\Generated_Source\PSoC4/Debounce_Timer.c **** ********************************************************************************
 418:.\Generated_Source\PSoC4/Debounce_Timer.c **** *
 419:.\Generated_Source\PSoC4/Debounce_Timer.c **** * Summary:
 420:.\Generated_Source\PSoC4/Debounce_Timer.c **** *  This function is used to change the period of the counter.  The new period
 421:.\Generated_Source\PSoC4/Debounce_Timer.c **** *  will be loaded the next time terminal count is detected.
 422:.\Generated_Source\PSoC4/Debounce_Timer.c **** *
 423:.\Generated_Source\PSoC4/Debounce_Timer.c **** * Parameters:
 424:.\Generated_Source\PSoC4/Debounce_Timer.c **** *  period: This value may be between 1 and (2^Resolution)-1.  A value of 0 will
 425:.\Generated_Source\PSoC4/Debounce_Timer.c **** *          result in the counter remaining at zero.
 426:.\Generated_Source\PSoC4/Debounce_Timer.c **** *
 427:.\Generated_Source\PSoC4/Debounce_Timer.c **** * Return:
 428:.\Generated_Source\PSoC4/Debounce_Timer.c **** *  void
 429:.\Generated_Source\PSoC4/Debounce_Timer.c **** *
 430:.\Generated_Source\PSoC4/Debounce_Timer.c **** *******************************************************************************/
 431:.\Generated_Source\PSoC4/Debounce_Timer.c **** void Debounce_Timer_WritePeriod(uint32 period) 
 432:.\Generated_Source\PSoC4/Debounce_Timer.c **** {
 225              		.loc 1 432 0
 226              		.cfi_startproc
 227              	.LVL3:
 228 0000 08B5     		push	{r3, lr}
 229              		.cfi_def_cfa_offset 8
 230              		.cfi_offset 3, -8
 231              		.cfi_offset 14, -4
 232 0002 011C     		mov	r1, r0
 433:.\Generated_Source\PSoC4/Debounce_Timer.c ****     #if(Debounce_Timer_UsingFixedFunction)
 434:.\Generated_Source\PSoC4/Debounce_Timer.c ****         uint16 period_temp = (uint16)period;
 435:.\Generated_Source\PSoC4/Debounce_Timer.c ****         CY_SET_REG16(Debounce_Timer_PERIOD_LSB_PTR, period_temp);
 436:.\Generated_Source\PSoC4/Debounce_Timer.c ****     #else
 437:.\Generated_Source\PSoC4/Debounce_Timer.c ****         CY_SET_REG24(Debounce_Timer_PERIOD_LSB_PTR, period);
 233              		.loc 1 437 0
 234 0004 0148     		ldr	r0, .L26
 235              	.LVL4:
 236 0006 FFF7FEFF 		bl	CySetReg24
 237              	.LVL5:
 438:.\Generated_Source\PSoC4/Debounce_Timer.c ****     #endif /*Write Period value with appropriate resolution suffix depending on UDB or fixed functi
 439:.\Generated_Source\PSoC4/Debounce_Timer.c **** }
 238              		.loc 1 439 0
 239              		@ sp needed
 240 000a 08BD     		pop	{r3, pc}
 241              	.L27:
 242              		.align	2
 243              	.L26:
 244 000c 20000F40 		.word	1074724896
 245              		.cfi_endproc
ARM GAS  C:\Users\744\AppData\Local\Temp\cc8e7qOt.s 			page 13


 246              	.LFE10:
 247              		.size	Debounce_Timer_WritePeriod, .-Debounce_Timer_WritePeriod
 248              		.section	.text.Debounce_Timer_ReadCapture,"ax",%progbits
 249              		.align	2
 250              		.global	Debounce_Timer_ReadCapture
 251              		.code	16
 252              		.thumb_func
 253              		.type	Debounce_Timer_ReadCapture, %function
 254              	Debounce_Timer_ReadCapture:
 255              	.LFB11:
 440:.\Generated_Source\PSoC4/Debounce_Timer.c **** 
 441:.\Generated_Source\PSoC4/Debounce_Timer.c **** 
 442:.\Generated_Source\PSoC4/Debounce_Timer.c **** /*******************************************************************************
 443:.\Generated_Source\PSoC4/Debounce_Timer.c **** * Function Name: Debounce_Timer_ReadCapture
 444:.\Generated_Source\PSoC4/Debounce_Timer.c **** ********************************************************************************
 445:.\Generated_Source\PSoC4/Debounce_Timer.c **** *
 446:.\Generated_Source\PSoC4/Debounce_Timer.c **** * Summary:
 447:.\Generated_Source\PSoC4/Debounce_Timer.c **** *  This function returns the last value captured.
 448:.\Generated_Source\PSoC4/Debounce_Timer.c **** *
 449:.\Generated_Source\PSoC4/Debounce_Timer.c **** * Parameters:
 450:.\Generated_Source\PSoC4/Debounce_Timer.c **** *  void
 451:.\Generated_Source\PSoC4/Debounce_Timer.c **** *
 452:.\Generated_Source\PSoC4/Debounce_Timer.c **** * Return:
 453:.\Generated_Source\PSoC4/Debounce_Timer.c **** *  Present Capture value.
 454:.\Generated_Source\PSoC4/Debounce_Timer.c **** *
 455:.\Generated_Source\PSoC4/Debounce_Timer.c **** *******************************************************************************/
 456:.\Generated_Source\PSoC4/Debounce_Timer.c **** uint32 Debounce_Timer_ReadCapture(void) 
 457:.\Generated_Source\PSoC4/Debounce_Timer.c **** {
 256              		.loc 1 457 0
 257              		.cfi_startproc
 258 0000 08B5     		push	{r3, lr}
 259              		.cfi_def_cfa_offset 8
 260              		.cfi_offset 3, -8
 261              		.cfi_offset 14, -4
 458:.\Generated_Source\PSoC4/Debounce_Timer.c ****    #if(Debounce_Timer_UsingFixedFunction)
 459:.\Generated_Source\PSoC4/Debounce_Timer.c ****        return ((uint32)CY_GET_REG16(Debounce_Timer_CAPTURE_LSB_PTR));
 460:.\Generated_Source\PSoC4/Debounce_Timer.c ****    #else
 461:.\Generated_Source\PSoC4/Debounce_Timer.c ****        return (CY_GET_REG24(Debounce_Timer_CAPTURE_LSB_PTR));
 262              		.loc 1 461 0
 263 0002 0248     		ldr	r0, .L29
 264 0004 FFF7FEFF 		bl	CyGetReg24
 265              	.LVL6:
 462:.\Generated_Source\PSoC4/Debounce_Timer.c ****    #endif /* (Debounce_Timer_UsingFixedFunction) */
 463:.\Generated_Source\PSoC4/Debounce_Timer.c **** }
 266              		.loc 1 463 0
 267              		@ sp needed
 268 0008 08BD     		pop	{r3, pc}
 269              	.L30:
 270 000a C046     		.align	2
 271              	.L29:
 272 000c 40000F40 		.word	1074724928
 273              		.cfi_endproc
 274              	.LFE11:
 275              		.size	Debounce_Timer_ReadCapture, .-Debounce_Timer_ReadCapture
 276              		.section	.text.Debounce_Timer_WriteCounter,"ax",%progbits
 277              		.align	2
 278              		.global	Debounce_Timer_WriteCounter
ARM GAS  C:\Users\744\AppData\Local\Temp\cc8e7qOt.s 			page 14


 279              		.code	16
 280              		.thumb_func
 281              		.type	Debounce_Timer_WriteCounter, %function
 282              	Debounce_Timer_WriteCounter:
 283              	.LFB12:
 464:.\Generated_Source\PSoC4/Debounce_Timer.c **** 
 465:.\Generated_Source\PSoC4/Debounce_Timer.c **** 
 466:.\Generated_Source\PSoC4/Debounce_Timer.c **** /*******************************************************************************
 467:.\Generated_Source\PSoC4/Debounce_Timer.c **** * Function Name: Debounce_Timer_WriteCounter
 468:.\Generated_Source\PSoC4/Debounce_Timer.c **** ********************************************************************************
 469:.\Generated_Source\PSoC4/Debounce_Timer.c **** *
 470:.\Generated_Source\PSoC4/Debounce_Timer.c **** * Summary:
 471:.\Generated_Source\PSoC4/Debounce_Timer.c **** *  This funtion is used to set the counter to a specific value
 472:.\Generated_Source\PSoC4/Debounce_Timer.c **** *
 473:.\Generated_Source\PSoC4/Debounce_Timer.c **** * Parameters:
 474:.\Generated_Source\PSoC4/Debounce_Timer.c **** *  counter:  New counter value.
 475:.\Generated_Source\PSoC4/Debounce_Timer.c **** *
 476:.\Generated_Source\PSoC4/Debounce_Timer.c **** * Return:
 477:.\Generated_Source\PSoC4/Debounce_Timer.c **** *  void
 478:.\Generated_Source\PSoC4/Debounce_Timer.c **** *
 479:.\Generated_Source\PSoC4/Debounce_Timer.c **** *******************************************************************************/
 480:.\Generated_Source\PSoC4/Debounce_Timer.c **** void Debounce_Timer_WriteCounter(uint32 counter) 
 481:.\Generated_Source\PSoC4/Debounce_Timer.c **** {
 284              		.loc 1 481 0
 285              		.cfi_startproc
 286              	.LVL7:
 287 0000 08B5     		push	{r3, lr}
 288              		.cfi_def_cfa_offset 8
 289              		.cfi_offset 3, -8
 290              		.cfi_offset 14, -4
 291 0002 011C     		mov	r1, r0
 482:.\Generated_Source\PSoC4/Debounce_Timer.c ****    #if(Debounce_Timer_UsingFixedFunction)
 483:.\Generated_Source\PSoC4/Debounce_Timer.c ****         /* This functionality is removed until a FixedFunction HW update to
 484:.\Generated_Source\PSoC4/Debounce_Timer.c ****          * allow this register to be written
 485:.\Generated_Source\PSoC4/Debounce_Timer.c ****          */
 486:.\Generated_Source\PSoC4/Debounce_Timer.c ****         CY_SET_REG16(Debounce_Timer_COUNTER_LSB_PTR, (uint16)counter);
 487:.\Generated_Source\PSoC4/Debounce_Timer.c ****         
 488:.\Generated_Source\PSoC4/Debounce_Timer.c ****     #else
 489:.\Generated_Source\PSoC4/Debounce_Timer.c ****         CY_SET_REG24(Debounce_Timer_COUNTER_LSB_PTR, counter);
 292              		.loc 1 489 0
 293 0004 0148     		ldr	r0, .L32
 294              	.LVL8:
 295 0006 FFF7FEFF 		bl	CySetReg24
 296              	.LVL9:
 490:.\Generated_Source\PSoC4/Debounce_Timer.c ****     #endif /* Set Write Counter only for the UDB implementation (Write Counter not available in fix
 491:.\Generated_Source\PSoC4/Debounce_Timer.c **** }
 297              		.loc 1 491 0
 298              		@ sp needed
 299 000a 08BD     		pop	{r3, pc}
 300              	.L33:
 301              		.align	2
 302              	.L32:
 303 000c 00000F40 		.word	1074724864
 304              		.cfi_endproc
 305              	.LFE12:
 306              		.size	Debounce_Timer_WriteCounter, .-Debounce_Timer_WriteCounter
 307              		.section	.text.Debounce_Timer_ReadCounter,"ax",%progbits
ARM GAS  C:\Users\744\AppData\Local\Temp\cc8e7qOt.s 			page 15


 308              		.align	2
 309              		.global	Debounce_Timer_ReadCounter
 310              		.code	16
 311              		.thumb_func
 312              		.type	Debounce_Timer_ReadCounter, %function
 313              	Debounce_Timer_ReadCounter:
 314              	.LFB13:
 492:.\Generated_Source\PSoC4/Debounce_Timer.c **** 
 493:.\Generated_Source\PSoC4/Debounce_Timer.c **** 
 494:.\Generated_Source\PSoC4/Debounce_Timer.c **** /*******************************************************************************
 495:.\Generated_Source\PSoC4/Debounce_Timer.c **** * Function Name: Debounce_Timer_ReadCounter
 496:.\Generated_Source\PSoC4/Debounce_Timer.c **** ********************************************************************************
 497:.\Generated_Source\PSoC4/Debounce_Timer.c **** *
 498:.\Generated_Source\PSoC4/Debounce_Timer.c **** * Summary:
 499:.\Generated_Source\PSoC4/Debounce_Timer.c **** *  This function returns the current counter value.
 500:.\Generated_Source\PSoC4/Debounce_Timer.c **** *
 501:.\Generated_Source\PSoC4/Debounce_Timer.c **** * Parameters:
 502:.\Generated_Source\PSoC4/Debounce_Timer.c **** *  void
 503:.\Generated_Source\PSoC4/Debounce_Timer.c **** *
 504:.\Generated_Source\PSoC4/Debounce_Timer.c **** * Return:
 505:.\Generated_Source\PSoC4/Debounce_Timer.c **** *  Present compare value.
 506:.\Generated_Source\PSoC4/Debounce_Timer.c **** *
 507:.\Generated_Source\PSoC4/Debounce_Timer.c **** *******************************************************************************/
 508:.\Generated_Source\PSoC4/Debounce_Timer.c **** uint32 Debounce_Timer_ReadCounter(void) 
 509:.\Generated_Source\PSoC4/Debounce_Timer.c **** {
 315              		.loc 1 509 0
 316              		.cfi_startproc
 317 0000 08B5     		push	{r3, lr}
 318              		.cfi_def_cfa_offset 8
 319              		.cfi_offset 3, -8
 320              		.cfi_offset 14, -4
 510:.\Generated_Source\PSoC4/Debounce_Timer.c ****     /* Force capture by reading Accumulator */
 511:.\Generated_Source\PSoC4/Debounce_Timer.c ****     /* Must first do a software capture to be able to read the counter */
 512:.\Generated_Source\PSoC4/Debounce_Timer.c ****     /* It is up to the user code to make sure there isn't already captured data in the FIFO */
 513:.\Generated_Source\PSoC4/Debounce_Timer.c ****     #if(Debounce_Timer_UsingFixedFunction)
 514:.\Generated_Source\PSoC4/Debounce_Timer.c ****         (void)CY_GET_REG16(Debounce_Timer_COUNTER_LSB_PTR);
 515:.\Generated_Source\PSoC4/Debounce_Timer.c ****     #else
 516:.\Generated_Source\PSoC4/Debounce_Timer.c ****         (void)CY_GET_REG8(Debounce_Timer_COUNTER_LSB_PTR_8BIT);
 321              		.loc 1 516 0
 322 0002 034B     		ldr	r3, .L35
 323 0004 1B78     		ldrb	r3, [r3]
 517:.\Generated_Source\PSoC4/Debounce_Timer.c ****     #endif/* (Debounce_Timer_UsingFixedFunction) */
 518:.\Generated_Source\PSoC4/Debounce_Timer.c **** 
 519:.\Generated_Source\PSoC4/Debounce_Timer.c ****     /* Read the data from the FIFO (or capture register for Fixed Function)*/
 520:.\Generated_Source\PSoC4/Debounce_Timer.c ****     #if(Debounce_Timer_UsingFixedFunction)
 521:.\Generated_Source\PSoC4/Debounce_Timer.c ****         return ((uint32)CY_GET_REG16(Debounce_Timer_CAPTURE_LSB_PTR));
 522:.\Generated_Source\PSoC4/Debounce_Timer.c ****     #else
 523:.\Generated_Source\PSoC4/Debounce_Timer.c ****         return (CY_GET_REG24(Debounce_Timer_CAPTURE_LSB_PTR));
 324              		.loc 1 523 0
 325 0006 0348     		ldr	r0, .L35+4
 326 0008 FFF7FEFF 		bl	CyGetReg24
 327              	.LVL10:
 524:.\Generated_Source\PSoC4/Debounce_Timer.c ****     #endif /* (Debounce_Timer_UsingFixedFunction) */
 525:.\Generated_Source\PSoC4/Debounce_Timer.c **** }
 328              		.loc 1 525 0
 329              		@ sp needed
 330 000c 08BD     		pop	{r3, pc}
ARM GAS  C:\Users\744\AppData\Local\Temp\cc8e7qOt.s 			page 16


 331              	.L36:
 332 000e C046     		.align	2
 333              	.L35:
 334 0010 00000F40 		.word	1074724864
 335 0014 40000F40 		.word	1074724928
 336              		.cfi_endproc
 337              	.LFE13:
 338              		.size	Debounce_Timer_ReadCounter, .-Debounce_Timer_ReadCounter
 339              		.section	.text.Debounce_Timer_ClearFIFO,"ax",%progbits
 340              		.align	2
 341              		.global	Debounce_Timer_ClearFIFO
 342              		.code	16
 343              		.thumb_func
 344              		.type	Debounce_Timer_ClearFIFO, %function
 345              	Debounce_Timer_ClearFIFO:
 346              	.LFB14:
 526:.\Generated_Source\PSoC4/Debounce_Timer.c **** 
 527:.\Generated_Source\PSoC4/Debounce_Timer.c **** 
 528:.\Generated_Source\PSoC4/Debounce_Timer.c **** #if(!Debounce_Timer_UsingFixedFunction) /* UDB Specific Functions */
 529:.\Generated_Source\PSoC4/Debounce_Timer.c **** 
 530:.\Generated_Source\PSoC4/Debounce_Timer.c ****     
 531:.\Generated_Source\PSoC4/Debounce_Timer.c **** /*******************************************************************************
 532:.\Generated_Source\PSoC4/Debounce_Timer.c ****  * The functions below this point are only available using the UDB
 533:.\Generated_Source\PSoC4/Debounce_Timer.c ****  * implementation.  If a feature is selected, then the API is enabled.
 534:.\Generated_Source\PSoC4/Debounce_Timer.c ****  ******************************************************************************/
 535:.\Generated_Source\PSoC4/Debounce_Timer.c **** 
 536:.\Generated_Source\PSoC4/Debounce_Timer.c **** 
 537:.\Generated_Source\PSoC4/Debounce_Timer.c **** #if (Debounce_Timer_SoftwareCaptureMode)
 538:.\Generated_Source\PSoC4/Debounce_Timer.c **** 
 539:.\Generated_Source\PSoC4/Debounce_Timer.c **** 
 540:.\Generated_Source\PSoC4/Debounce_Timer.c **** /*******************************************************************************
 541:.\Generated_Source\PSoC4/Debounce_Timer.c **** * Function Name: Debounce_Timer_SetCaptureMode
 542:.\Generated_Source\PSoC4/Debounce_Timer.c **** ********************************************************************************
 543:.\Generated_Source\PSoC4/Debounce_Timer.c **** *
 544:.\Generated_Source\PSoC4/Debounce_Timer.c **** * Summary:
 545:.\Generated_Source\PSoC4/Debounce_Timer.c **** *  This function sets the capture mode to either rising or falling edge.
 546:.\Generated_Source\PSoC4/Debounce_Timer.c **** *
 547:.\Generated_Source\PSoC4/Debounce_Timer.c **** * Parameters:
 548:.\Generated_Source\PSoC4/Debounce_Timer.c **** *  captureMode: This parameter sets the capture mode of the UDB capture feature
 549:.\Generated_Source\PSoC4/Debounce_Timer.c **** *  The parameter values are defined using the
 550:.\Generated_Source\PSoC4/Debounce_Timer.c **** *  #define Debounce_Timer__B_TIMER__CM_NONE 0
 551:.\Generated_Source\PSoC4/Debounce_Timer.c **** #define Debounce_Timer__B_TIMER__CM_RISINGEDGE 1
 552:.\Generated_Source\PSoC4/Debounce_Timer.c **** #define Debounce_Timer__B_TIMER__CM_FALLINGEDGE 2
 553:.\Generated_Source\PSoC4/Debounce_Timer.c **** #define Debounce_Timer__B_TIMER__CM_EITHEREDGE 3
 554:.\Generated_Source\PSoC4/Debounce_Timer.c **** #define Debounce_Timer__B_TIMER__CM_SOFTWARE 4
 555:.\Generated_Source\PSoC4/Debounce_Timer.c ****  identifiers
 556:.\Generated_Source\PSoC4/Debounce_Timer.c **** *  The following are the possible values of the parameter
 557:.\Generated_Source\PSoC4/Debounce_Timer.c **** *  Debounce_Timer__B_TIMER__CM_NONE        - Set Capture mode to None
 558:.\Generated_Source\PSoC4/Debounce_Timer.c **** *  Debounce_Timer__B_TIMER__CM_RISINGEDGE  - Rising edge of Capture input
 559:.\Generated_Source\PSoC4/Debounce_Timer.c **** *  Debounce_Timer__B_TIMER__CM_FALLINGEDGE - Falling edge of Capture input
 560:.\Generated_Source\PSoC4/Debounce_Timer.c **** *  Debounce_Timer__B_TIMER__CM_EITHEREDGE  - Either edge of Capture input
 561:.\Generated_Source\PSoC4/Debounce_Timer.c **** *
 562:.\Generated_Source\PSoC4/Debounce_Timer.c **** * Return:
 563:.\Generated_Source\PSoC4/Debounce_Timer.c **** *  void
 564:.\Generated_Source\PSoC4/Debounce_Timer.c **** *
 565:.\Generated_Source\PSoC4/Debounce_Timer.c **** *******************************************************************************/
 566:.\Generated_Source\PSoC4/Debounce_Timer.c **** void Debounce_Timer_SetCaptureMode(uint8 captureMode) 
ARM GAS  C:\Users\744\AppData\Local\Temp\cc8e7qOt.s 			page 17


 567:.\Generated_Source\PSoC4/Debounce_Timer.c **** {
 568:.\Generated_Source\PSoC4/Debounce_Timer.c ****     /* This must only set to two bits of the control register associated */
 569:.\Generated_Source\PSoC4/Debounce_Timer.c ****     captureMode = ((uint8)((uint8)captureMode << Debounce_Timer_CTRL_CAP_MODE_SHIFT));
 570:.\Generated_Source\PSoC4/Debounce_Timer.c ****     captureMode &= (Debounce_Timer_CTRL_CAP_MODE_MASK);
 571:.\Generated_Source\PSoC4/Debounce_Timer.c **** 
 572:.\Generated_Source\PSoC4/Debounce_Timer.c ****     #if (!Debounce_Timer_UDB_CONTROL_REG_REMOVED)
 573:.\Generated_Source\PSoC4/Debounce_Timer.c ****         /* Clear the Current Setting */
 574:.\Generated_Source\PSoC4/Debounce_Timer.c ****         Debounce_Timer_CONTROL &= ((uint8)(~Debounce_Timer_CTRL_CAP_MODE_MASK));
 575:.\Generated_Source\PSoC4/Debounce_Timer.c **** 
 576:.\Generated_Source\PSoC4/Debounce_Timer.c ****         /* Write The New Setting */
 577:.\Generated_Source\PSoC4/Debounce_Timer.c ****         Debounce_Timer_CONTROL |= captureMode;
 578:.\Generated_Source\PSoC4/Debounce_Timer.c ****     #endif /* (!Debounce_Timer_UDB_CONTROL_REG_REMOVED) */
 579:.\Generated_Source\PSoC4/Debounce_Timer.c **** }
 580:.\Generated_Source\PSoC4/Debounce_Timer.c **** #endif /* Remove API if Capture Mode is not Software Controlled */
 581:.\Generated_Source\PSoC4/Debounce_Timer.c **** 
 582:.\Generated_Source\PSoC4/Debounce_Timer.c **** 
 583:.\Generated_Source\PSoC4/Debounce_Timer.c **** #if (Debounce_Timer_SoftwareTriggerMode)
 584:.\Generated_Source\PSoC4/Debounce_Timer.c **** 
 585:.\Generated_Source\PSoC4/Debounce_Timer.c **** 
 586:.\Generated_Source\PSoC4/Debounce_Timer.c **** /*******************************************************************************
 587:.\Generated_Source\PSoC4/Debounce_Timer.c **** * Function Name: Debounce_Timer_SetTriggerMode
 588:.\Generated_Source\PSoC4/Debounce_Timer.c **** ********************************************************************************
 589:.\Generated_Source\PSoC4/Debounce_Timer.c **** *
 590:.\Generated_Source\PSoC4/Debounce_Timer.c **** * Summary:
 591:.\Generated_Source\PSoC4/Debounce_Timer.c **** *  This function sets the trigger input mode
 592:.\Generated_Source\PSoC4/Debounce_Timer.c **** *
 593:.\Generated_Source\PSoC4/Debounce_Timer.c **** * Parameters:
 594:.\Generated_Source\PSoC4/Debounce_Timer.c **** *  triggerMode: Pass one of the pre-defined Trigger Modes (except Software)
 595:.\Generated_Source\PSoC4/Debounce_Timer.c ****     #define Debounce_Timer__B_TIMER__TM_NONE 0x00u
 596:.\Generated_Source\PSoC4/Debounce_Timer.c ****     #define Debounce_Timer__B_TIMER__TM_RISINGEDGE 0x04u
 597:.\Generated_Source\PSoC4/Debounce_Timer.c ****     #define Debounce_Timer__B_TIMER__TM_FALLINGEDGE 0x08u
 598:.\Generated_Source\PSoC4/Debounce_Timer.c ****     #define Debounce_Timer__B_TIMER__TM_EITHEREDGE 0x0Cu
 599:.\Generated_Source\PSoC4/Debounce_Timer.c ****     #define Debounce_Timer__B_TIMER__TM_SOFTWARE 0x10u
 600:.\Generated_Source\PSoC4/Debounce_Timer.c **** *
 601:.\Generated_Source\PSoC4/Debounce_Timer.c **** * Return:
 602:.\Generated_Source\PSoC4/Debounce_Timer.c **** *  void
 603:.\Generated_Source\PSoC4/Debounce_Timer.c **** *
 604:.\Generated_Source\PSoC4/Debounce_Timer.c **** *******************************************************************************/
 605:.\Generated_Source\PSoC4/Debounce_Timer.c **** void Debounce_Timer_SetTriggerMode(uint8 triggerMode) 
 606:.\Generated_Source\PSoC4/Debounce_Timer.c **** {
 607:.\Generated_Source\PSoC4/Debounce_Timer.c ****     /* This must only set to two bits of the control register associated */
 608:.\Generated_Source\PSoC4/Debounce_Timer.c ****     triggerMode &= Debounce_Timer_CTRL_TRIG_MODE_MASK;
 609:.\Generated_Source\PSoC4/Debounce_Timer.c **** 
 610:.\Generated_Source\PSoC4/Debounce_Timer.c ****     #if (!Debounce_Timer_UDB_CONTROL_REG_REMOVED)   /* Remove assignment if control register is rem
 611:.\Generated_Source\PSoC4/Debounce_Timer.c ****     
 612:.\Generated_Source\PSoC4/Debounce_Timer.c ****         /* Clear the Current Setting */
 613:.\Generated_Source\PSoC4/Debounce_Timer.c ****         Debounce_Timer_CONTROL &= ((uint8)(~Debounce_Timer_CTRL_TRIG_MODE_MASK));
 614:.\Generated_Source\PSoC4/Debounce_Timer.c **** 
 615:.\Generated_Source\PSoC4/Debounce_Timer.c ****         /* Write The New Setting */
 616:.\Generated_Source\PSoC4/Debounce_Timer.c ****         Debounce_Timer_CONTROL |= (triggerMode | Debounce_Timer__B_TIMER__TM_SOFTWARE);
 617:.\Generated_Source\PSoC4/Debounce_Timer.c ****     #endif /* Remove code section if control register is not used */
 618:.\Generated_Source\PSoC4/Debounce_Timer.c **** }
 619:.\Generated_Source\PSoC4/Debounce_Timer.c **** #endif /* Remove API if Trigger Mode is not Software Controlled */
 620:.\Generated_Source\PSoC4/Debounce_Timer.c **** 
 621:.\Generated_Source\PSoC4/Debounce_Timer.c **** #if (Debounce_Timer_EnableTriggerMode)
 622:.\Generated_Source\PSoC4/Debounce_Timer.c **** 
 623:.\Generated_Source\PSoC4/Debounce_Timer.c **** 
ARM GAS  C:\Users\744\AppData\Local\Temp\cc8e7qOt.s 			page 18


 624:.\Generated_Source\PSoC4/Debounce_Timer.c **** /*******************************************************************************
 625:.\Generated_Source\PSoC4/Debounce_Timer.c **** * Function Name: Debounce_Timer_EnableTrigger
 626:.\Generated_Source\PSoC4/Debounce_Timer.c **** ********************************************************************************
 627:.\Generated_Source\PSoC4/Debounce_Timer.c **** *
 628:.\Generated_Source\PSoC4/Debounce_Timer.c **** * Summary:
 629:.\Generated_Source\PSoC4/Debounce_Timer.c **** *  Sets the control bit enabling Hardware Trigger mode
 630:.\Generated_Source\PSoC4/Debounce_Timer.c **** *
 631:.\Generated_Source\PSoC4/Debounce_Timer.c **** * Parameters:
 632:.\Generated_Source\PSoC4/Debounce_Timer.c **** *  void
 633:.\Generated_Source\PSoC4/Debounce_Timer.c **** *
 634:.\Generated_Source\PSoC4/Debounce_Timer.c **** * Return:
 635:.\Generated_Source\PSoC4/Debounce_Timer.c **** *  void
 636:.\Generated_Source\PSoC4/Debounce_Timer.c **** *
 637:.\Generated_Source\PSoC4/Debounce_Timer.c **** *******************************************************************************/
 638:.\Generated_Source\PSoC4/Debounce_Timer.c **** void Debounce_Timer_EnableTrigger(void) 
 639:.\Generated_Source\PSoC4/Debounce_Timer.c **** {
 640:.\Generated_Source\PSoC4/Debounce_Timer.c ****     #if (!Debounce_Timer_UDB_CONTROL_REG_REMOVED)   /* Remove assignment if control register is rem
 641:.\Generated_Source\PSoC4/Debounce_Timer.c ****         Debounce_Timer_CONTROL |= Debounce_Timer_CTRL_TRIG_EN;
 642:.\Generated_Source\PSoC4/Debounce_Timer.c ****     #endif /* Remove code section if control register is not used */
 643:.\Generated_Source\PSoC4/Debounce_Timer.c **** }
 644:.\Generated_Source\PSoC4/Debounce_Timer.c **** 
 645:.\Generated_Source\PSoC4/Debounce_Timer.c **** 
 646:.\Generated_Source\PSoC4/Debounce_Timer.c **** /*******************************************************************************
 647:.\Generated_Source\PSoC4/Debounce_Timer.c **** * Function Name: Debounce_Timer_DisableTrigger
 648:.\Generated_Source\PSoC4/Debounce_Timer.c **** ********************************************************************************
 649:.\Generated_Source\PSoC4/Debounce_Timer.c **** *
 650:.\Generated_Source\PSoC4/Debounce_Timer.c **** * Summary:
 651:.\Generated_Source\PSoC4/Debounce_Timer.c **** *  Clears the control bit enabling Hardware Trigger mode
 652:.\Generated_Source\PSoC4/Debounce_Timer.c **** *
 653:.\Generated_Source\PSoC4/Debounce_Timer.c **** * Parameters:
 654:.\Generated_Source\PSoC4/Debounce_Timer.c **** *  void
 655:.\Generated_Source\PSoC4/Debounce_Timer.c **** *
 656:.\Generated_Source\PSoC4/Debounce_Timer.c **** * Return:
 657:.\Generated_Source\PSoC4/Debounce_Timer.c **** *  void
 658:.\Generated_Source\PSoC4/Debounce_Timer.c **** *
 659:.\Generated_Source\PSoC4/Debounce_Timer.c **** *******************************************************************************/
 660:.\Generated_Source\PSoC4/Debounce_Timer.c **** void Debounce_Timer_DisableTrigger(void) 
 661:.\Generated_Source\PSoC4/Debounce_Timer.c **** {
 662:.\Generated_Source\PSoC4/Debounce_Timer.c ****     #if (!Debounce_Timer_UDB_CONTROL_REG_REMOVED )   /* Remove assignment if control register is re
 663:.\Generated_Source\PSoC4/Debounce_Timer.c ****         Debounce_Timer_CONTROL &= ((uint8)(~Debounce_Timer_CTRL_TRIG_EN));
 664:.\Generated_Source\PSoC4/Debounce_Timer.c ****     #endif /* Remove code section if control register is not used */
 665:.\Generated_Source\PSoC4/Debounce_Timer.c **** }
 666:.\Generated_Source\PSoC4/Debounce_Timer.c **** #endif /* Remove API is Trigger Mode is set to None */
 667:.\Generated_Source\PSoC4/Debounce_Timer.c **** 
 668:.\Generated_Source\PSoC4/Debounce_Timer.c **** #if(Debounce_Timer_InterruptOnCaptureCount)
 669:.\Generated_Source\PSoC4/Debounce_Timer.c **** 
 670:.\Generated_Source\PSoC4/Debounce_Timer.c **** 
 671:.\Generated_Source\PSoC4/Debounce_Timer.c **** /*******************************************************************************
 672:.\Generated_Source\PSoC4/Debounce_Timer.c **** * Function Name: Debounce_Timer_SetInterruptCount
 673:.\Generated_Source\PSoC4/Debounce_Timer.c **** ********************************************************************************
 674:.\Generated_Source\PSoC4/Debounce_Timer.c **** *
 675:.\Generated_Source\PSoC4/Debounce_Timer.c **** * Summary:
 676:.\Generated_Source\PSoC4/Debounce_Timer.c **** *  This function sets the capture count before an interrupt is triggered.
 677:.\Generated_Source\PSoC4/Debounce_Timer.c **** *
 678:.\Generated_Source\PSoC4/Debounce_Timer.c **** * Parameters:
 679:.\Generated_Source\PSoC4/Debounce_Timer.c **** *  interruptCount:  A value between 0 and 3 is valid.  If the value is 0, then
 680:.\Generated_Source\PSoC4/Debounce_Timer.c **** *                   an interrupt will occur each time a capture occurs.
ARM GAS  C:\Users\744\AppData\Local\Temp\cc8e7qOt.s 			page 19


 681:.\Generated_Source\PSoC4/Debounce_Timer.c **** *                   A value of 1 to 3 will cause the interrupt
 682:.\Generated_Source\PSoC4/Debounce_Timer.c **** *                   to delay by the same number of captures.
 683:.\Generated_Source\PSoC4/Debounce_Timer.c **** *
 684:.\Generated_Source\PSoC4/Debounce_Timer.c **** * Return:
 685:.\Generated_Source\PSoC4/Debounce_Timer.c **** *  void
 686:.\Generated_Source\PSoC4/Debounce_Timer.c **** *
 687:.\Generated_Source\PSoC4/Debounce_Timer.c **** *******************************************************************************/
 688:.\Generated_Source\PSoC4/Debounce_Timer.c **** void Debounce_Timer_SetInterruptCount(uint8 interruptCount) 
 689:.\Generated_Source\PSoC4/Debounce_Timer.c **** {
 690:.\Generated_Source\PSoC4/Debounce_Timer.c ****     /* This must only set to two bits of the control register associated */
 691:.\Generated_Source\PSoC4/Debounce_Timer.c ****     interruptCount &= Debounce_Timer_CTRL_INTCNT_MASK;
 692:.\Generated_Source\PSoC4/Debounce_Timer.c **** 
 693:.\Generated_Source\PSoC4/Debounce_Timer.c ****     #if (!Debounce_Timer_UDB_CONTROL_REG_REMOVED)
 694:.\Generated_Source\PSoC4/Debounce_Timer.c ****         /* Clear the Current Setting */
 695:.\Generated_Source\PSoC4/Debounce_Timer.c ****         Debounce_Timer_CONTROL &= ((uint8)(~Debounce_Timer_CTRL_INTCNT_MASK));
 696:.\Generated_Source\PSoC4/Debounce_Timer.c ****         /* Write The New Setting */
 697:.\Generated_Source\PSoC4/Debounce_Timer.c ****         Debounce_Timer_CONTROL |= interruptCount;
 698:.\Generated_Source\PSoC4/Debounce_Timer.c ****     #endif /* (!Debounce_Timer_UDB_CONTROL_REG_REMOVED) */
 699:.\Generated_Source\PSoC4/Debounce_Timer.c **** }
 700:.\Generated_Source\PSoC4/Debounce_Timer.c **** #endif /* Debounce_Timer_InterruptOnCaptureCount */
 701:.\Generated_Source\PSoC4/Debounce_Timer.c **** 
 702:.\Generated_Source\PSoC4/Debounce_Timer.c **** 
 703:.\Generated_Source\PSoC4/Debounce_Timer.c **** #if (Debounce_Timer_UsingHWCaptureCounter)
 704:.\Generated_Source\PSoC4/Debounce_Timer.c **** 
 705:.\Generated_Source\PSoC4/Debounce_Timer.c **** 
 706:.\Generated_Source\PSoC4/Debounce_Timer.c **** /*******************************************************************************
 707:.\Generated_Source\PSoC4/Debounce_Timer.c **** * Function Name: Debounce_Timer_SetCaptureCount
 708:.\Generated_Source\PSoC4/Debounce_Timer.c **** ********************************************************************************
 709:.\Generated_Source\PSoC4/Debounce_Timer.c **** *
 710:.\Generated_Source\PSoC4/Debounce_Timer.c **** * Summary:
 711:.\Generated_Source\PSoC4/Debounce_Timer.c **** *  This function sets the capture count
 712:.\Generated_Source\PSoC4/Debounce_Timer.c **** *
 713:.\Generated_Source\PSoC4/Debounce_Timer.c **** * Parameters:
 714:.\Generated_Source\PSoC4/Debounce_Timer.c **** *  captureCount: A value between 2 and 127 inclusive is valid.  A value of 1
 715:.\Generated_Source\PSoC4/Debounce_Timer.c **** *                to 127 will cause the interrupt to delay by the same number of
 716:.\Generated_Source\PSoC4/Debounce_Timer.c **** *                captures.
 717:.\Generated_Source\PSoC4/Debounce_Timer.c **** *
 718:.\Generated_Source\PSoC4/Debounce_Timer.c **** * Return:
 719:.\Generated_Source\PSoC4/Debounce_Timer.c **** *  void
 720:.\Generated_Source\PSoC4/Debounce_Timer.c **** *
 721:.\Generated_Source\PSoC4/Debounce_Timer.c **** *******************************************************************************/
 722:.\Generated_Source\PSoC4/Debounce_Timer.c **** void Debounce_Timer_SetCaptureCount(uint8 captureCount) 
 723:.\Generated_Source\PSoC4/Debounce_Timer.c **** {
 724:.\Generated_Source\PSoC4/Debounce_Timer.c ****     Debounce_Timer_CAP_COUNT = captureCount;
 725:.\Generated_Source\PSoC4/Debounce_Timer.c **** }
 726:.\Generated_Source\PSoC4/Debounce_Timer.c **** 
 727:.\Generated_Source\PSoC4/Debounce_Timer.c **** 
 728:.\Generated_Source\PSoC4/Debounce_Timer.c **** /*******************************************************************************
 729:.\Generated_Source\PSoC4/Debounce_Timer.c **** * Function Name: Debounce_Timer_ReadCaptureCount
 730:.\Generated_Source\PSoC4/Debounce_Timer.c **** ********************************************************************************
 731:.\Generated_Source\PSoC4/Debounce_Timer.c **** *
 732:.\Generated_Source\PSoC4/Debounce_Timer.c **** * Summary:
 733:.\Generated_Source\PSoC4/Debounce_Timer.c **** *  This function reads the capture count setting
 734:.\Generated_Source\PSoC4/Debounce_Timer.c **** *
 735:.\Generated_Source\PSoC4/Debounce_Timer.c **** * Parameters:
 736:.\Generated_Source\PSoC4/Debounce_Timer.c **** *  void
 737:.\Generated_Source\PSoC4/Debounce_Timer.c **** *
ARM GAS  C:\Users\744\AppData\Local\Temp\cc8e7qOt.s 			page 20


 738:.\Generated_Source\PSoC4/Debounce_Timer.c **** * Return:
 739:.\Generated_Source\PSoC4/Debounce_Timer.c **** *  Returns the Capture Count Setting
 740:.\Generated_Source\PSoC4/Debounce_Timer.c **** *
 741:.\Generated_Source\PSoC4/Debounce_Timer.c **** *******************************************************************************/
 742:.\Generated_Source\PSoC4/Debounce_Timer.c **** uint8 Debounce_Timer_ReadCaptureCount(void) 
 743:.\Generated_Source\PSoC4/Debounce_Timer.c **** {
 744:.\Generated_Source\PSoC4/Debounce_Timer.c ****     return ((uint8)Debounce_Timer_CAP_COUNT);
 745:.\Generated_Source\PSoC4/Debounce_Timer.c **** }
 746:.\Generated_Source\PSoC4/Debounce_Timer.c **** #endif /* Debounce_Timer_UsingHWCaptureCounter */
 747:.\Generated_Source\PSoC4/Debounce_Timer.c **** 
 748:.\Generated_Source\PSoC4/Debounce_Timer.c **** 
 749:.\Generated_Source\PSoC4/Debounce_Timer.c **** /*******************************************************************************
 750:.\Generated_Source\PSoC4/Debounce_Timer.c **** * Function Name: Debounce_Timer_ClearFIFO
 751:.\Generated_Source\PSoC4/Debounce_Timer.c **** ********************************************************************************
 752:.\Generated_Source\PSoC4/Debounce_Timer.c **** *
 753:.\Generated_Source\PSoC4/Debounce_Timer.c **** * Summary:
 754:.\Generated_Source\PSoC4/Debounce_Timer.c **** *  This function clears all capture data from the capture FIFO
 755:.\Generated_Source\PSoC4/Debounce_Timer.c **** *
 756:.\Generated_Source\PSoC4/Debounce_Timer.c **** * Parameters:
 757:.\Generated_Source\PSoC4/Debounce_Timer.c **** *  void
 758:.\Generated_Source\PSoC4/Debounce_Timer.c **** *
 759:.\Generated_Source\PSoC4/Debounce_Timer.c **** * Return:
 760:.\Generated_Source\PSoC4/Debounce_Timer.c **** *  void
 761:.\Generated_Source\PSoC4/Debounce_Timer.c **** *
 762:.\Generated_Source\PSoC4/Debounce_Timer.c **** *******************************************************************************/
 763:.\Generated_Source\PSoC4/Debounce_Timer.c **** void Debounce_Timer_ClearFIFO(void) 
 764:.\Generated_Source\PSoC4/Debounce_Timer.c **** {
 347              		.loc 1 764 0
 348              		.cfi_startproc
 349 0000 08B5     		push	{r3, lr}
 350              		.cfi_def_cfa_offset 8
 351              		.cfi_offset 3, -8
 352              		.cfi_offset 14, -4
 765:.\Generated_Source\PSoC4/Debounce_Timer.c ****     while(0u != (Debounce_Timer_ReadStatusRegister() & Debounce_Timer_STATUS_FIFONEMP))
 353              		.loc 1 765 0
 354 0002 01E0     		b	.L38
 355              	.L39:
 766:.\Generated_Source\PSoC4/Debounce_Timer.c ****     {
 767:.\Generated_Source\PSoC4/Debounce_Timer.c ****         (void)Debounce_Timer_ReadCapture();
 356              		.loc 1 767 0
 357 0004 FFF7FEFF 		bl	Debounce_Timer_ReadCapture
 358              	.LVL11:
 359              	.L38:
 765:.\Generated_Source\PSoC4/Debounce_Timer.c ****     while(0u != (Debounce_Timer_ReadStatusRegister() & Debounce_Timer_STATUS_FIFONEMP))
 360              		.loc 1 765 0
 361 0008 FFF7FEFF 		bl	Debounce_Timer_ReadStatusRegister
 362              	.LVL12:
 363 000c 0307     		lsl	r3, r0, #28
 364 000e F9D4     		bmi	.L39
 768:.\Generated_Source\PSoC4/Debounce_Timer.c ****     }
 769:.\Generated_Source\PSoC4/Debounce_Timer.c **** }
 365              		.loc 1 769 0
 366              		@ sp needed
 367 0010 08BD     		pop	{r3, pc}
 368              		.cfi_endproc
 369              	.LFE14:
 370              		.size	Debounce_Timer_ClearFIFO, .-Debounce_Timer_ClearFIFO
ARM GAS  C:\Users\744\AppData\Local\Temp\cc8e7qOt.s 			page 21


 371 0012 C046     		.section	.text.Debounce_Timer_Init,"ax",%progbits
 372              		.align	2
 373              		.global	Debounce_Timer_Init
 374              		.code	16
 375              		.thumb_func
 376              		.type	Debounce_Timer_Init, %function
 377              	Debounce_Timer_Init:
 378              	.LFB0:
  44:.\Generated_Source\PSoC4/Debounce_Timer.c ****     #if(!Debounce_Timer_UsingFixedFunction)
 379              		.loc 1 44 0
 380              		.cfi_startproc
 381 0000 10B5     		push	{r4, lr}
 382              		.cfi_def_cfa_offset 8
 383              		.cfi_offset 4, -8
 384              		.cfi_offset 14, -4
 118:.\Generated_Source\PSoC4/Debounce_Timer.c ****     Debounce_Timer_WriteCounter(Debounce_Timer_INIT_PERIOD);
 385              		.loc 1 118 0
 386 0002 0B4C     		ldr	r4, .L41
 387 0004 201C     		mov	r0, r4
 388 0006 FFF7FEFF 		bl	Debounce_Timer_WritePeriod
 389              	.LVL13:
 119:.\Generated_Source\PSoC4/Debounce_Timer.c **** 
 390              		.loc 1 119 0
 391 000a 201C     		mov	r0, r4
 392 000c FFF7FEFF 		bl	Debounce_Timer_WriteCounter
 393              	.LVL14:
 142:.\Generated_Source\PSoC4/Debounce_Timer.c **** 
 394              		.loc 1 142 0
 395 0010 FFF7FEFF 		bl	CyEnterCriticalSection
 396              	.LVL15:
 145:.\Generated_Source\PSoC4/Debounce_Timer.c **** 
 397              		.loc 1 145 0
 398 0014 074A     		ldr	r2, .L41+4
 399 0016 1178     		ldrb	r1, [r2]
 400 0018 1023     		mov	r3, #16
 401 001a 0B43     		orr	r3, r1
 402 001c 1370     		strb	r3, [r2]
 148:.\Generated_Source\PSoC4/Debounce_Timer.c **** 
 403              		.loc 1 148 0
 404 001e FFF7FEFF 		bl	CyExitCriticalSection
 405              	.LVL16:
 159:.\Generated_Source\PSoC4/Debounce_Timer.c ****     #endif /* Configure additional features of UDB implementation */
 406              		.loc 1 159 0
 407 0022 FFF7FEFF 		bl	Debounce_Timer_ClearFIFO
 408              	.LVL17:
 162:.\Generated_Source\PSoC4/Debounce_Timer.c **** }
 409              		.loc 1 162 0
 410 0026 0120     		mov	r0, #1
 411 0028 FFF7FEFF 		bl	Debounce_Timer_SetInterruptMode
 412              	.LVL18:
 163:.\Generated_Source\PSoC4/Debounce_Timer.c **** 
 413              		.loc 1 163 0
 414              		@ sp needed
 415 002c 10BD     		pop	{r4, pc}
 416              	.L42:
 417 002e C046     		.align	2
 418              	.L41:
ARM GAS  C:\Users\744\AppData\Local\Temp\cc8e7qOt.s 			page 22


 419 0030 BFD40100 		.word	119999
 420 0034 92000F40 		.word	1074725010
 421              		.cfi_endproc
 422              	.LFE0:
 423              		.size	Debounce_Timer_Init, .-Debounce_Timer_Init
 424              		.section	.text.Debounce_Timer_Start,"ax",%progbits
 425              		.align	2
 426              		.global	Debounce_Timer_Start
 427              		.code	16
 428              		.thumb_func
 429              		.type	Debounce_Timer_Start, %function
 430              	Debounce_Timer_Start:
 431              	.LFB2:
 216:.\Generated_Source\PSoC4/Debounce_Timer.c ****     if(Debounce_Timer_initVar == 0u)
 432              		.loc 1 216 0
 433              		.cfi_startproc
 434 0000 08B5     		push	{r3, lr}
 435              		.cfi_def_cfa_offset 8
 436              		.cfi_offset 3, -8
 437              		.cfi_offset 14, -4
 217:.\Generated_Source\PSoC4/Debounce_Timer.c ****     {
 438              		.loc 1 217 0
 439 0002 064B     		ldr	r3, .L45
 440 0004 1B78     		ldrb	r3, [r3]
 441 0006 002B     		cmp	r3, #0
 442 0008 04D1     		bne	.L44
 219:.\Generated_Source\PSoC4/Debounce_Timer.c **** 
 443              		.loc 1 219 0
 444 000a FFF7FEFF 		bl	Debounce_Timer_Init
 445              	.LVL19:
 221:.\Generated_Source\PSoC4/Debounce_Timer.c ****     }
 446              		.loc 1 221 0
 447 000e 0122     		mov	r2, #1
 448 0010 024B     		ldr	r3, .L45
 449 0012 1A70     		strb	r2, [r3]
 450              	.L44:
 225:.\Generated_Source\PSoC4/Debounce_Timer.c **** }
 451              		.loc 1 225 0
 452 0014 FFF7FEFF 		bl	Debounce_Timer_Enable
 453              	.LVL20:
 226:.\Generated_Source\PSoC4/Debounce_Timer.c **** 
 454              		.loc 1 226 0
 455              		@ sp needed
 456 0018 08BD     		pop	{r3, pc}
 457              	.L46:
 458 001a C046     		.align	2
 459              	.L45:
 460 001c 00000000 		.word	.LANCHOR0
 461              		.cfi_endproc
 462              	.LFE2:
 463              		.size	Debounce_Timer_Start, .-Debounce_Timer_Start
 464              		.global	Debounce_Timer_initVar
 465              		.bss
 466              		.set	.LANCHOR0,. + 0
 467              		.type	Debounce_Timer_initVar, %object
 468              		.size	Debounce_Timer_initVar, 1
 469              	Debounce_Timer_initVar:
ARM GAS  C:\Users\744\AppData\Local\Temp\cc8e7qOt.s 			page 23


 470 0000 00       		.space	1
 471              		.text
 472              	.Letext0:
 473              		.file 2 ".\\Generated_Source\\PSoC4\\cytypes.h"
 474              		.file 3 ".\\Generated_Source\\PSoC4\\CyLib.h"