ARM GAS  C:\Users\744\AppData\Local\Temp\ccZ3lZ1y.s 			page 1


   1              		.cpu cortex-m0
   2              		.fpu softvfp
   3              		.eabi_attribute 20, 1
   4              		.eabi_attribute 21, 1
   5              		.eabi_attribute 23, 3
   6              		.eabi_attribute 24, 1
   7              		.eabi_attribute 25, 1
   8              		.eabi_attribute 26, 1
   9              		.eabi_attribute 30, 1
  10              		.eabi_attribute 34, 0
  11              		.eabi_attribute 18, 4
  12              		.code	16
  13              		.file	"main.c"
  14              		.text
  15              	.Ltext0:
  16              		.cfi_sections	.debug_frame
  17              		.section	.text.init,"ax",%progbits
  18              		.align	2
  19              		.global	init
  20              		.code	16
  21              		.thumb_func
  22              		.type	init, %function
  23              	init:
  24              	.LFB34:
  25              		.file 1 ".\\main.c"
   1:.\main.c      **** /* ========================================
   2:.\main.c      ****  *
   3:.\main.c      ****  * Copyright YOUR COMPANY, THE YEAR
   4:.\main.c      ****  * All Rights Reserved
   5:.\main.c      ****  * UNPUBLISHED, LICENSED SOFTWARE.
   6:.\main.c      ****  *
   7:.\main.c      ****  * CONFIDENTIAL AND PROPRIETARY INFORMATION
   8:.\main.c      ****  * WHICH IS THE PROPERTY OF your company.
   9:.\main.c      ****  *
  10:.\main.c      ****  * ========================================
  11:.\main.c      **** */
  12:.\main.c      **** 
  13:.\main.c      **** #include <project.h>
  14:.\main.c      **** #include <device.h>
  15:.\main.c      **** #include <Keyboard.h>
  16:.\main.c      **** #include <stdlib.h>
  17:.\main.c      **** #include <string.h>
  18:.\main.c      **** #include <stdio.h>
  19:.\main.c      **** #include <stdbool.h>
  20:.\main.c      **** 
  21:.\main.c      **** #define LCD_LINELENGTH 16
  22:.\main.c      **** 
  23:.\main.c      **** typedef enum Operation
  24:.\main.c      **** {
  25:.\main.c      ****     Operator_None      = 0,
  26:.\main.c      ****     Operator_Plus      = '+',
  27:.\main.c      ****     Operator_Minus     = '-',
  28:.\main.c      ****     Operator_Multiply  = '*',
  29:.\main.c      ****     Operator_Division  = '/'
  30:.\main.c      **** } Operation;
  31:.\main.c      **** 
  32:.\main.c      **** Operation mode = Operator_None;
ARM GAS  C:\Users\744\AppData\Local\Temp\ccZ3lZ1y.s 			page 2


  33:.\main.c      **** 
  34:.\main.c      **** void input_number(const char num);
  35:.\main.c      **** void set_operation(const char* op, Operation m);
  36:.\main.c      **** 
  37:.\main.c      **** void init();
  38:.\main.c      **** void print_result(double result);
  39:.\main.c      **** 
  40:.\main.c      **** bool is_pressed_equal = true;
  41:.\main.c      **** bool is_first = false;
  42:.\main.c      **** uint8 Key;
  43:.\main.c      **** uint8 firstOperand  = 0;
  44:.\main.c      **** uint8 secondOperand = 0;
  45:.\main.c      **** uint8 LCD_Index = 0;
  46:.\main.c      **** 
  47:.\main.c      **** char buffer[32];
  48:.\main.c      **** char value1[16];
  49:.\main.c      **** char value2[16];
  50:.\main.c      **** uint8 i = 0;
  51:.\main.c      **** 
  52:.\main.c      **** int main()
  53:.\main.c      **** {
  54:.\main.c      ****     CyGlobalIntEnable; /* Enable global interrupts. */
  55:.\main.c      ****     LCD_Start();
  56:.\main.c      ****     Keyboard_Init();
  57:.\main.c      **** 
  58:.\main.c      ****     init();                         //cleaning all buffers in our system from all trash.
  59:.\main.c      **** 
  60:.\main.c      ****     for(;;)
  61:.\main.c      ****     {
  62:.\main.c      **** 
  63:.\main.c      ****         Key = Get_KBD_Char();		//Value recieved from Matrix
  64:.\main.c      ****         switch(Key)                 //Recognition of pressed key
  65:.\main.c      ****         {
  66:.\main.c      ****             case '+':
  67:.\main.c      ****                 set_operation("+", Operator_Plus);
  68:.\main.c      ****                 break;
  69:.\main.c      **** 
  70:.\main.c      ****             case '-':
  71:.\main.c      ****                 set_operation("-", Operator_Minus);
  72:.\main.c      ****                 break;
  73:.\main.c      **** 
  74:.\main.c      ****             case '*':
  75:.\main.c      ****                 set_operation("*", Operator_Multiply);
  76:.\main.c      ****                 break;
  77:.\main.c      **** 
  78:.\main.c      ****             case '/':
  79:.\main.c      ****                 set_operation("/", Operator_Division);
  80:.\main.c      ****                 break;
  81:.\main.c      **** 
  82:.\main.c      ****             case '=':
  83:.\main.c      ****                 LCD_Position(1,0);
  84:.\main.c      ****                 LCD_PrintString("=");
  85:.\main.c      ****                 if (mode == Operator_Plus)
  86:.\main.c      ****                     print_result(atof(value1) + atof(value2));  //converting our char to float and 
  87:.\main.c      ****                 else if (mode == Operator_Minus)
  88:.\main.c      ****                     print_result(atof(value1) - atof(value2));
  89:.\main.c      ****                 else if (mode == Operator_Multiply)
ARM GAS  C:\Users\744\AppData\Local\Temp\ccZ3lZ1y.s 			page 3


  90:.\main.c      ****                     print_result(atof(value1) * atof(value2));
  91:.\main.c      ****                 else if (mode == Operator_Division)
  92:.\main.c      ****                     print_result(atof(value1) / atof(value2));
  93:.\main.c      ****                 else
  94:.\main.c      ****                 {
  95:.\main.c      ****                     init();     //clearing all buffers and screen if any operator was presed
  96:.\main.c      ****                     LCD_Position(0,5);LCD_PrintString("error");
  97:.\main.c      ****                 }
  98:.\main.c      ****                 break;
  99:.\main.c      **** 
 100:.\main.c      ****             case '.':
 101:.\main.c      ****                 input_number('.');
 102:.\main.c      ****                 break;
 103:.\main.c      ****             case '1':
 104:.\main.c      ****                 input_number('1');
 105:.\main.c      ****                 break;
 106:.\main.c      ****             case '2':
 107:.\main.c      ****                 input_number('2');
 108:.\main.c      ****                 break;
 109:.\main.c      ****             case '3':
 110:.\main.c      ****                 input_number('3');
 111:.\main.c      ****                 break;
 112:.\main.c      ****             case '4':
 113:.\main.c      ****                 input_number('4');
 114:.\main.c      ****                 break;
 115:.\main.c      ****             case '5':
 116:.\main.c      ****                 input_number('5');
 117:.\main.c      ****                 break;
 118:.\main.c      ****             case '6':
 119:.\main.c      ****                 input_number('6');
 120:.\main.c      ****                 break;
 121:.\main.c      ****             case '7':
 122:.\main.c      ****                 input_number('7');
 123:.\main.c      ****                 break;
 124:.\main.c      ****             case '8':
 125:.\main.c      ****                 input_number('8');
 126:.\main.c      ****                 break;
 127:.\main.c      ****             case '9':
 128:.\main.c      ****                 input_number('9');
 129:.\main.c      ****                 break;
 130:.\main.c      ****             case '0':
 131:.\main.c      ****                 input_number('0');
 132:.\main.c      ****                 break;
 133:.\main.c      **** 
 134:.\main.c      ****             default:
 135:.\main.c      ****                 memset(buffer,0,16);
 136:.\main.c      ****                 LCD_Position(0,0);
 137:.\main.c      ****                 LCD_PrintString("INPUT SMTH");
 138:.\main.c      ****         }
 139:.\main.c      ****     }
 140:.\main.c      **** }
 141:.\main.c      **** 
 142:.\main.c      **** 
 143:.\main.c      **** void init()
 144:.\main.c      **** {
  26              		.loc 1 144 0
  27              		.cfi_startproc
ARM GAS  C:\Users\744\AppData\Local\Temp\ccZ3lZ1y.s 			page 4


  28 0000 08B5     		push	{r3, lr}
  29              		.cfi_def_cfa_offset 8
  30              		.cfi_offset 3, -8
  31              		.cfi_offset 14, -4
 145:.\main.c      ****     memset(value1,0,sizeof(value1));    //clearing the first value's buffer
  32              		.loc 1 145 0
  33 0002 0C48     		ldr	r0, .L2
  34 0004 0021     		mov	r1, #0
  35 0006 1022     		mov	r2, #16
  36 0008 FFF7FEFF 		bl	memset
  37              	.LVL0:
 146:.\main.c      ****     memset(value2,0,sizeof(value2));    //clearing the first value's buffer
  38              		.loc 1 146 0
  39 000c 0A48     		ldr	r0, .L2+4
  40 000e 0021     		mov	r1, #0
  41 0010 1022     		mov	r2, #16
  42 0012 FFF7FEFF 		bl	memset
  43              	.LVL1:
 147:.\main.c      ****     memset(buffer,0, sizeof(buffer));   //clearing main buffer after key was pressed
  44              		.loc 1 147 0
  45 0016 0948     		ldr	r0, .L2+8
  46 0018 0021     		mov	r1, #0
  47 001a 2022     		mov	r2, #32
  48 001c FFF7FEFF 		bl	memset
  49              	.LVL2:
 148:.\main.c      ****     is_first = true;
  50              		.loc 1 148 0
  51 0020 074B     		ldr	r3, .L2+12
  52 0022 0122     		mov	r2, #1
  53 0024 1A70     		strb	r2, [r3]
 149:.\main.c      ****     i = 0;
  54              		.loc 1 149 0
  55 0026 0022     		mov	r2, #0
  56 0028 5A70     		strb	r2, [r3, #1]
 150:.\main.c      ****     mode = Operator_None;
  57              		.loc 1 150 0
  58 002a 9A70     		strb	r2, [r3, #2]
 151:.\main.c      ****     LCD_ClearDisplay();
  59              		.loc 1 151 0
  60 002c 0120     		mov	r0, #1
  61 002e FFF7FEFF 		bl	LCD_WriteControl
  62              	.LVL3:
 152:.\main.c      **** }
  63              		.loc 1 152 0
  64              		@ sp needed
  65 0032 08BD     		pop	{r3, pc}
  66              	.L3:
  67              		.align	2
  68              	.L2:
  69 0034 00000000 		.word	value1
  70 0038 00000000 		.word	value2
  71 003c 00000000 		.word	buffer
  72 0040 00000000 		.word	.LANCHOR0
  73              		.cfi_endproc
  74              	.LFE34:
  75              		.size	init, .-init
  76              		.section	.text.set_operation,"ax",%progbits
ARM GAS  C:\Users\744\AppData\Local\Temp\ccZ3lZ1y.s 			page 5


  77              		.align	2
  78              		.global	set_operation
  79              		.code	16
  80              		.thumb_func
  81              		.type	set_operation, %function
  82              	set_operation:
  83              	.LFB35:
 153:.\main.c      **** 
 154:.\main.c      **** 
 155:.\main.c      **** void set_operation(const char* op, Operation m)
 156:.\main.c      **** {
  84              		.loc 1 156 0
  85              		.cfi_startproc
  86              	.LVL4:
  87 0000 10B5     		push	{r4, lr}
  88              		.cfi_def_cfa_offset 8
  89              		.cfi_offset 4, -8
  90              		.cfi_offset 14, -4
  91 0002 0C1C     		mov	r4, r1
 157:.\main.c      ****     if(mode != Operator_None) return;       //ensurence that operator was chosen
  92              		.loc 1 157 0
  93 0004 074B     		ldr	r3, .L6
  94 0006 9B78     		ldrb	r3, [r3, #2]
  95 0008 002B     		cmp	r3, #0
  96 000a 09D1     		bne	.L4
 158:.\main.c      ****     LCD_PrintString(op);
  97              		.loc 1 158 0
  98 000c FFF7FEFF 		bl	LCD_PrintString
  99              	.LVL5:
 159:.\main.c      ****     mode = m;
 100              		.loc 1 159 0
 101 0010 044B     		ldr	r3, .L6
 102 0012 9C70     		strb	r4, [r3, #2]
 160:.\main.c      **** 
 161:.\main.c      ****     is_first = !is_first;
 103              		.loc 1 161 0
 104 0014 1978     		ldrb	r1, [r3]
 105 0016 0122     		mov	r2, #1
 106 0018 4A40     		eor	r2, r1
 107 001a 1A70     		strb	r2, [r3]
 162:.\main.c      ****     i = 0;
 108              		.loc 1 162 0
 109 001c 0022     		mov	r2, #0
 110 001e 5A70     		strb	r2, [r3, #1]
 111              	.L4:
 163:.\main.c      **** }
 112              		.loc 1 163 0
 113              		@ sp needed
 114 0020 10BD     		pop	{r4, pc}
 115              	.L7:
 116 0022 C046     		.align	2
 117              	.L6:
 118 0024 00000000 		.word	.LANCHOR0
 119              		.cfi_endproc
 120              	.LFE35:
 121              		.size	set_operation, .-set_operation
 122              		.section	.text.input_number,"ax",%progbits
ARM GAS  C:\Users\744\AppData\Local\Temp\ccZ3lZ1y.s 			page 6


 123              		.align	2
 124              		.global	input_number
 125              		.code	16
 126              		.thumb_func
 127              		.type	input_number, %function
 128              	input_number:
 129              	.LFB36:
 164:.\main.c      **** 
 165:.\main.c      **** void input_number(const char num)
 166:.\main.c      **** {
 130              		.loc 1 166 0
 131              		.cfi_startproc
 132              	.LVL6:
 133 0000 10B5     		push	{r4, lr}
 134              		.cfi_def_cfa_offset 8
 135              		.cfi_offset 4, -8
 136              		.cfi_offset 14, -4
 137 0002 041C     		mov	r4, r0
 167:.\main.c      ****     	LCD_PutChar(num);
 138              		.loc 1 167 0
 139 0004 FFF7FEFF 		bl	LCD_PutChar
 140              	.LVL7:
 168:.\main.c      ****         if(is_first)
 141              		.loc 1 168 0
 142 0008 084B     		ldr	r3, .L11
 143 000a 1B78     		ldrb	r3, [r3]
 144 000c 002B     		cmp	r3, #0
 145 000e 06D0     		beq	.L9
 169:.\main.c      ****         {
 170:.\main.c      ****             value1[i++] = num;
 146              		.loc 1 170 0
 147 0010 064A     		ldr	r2, .L11
 148 0012 5378     		ldrb	r3, [r2, #1]
 149 0014 591C     		add	r1, r3, #1
 150 0016 5170     		strb	r1, [r2, #1]
 151 0018 054A     		ldr	r2, .L11+4
 152 001a D454     		strb	r4, [r2, r3]
 153 001c 05E0     		b	.L8
 154              	.L9:
 171:.\main.c      ****         }
 172:.\main.c      ****         else
 173:.\main.c      ****         {
 174:.\main.c      ****             value2[i++] = num;
 155              		.loc 1 174 0
 156 001e 034A     		ldr	r2, .L11
 157 0020 5378     		ldrb	r3, [r2, #1]
 158 0022 591C     		add	r1, r3, #1
 159 0024 5170     		strb	r1, [r2, #1]
 160 0026 034A     		ldr	r2, .L11+8
 161 0028 D454     		strb	r4, [r2, r3]
 162              	.L8:
 175:.\main.c      ****         }
 176:.\main.c      **** 
 177:.\main.c      **** }
 163              		.loc 1 177 0
 164              		@ sp needed
 165 002a 10BD     		pop	{r4, pc}
ARM GAS  C:\Users\744\AppData\Local\Temp\ccZ3lZ1y.s 			page 7


 166              	.L12:
 167              		.align	2
 168              	.L11:
 169 002c 00000000 		.word	.LANCHOR0
 170 0030 00000000 		.word	value1
 171 0034 00000000 		.word	value2
 172              		.cfi_endproc
 173              	.LFE36:
 174              		.size	input_number, .-input_number
 175              		.section	.text.print_result,"ax",%progbits
 176              		.align	2
 177              		.global	print_result
 178              		.code	16
 179              		.thumb_func
 180              		.type	print_result, %function
 181              	print_result:
 182              	.LFB37:
 178:.\main.c      **** 
 179:.\main.c      **** void print_result(double result)
 180:.\main.c      **** {
 183              		.loc 1 180 0
 184              		.cfi_startproc
 185              	.LVL8:
 186 0000 10B5     		push	{r4, lr}
 187              		.cfi_def_cfa_offset 8
 188              		.cfi_offset 4, -8
 189              		.cfi_offset 14, -4
 190 0002 021C     		mov	r2, r0
 191 0004 0B1C     		mov	r3, r1
 181:.\main.c      ****     sprintf( buffer, "%.2f", result);       //transformation recieved result from double to string
 192              		.loc 1 181 0
 193 0006 044C     		ldr	r4, .L14
 194 0008 201C     		mov	r0, r4
 195              	.LVL9:
 196 000a 0449     		ldr	r1, .L14+4
 197 000c FFF7FEFF 		bl	sprintf
 198              	.LVL10:
 182:.\main.c      ****     LCD_PrintString(buffer);
 199              		.loc 1 182 0
 200 0010 201C     		mov	r0, r4
 201 0012 FFF7FEFF 		bl	LCD_PrintString
 202              	.LVL11:
 183:.\main.c      **** }
 203              		.loc 1 183 0
 204              		@ sp needed
 205 0016 10BD     		pop	{r4, pc}
 206              	.L15:
 207              		.align	2
 208              	.L14:
 209 0018 00000000 		.word	buffer
 210 001c 00000000 		.word	.LC9
 211              		.cfi_endproc
 212              	.LFE37:
 213              		.size	print_result, .-print_result
 214              		.global	__aeabi_dadd
 215              		.global	__aeabi_dsub
 216              		.global	__aeabi_dmul
ARM GAS  C:\Users\744\AppData\Local\Temp\ccZ3lZ1y.s 			page 8


 217              		.global	__aeabi_ddiv
 218              		.section	.text.main,"ax",%progbits
 219              		.align	2
 220              		.global	main
 221              		.code	16
 222              		.thumb_func
 223              		.type	main, %function
 224              	main:
 225              	.LFB33:
  53:.\main.c      ****     CyGlobalIntEnable; /* Enable global interrupts. */
 226              		.loc 1 53 0
 227              		.cfi_startproc
 228 0000 38B5     		push	{r3, r4, r5, lr}
 229              		.cfi_def_cfa_offset 16
 230              		.cfi_offset 3, -16
 231              		.cfi_offset 4, -12
 232              		.cfi_offset 5, -8
 233              		.cfi_offset 14, -4
  54:.\main.c      ****     LCD_Start();
 234              		.loc 1 54 0
 235              	@ 54 ".\main.c" 1
 236 0002 62B6     		CPSIE   i
 237              	@ 0 "" 2
  55:.\main.c      ****     Keyboard_Init();
 238              		.loc 1 55 0
 239              		.code	16
 240 0004 FFF7FEFF 		bl	LCD_Start
 241              	.LVL12:
  56:.\main.c      **** 
 242              		.loc 1 56 0
 243 0008 FFF7FEFF 		bl	Keyboard_Init
 244              	.LVL13:
  58:.\main.c      **** 
 245              		.loc 1 58 0
 246 000c FFF7FEFF 		bl	init
 247              	.LVL14:
 248              	.L17:
  63:.\main.c      ****         switch(Key)                 //Recognition of pressed key
 249              		.loc 1 63 0
 250 0010 FFF7FEFF 		bl	Get_KBD_Char
 251              	.LVL15:
 252 0014 5B4B     		ldr	r3, .L41
 253 0016 1870     		strb	r0, [r3]
  64:.\main.c      ****         {
 254              		.loc 1 64 0
 255 0018 2A38     		sub	r0, r0, #42
 256 001a C3B2     		uxtb	r3, r0
 257 001c 132B     		cmp	r3, #19
 258 001e 00D9     		bls	.LCB196
 259 0020 A2E0     		b	.L18	@long jump
 260              	.LCB196:
 261 0022 9800     		lsl	r0, r3, #2
 262 0024 584B     		ldr	r3, .L41+4
 263 0026 1B58     		ldr	r3, [r3, r0]
 264 0028 9F46     		mov	pc, r3
 265              		.section	.rodata
 266              		.align	2
ARM GAS  C:\Users\744\AppData\Local\Temp\ccZ3lZ1y.s 			page 9


 267              	.L20:
 268 0000 3E000000 		.word	.L19
 269 0004 2A000000 		.word	.L21
 270 0008 68010000 		.word	.L18
 271 000c 34000000 		.word	.L22
 272 0010 10010000 		.word	.L23
 273 0014 48000000 		.word	.L24
 274 0018 60010000 		.word	.L25
 275 001c 18010000 		.word	.L26
 276 0020 20010000 		.word	.L27
 277 0024 28010000 		.word	.L28
 278 0028 30010000 		.word	.L29
 279 002c 38010000 		.word	.L30
 280 0030 40010000 		.word	.L31
 281 0034 48010000 		.word	.L32
 282 0038 50010000 		.word	.L33
 283 003c 58010000 		.word	.L34
 284 0040 68010000 		.word	.L18
 285 0044 68010000 		.word	.L18
 286 0048 68010000 		.word	.L18
 287 004c 52000000 		.word	.L35
 288              		.section	.text.main
 289              	.L21:
  67:.\main.c      ****                 break;
 290              		.loc 1 67 0
 291 002a 5848     		ldr	r0, .L41+8
 292 002c 2B21     		mov	r1, #43
 293 002e FFF7FEFF 		bl	set_operation
 294              	.LVL16:
  68:.\main.c      **** 
 295              		.loc 1 68 0
 296 0032 EDE7     		b	.L17
 297              	.L22:
  71:.\main.c      ****                 break;
 298              		.loc 1 71 0
 299 0034 5648     		ldr	r0, .L41+12
 300 0036 2D21     		mov	r1, #45
 301 0038 FFF7FEFF 		bl	set_operation
 302              	.LVL17:
  72:.\main.c      **** 
 303              		.loc 1 72 0
 304 003c E8E7     		b	.L17
 305              	.L19:
  75:.\main.c      ****                 break;
 306              		.loc 1 75 0
 307 003e 5548     		ldr	r0, .L41+16
 308 0040 2A21     		mov	r1, #42
 309 0042 FFF7FEFF 		bl	set_operation
 310              	.LVL18:
  76:.\main.c      **** 
 311              		.loc 1 76 0
 312 0046 E3E7     		b	.L17
 313              	.L24:
  79:.\main.c      ****                 break;
 314              		.loc 1 79 0
 315 0048 5348     		ldr	r0, .L41+20
 316 004a 2F21     		mov	r1, #47
ARM GAS  C:\Users\744\AppData\Local\Temp\ccZ3lZ1y.s 			page 10


 317 004c FFF7FEFF 		bl	set_operation
 318              	.LVL19:
  80:.\main.c      **** 
 319              		.loc 1 80 0
 320 0050 DEE7     		b	.L17
 321              	.L35:
  83:.\main.c      ****                 LCD_PrintString("=");
 322              		.loc 1 83 0
 323 0052 0120     		mov	r0, #1
 324 0054 0021     		mov	r1, #0
 325 0056 FFF7FEFF 		bl	LCD_Position
 326              	.LVL20:
  84:.\main.c      ****                 if (mode == Operator_Plus)
 327              		.loc 1 84 0
 328 005a 5048     		ldr	r0, .L41+24
 329 005c FFF7FEFF 		bl	LCD_PrintString
 330              	.LVL21:
  85:.\main.c      ****                     print_result(atof(value1) + atof(value2));  //converting our char to float and 
 331              		.loc 1 85 0
 332 0060 4F4B     		ldr	r3, .L41+28
 333 0062 9B78     		ldrb	r3, [r3, #2]
 334 0064 2B2B     		cmp	r3, #43
 335 0066 10D1     		bne	.L37
  86:.\main.c      ****                 else if (mode == Operator_Minus)
 336              		.loc 1 86 0
 337 0068 4E48     		ldr	r0, .L41+32
 338 006a FFF7FEFF 		bl	atof
 339              	.LVL22:
 340 006e 041C     		mov	r4, r0
 341 0070 0D1C     		mov	r5, r1
 342 0072 4D48     		ldr	r0, .L41+36
 343 0074 FFF7FEFF 		bl	atof
 344              	.LVL23:
 345 0078 021C     		mov	r2, r0
 346 007a 0B1C     		mov	r3, r1
 347 007c 201C     		mov	r0, r4
 348 007e 291C     		mov	r1, r5
 349 0080 FFF7FEFF 		bl	__aeabi_dadd
 350              	.LVL24:
 351 0084 FFF7FEFF 		bl	print_result
 352              	.LVL25:
 353 0088 C2E7     		b	.L17
 354              	.L37:
  87:.\main.c      ****                     print_result(atof(value1) - atof(value2));
 355              		.loc 1 87 0
 356 008a 2D2B     		cmp	r3, #45
 357 008c 10D1     		bne	.L38
  88:.\main.c      ****                 else if (mode == Operator_Multiply)
 358              		.loc 1 88 0
 359 008e 4548     		ldr	r0, .L41+32
 360 0090 FFF7FEFF 		bl	atof
 361              	.LVL26:
 362 0094 041C     		mov	r4, r0
 363 0096 0D1C     		mov	r5, r1
 364 0098 4348     		ldr	r0, .L41+36
 365 009a FFF7FEFF 		bl	atof
 366              	.LVL27:
ARM GAS  C:\Users\744\AppData\Local\Temp\ccZ3lZ1y.s 			page 11


 367 009e 021C     		mov	r2, r0
 368 00a0 0B1C     		mov	r3, r1
 369 00a2 201C     		mov	r0, r4
 370 00a4 291C     		mov	r1, r5
 371 00a6 FFF7FEFF 		bl	__aeabi_dsub
 372              	.LVL28:
 373 00aa FFF7FEFF 		bl	print_result
 374              	.LVL29:
 375 00ae AFE7     		b	.L17
 376              	.L38:
  89:.\main.c      ****                     print_result(atof(value1) * atof(value2));
 377              		.loc 1 89 0
 378 00b0 2A2B     		cmp	r3, #42
 379 00b2 10D1     		bne	.L39
  90:.\main.c      ****                 else if (mode == Operator_Division)
 380              		.loc 1 90 0
 381 00b4 3B48     		ldr	r0, .L41+32
 382 00b6 FFF7FEFF 		bl	atof
 383              	.LVL30:
 384 00ba 041C     		mov	r4, r0
 385 00bc 0D1C     		mov	r5, r1
 386 00be 3A48     		ldr	r0, .L41+36
 387 00c0 FFF7FEFF 		bl	atof
 388              	.LVL31:
 389 00c4 021C     		mov	r2, r0
 390 00c6 0B1C     		mov	r3, r1
 391 00c8 201C     		mov	r0, r4
 392 00ca 291C     		mov	r1, r5
 393 00cc FFF7FEFF 		bl	__aeabi_dmul
 394              	.LVL32:
 395 00d0 FFF7FEFF 		bl	print_result
 396              	.LVL33:
 397 00d4 9CE7     		b	.L17
 398              	.L39:
  91:.\main.c      ****                     print_result(atof(value1) / atof(value2));
 399              		.loc 1 91 0
 400 00d6 2F2B     		cmp	r3, #47
 401 00d8 10D1     		bne	.L40
  92:.\main.c      ****                 else
 402              		.loc 1 92 0
 403 00da 3248     		ldr	r0, .L41+32
 404 00dc FFF7FEFF 		bl	atof
 405              	.LVL34:
 406 00e0 041C     		mov	r4, r0
 407 00e2 0D1C     		mov	r5, r1
 408 00e4 3048     		ldr	r0, .L41+36
 409 00e6 FFF7FEFF 		bl	atof
 410              	.LVL35:
 411 00ea 021C     		mov	r2, r0
 412 00ec 0B1C     		mov	r3, r1
 413 00ee 201C     		mov	r0, r4
 414 00f0 291C     		mov	r1, r5
 415 00f2 FFF7FEFF 		bl	__aeabi_ddiv
 416              	.LVL36:
 417 00f6 FFF7FEFF 		bl	print_result
 418              	.LVL37:
 419 00fa 89E7     		b	.L17
ARM GAS  C:\Users\744\AppData\Local\Temp\ccZ3lZ1y.s 			page 12


 420              	.L40:
  95:.\main.c      ****                     LCD_Position(0,5);LCD_PrintString("error");
 421              		.loc 1 95 0
 422 00fc FFF7FEFF 		bl	init
 423              	.LVL38:
  96:.\main.c      ****                 }
 424              		.loc 1 96 0
 425 0100 0020     		mov	r0, #0
 426 0102 0521     		mov	r1, #5
 427 0104 FFF7FEFF 		bl	LCD_Position
 428              	.LVL39:
 429 0108 2848     		ldr	r0, .L41+40
 430 010a FFF7FEFF 		bl	LCD_PrintString
 431              	.LVL40:
 432 010e 7FE7     		b	.L17
 433              	.L23:
 101:.\main.c      ****                 break;
 434              		.loc 1 101 0
 435 0110 2E20     		mov	r0, #46
 436 0112 FFF7FEFF 		bl	input_number
 437              	.LVL41:
 102:.\main.c      ****             case '1':
 438              		.loc 1 102 0
 439 0116 7BE7     		b	.L17
 440              	.L26:
 104:.\main.c      ****                 break;
 441              		.loc 1 104 0
 442 0118 3120     		mov	r0, #49
 443 011a FFF7FEFF 		bl	input_number
 444              	.LVL42:
 105:.\main.c      ****             case '2':
 445              		.loc 1 105 0
 446 011e 77E7     		b	.L17
 447              	.L27:
 107:.\main.c      ****                 break;
 448              		.loc 1 107 0
 449 0120 3220     		mov	r0, #50
 450 0122 FFF7FEFF 		bl	input_number
 451              	.LVL43:
 108:.\main.c      ****             case '3':
 452              		.loc 1 108 0
 453 0126 73E7     		b	.L17
 454              	.L28:
 110:.\main.c      ****                 break;
 455              		.loc 1 110 0
 456 0128 3320     		mov	r0, #51
 457 012a FFF7FEFF 		bl	input_number
 458              	.LVL44:
 111:.\main.c      ****             case '4':
 459              		.loc 1 111 0
 460 012e 6FE7     		b	.L17
 461              	.L29:
 113:.\main.c      ****                 break;
 462              		.loc 1 113 0
 463 0130 3420     		mov	r0, #52
 464 0132 FFF7FEFF 		bl	input_number
 465              	.LVL45:
ARM GAS  C:\Users\744\AppData\Local\Temp\ccZ3lZ1y.s 			page 13


 114:.\main.c      ****             case '5':
 466              		.loc 1 114 0
 467 0136 6BE7     		b	.L17
 468              	.L30:
 116:.\main.c      ****                 break;
 469              		.loc 1 116 0
 470 0138 3520     		mov	r0, #53
 471 013a FFF7FEFF 		bl	input_number
 472              	.LVL46:
 117:.\main.c      ****             case '6':
 473              		.loc 1 117 0
 474 013e 67E7     		b	.L17
 475              	.L31:
 119:.\main.c      ****                 break;
 476              		.loc 1 119 0
 477 0140 3620     		mov	r0, #54
 478 0142 FFF7FEFF 		bl	input_number
 479              	.LVL47:
 120:.\main.c      ****             case '7':
 480              		.loc 1 120 0
 481 0146 63E7     		b	.L17
 482              	.L32:
 122:.\main.c      ****                 break;
 483              		.loc 1 122 0
 484 0148 3720     		mov	r0, #55
 485 014a FFF7FEFF 		bl	input_number
 486              	.LVL48:
 123:.\main.c      ****             case '8':
 487              		.loc 1 123 0
 488 014e 5FE7     		b	.L17
 489              	.L33:
 125:.\main.c      ****                 break;
 490              		.loc 1 125 0
 491 0150 3820     		mov	r0, #56
 492 0152 FFF7FEFF 		bl	input_number
 493              	.LVL49:
 126:.\main.c      ****             case '9':
 494              		.loc 1 126 0
 495 0156 5BE7     		b	.L17
 496              	.L34:
 128:.\main.c      ****                 break;
 497              		.loc 1 128 0
 498 0158 3920     		mov	r0, #57
 499 015a FFF7FEFF 		bl	input_number
 500              	.LVL50:
 129:.\main.c      ****             case '0':
 501              		.loc 1 129 0
 502 015e 57E7     		b	.L17
 503              	.L25:
 131:.\main.c      ****                 break;
 504              		.loc 1 131 0
 505 0160 3020     		mov	r0, #48
 506 0162 FFF7FEFF 		bl	input_number
 507              	.LVL51:
 132:.\main.c      **** 
 508              		.loc 1 132 0
 509 0166 53E7     		b	.L17
ARM GAS  C:\Users\744\AppData\Local\Temp\ccZ3lZ1y.s 			page 14


 510              	.L18:
 135:.\main.c      ****                 LCD_Position(0,0);
 511              		.loc 1 135 0
 512 0168 1148     		ldr	r0, .L41+44
 513 016a 0021     		mov	r1, #0
 514 016c 1022     		mov	r2, #16
 515 016e FFF7FEFF 		bl	memset
 516              	.LVL52:
 136:.\main.c      ****                 LCD_PrintString("INPUT SMTH");
 517              		.loc 1 136 0
 518 0172 0020     		mov	r0, #0
 519 0174 0021     		mov	r1, #0
 520 0176 FFF7FEFF 		bl	LCD_Position
 521              	.LVL53:
 137:.\main.c      ****         }
 522              		.loc 1 137 0
 523 017a 0E48     		ldr	r0, .L41+48
 524 017c FFF7FEFF 		bl	LCD_PrintString
 525              	.LVL54:
 526 0180 46E7     		b	.L17
 527              	.L42:
 528 0182 C046     		.align	2
 529              	.L41:
 530 0184 00000000 		.word	Key
 531 0188 00000000 		.word	.L20
 532 018c 08000000 		.word	.LC13
 533 0190 0C000000 		.word	.LC15
 534 0194 10000000 		.word	.LC17
 535 0198 14000000 		.word	.LC19
 536 019c 18000000 		.word	.LC21
 537 01a0 00000000 		.word	.LANCHOR0
 538 01a4 00000000 		.word	value1
 539 01a8 00000000 		.word	value2
 540 01ac 1C000000 		.word	.LC26
 541 01b0 00000000 		.word	buffer
 542 01b4 24000000 		.word	.LC29
 543              		.cfi_endproc
 544              	.LFE33:
 545              		.size	main, .-main
 546              		.global	i
 547              		.comm	value2,16,4
 548              		.comm	value1,16,4
 549              		.comm	buffer,32,4
 550              		.global	LCD_Index
 551              		.global	secondOperand
 552              		.global	firstOperand
 553              		.comm	Key,1,1
 554              		.global	is_first
 555              		.global	is_pressed_equal
 556              		.global	mode
 557              		.data
 558              		.type	is_pressed_equal, %object
 559              		.size	is_pressed_equal, 1
 560              	is_pressed_equal:
 561 0000 01       		.byte	1
 562              		.section	.rodata.str1.4,"aMS",%progbits,1
 563              		.align	2
ARM GAS  C:\Users\744\AppData\Local\Temp\ccZ3lZ1y.s 			page 15


 564              	.LC9:
 565 0000 252E3266 		.ascii	"%.2f\000"
 565      00
 566 0005 000000   		.space	3
 567              	.LC13:
 568 0008 2B00     		.ascii	"+\000"
 569 000a 0000     		.space	2
 570              	.LC15:
 571 000c 2D00     		.ascii	"-\000"
 572 000e 0000     		.space	2
 573              	.LC17:
 574 0010 2A00     		.ascii	"*\000"
 575 0012 0000     		.space	2
 576              	.LC19:
 577 0014 2F00     		.ascii	"/\000"
 578 0016 0000     		.space	2
 579              	.LC21:
 580 0018 3D00     		.ascii	"=\000"
 581 001a 0000     		.space	2
 582              	.LC26:
 583 001c 6572726F 		.ascii	"error\000"
 583      7200
 584 0022 0000     		.space	2
 585              	.LC29:
 586 0024 494E5055 		.ascii	"INPUT SMTH\000"
 586      5420534D 
 586      544800
 587 002f 00       		.bss
 588              		.set	.LANCHOR0,. + 0
 589              		.type	is_first, %object
 590              		.size	is_first, 1
 591              	is_first:
 592 0000 00       		.space	1
 593              		.type	i, %object
 594              		.size	i, 1
 595              	i:
 596 0001 00       		.space	1
 597              		.type	mode, %object
 598              		.size	mode, 1
 599              	mode:
 600 0002 00       		.space	1
 601              		.type	LCD_Index, %object
 602              		.size	LCD_Index, 1
 603              	LCD_Index:
 604 0003 00       		.space	1
 605              		.type	secondOperand, %object
 606              		.size	secondOperand, 1
 607              	secondOperand:
 608 0004 00       		.space	1
 609              		.type	firstOperand, %object
 610              		.size	firstOperand, 1
 611              	firstOperand:
 612 0005 00       		.space	1
 613              		.text
 614              	.Letext0:
 615              		.file 2 "Generated_Source\\PSoC4/cytypes.h"
 616              		.file 3 "Generated_Source\\PSoC4/LCD.h"
ARM GAS  C:\Users\744\AppData\Local\Temp\ccZ3lZ1y.s 			page 16


 617              		.file 4 "./Keyboard.h"
 618              		.file 5 "c:\\program files (x86)\\cypress\\psoc creator\\3.3\\psoc creator\\import\\gnu\\arm\\4.9.
 619              		.file 6 "c:\\program files (x86)\\cypress\\psoc creator\\3.3\\psoc creator\\import\\gnu\\arm\\4.9.