ARM GAS  C:\Users\744\AppData\Local\Temp\ccnzmzQv.s 			page 1


   1              		.cpu cortex-m0
   2              		.fpu softvfp
   3              		.eabi_attribute 20, 1
   4              		.eabi_attribute 21, 1
   5              		.eabi_attribute 23, 3
   6              		.eabi_attribute 24, 1
   7              		.eabi_attribute 25, 1
   8              		.eabi_attribute 26, 1
   9              		.eabi_attribute 30, 1
  10              		.eabi_attribute 34, 0
  11              		.eabi_attribute 18, 4
  12              		.code	16
  13              		.file	"I2C_I2C_MASTER.c"
  14              		.text
  15              	.Ltext0:
  16              		.cfi_sections	.debug_frame
  17              		.section	.text.I2C_I2CMasterSendStart,"ax",%progbits
  18              		.align	2
  19              		.global	I2C_I2CMasterSendStart
  20              		.code	16
  21              		.thumb_func
  22              		.type	I2C_I2CMasterSendStart, %function
  23              	I2C_I2CMasterSendStart:
  24              	.LFB2:
  25              		.file 1 ".\\Generated_Source\\PSoC4\\I2C_I2C_MASTER.c"
   1:.\Generated_Source\PSoC4/I2C_I2C_MASTER.c **** /*******************************************************************************
   2:.\Generated_Source\PSoC4/I2C_I2C_MASTER.c **** * File Name: I2C_I2C_MASTER.c
   3:.\Generated_Source\PSoC4/I2C_I2C_MASTER.c **** * Version 3.10
   4:.\Generated_Source\PSoC4/I2C_I2C_MASTER.c **** *
   5:.\Generated_Source\PSoC4/I2C_I2C_MASTER.c **** * Description:
   6:.\Generated_Source\PSoC4/I2C_I2C_MASTER.c **** *  This file provides the source code to the API for the SCB Component in
   7:.\Generated_Source\PSoC4/I2C_I2C_MASTER.c **** *  I2C Master mode.
   8:.\Generated_Source\PSoC4/I2C_I2C_MASTER.c **** *
   9:.\Generated_Source\PSoC4/I2C_I2C_MASTER.c **** * Note:
  10:.\Generated_Source\PSoC4/I2C_I2C_MASTER.c **** *
  11:.\Generated_Source\PSoC4/I2C_I2C_MASTER.c **** *******************************************************************************
  12:.\Generated_Source\PSoC4/I2C_I2C_MASTER.c **** * Copyright 2013-2015, Cypress Semiconductor Corporation.  All rights reserved.
  13:.\Generated_Source\PSoC4/I2C_I2C_MASTER.c **** * You may use this file only in accordance with the license, terms, conditions,
  14:.\Generated_Source\PSoC4/I2C_I2C_MASTER.c **** * disclaimers, and limitations in the end user license agreement accompanying
  15:.\Generated_Source\PSoC4/I2C_I2C_MASTER.c **** * the software package with which this file was provided.
  16:.\Generated_Source\PSoC4/I2C_I2C_MASTER.c **** *******************************************************************************/
  17:.\Generated_Source\PSoC4/I2C_I2C_MASTER.c **** 
  18:.\Generated_Source\PSoC4/I2C_I2C_MASTER.c **** #include "I2C_PVT.h"
  19:.\Generated_Source\PSoC4/I2C_I2C_MASTER.c **** #include "I2C_I2C_PVT.h"
  20:.\Generated_Source\PSoC4/I2C_I2C_MASTER.c **** 
  21:.\Generated_Source\PSoC4/I2C_I2C_MASTER.c **** #if(I2C_I2C_MASTER_CONST)
  22:.\Generated_Source\PSoC4/I2C_I2C_MASTER.c **** 
  23:.\Generated_Source\PSoC4/I2C_I2C_MASTER.c **** /***************************************
  24:.\Generated_Source\PSoC4/I2C_I2C_MASTER.c **** *      I2C Master Private Vars
  25:.\Generated_Source\PSoC4/I2C_I2C_MASTER.c **** ***************************************/
  26:.\Generated_Source\PSoC4/I2C_I2C_MASTER.c **** 
  27:.\Generated_Source\PSoC4/I2C_I2C_MASTER.c **** /* Master variables */
  28:.\Generated_Source\PSoC4/I2C_I2C_MASTER.c **** volatile uint16 I2C_mstrStatus;      /* Master Status byte  */
  29:.\Generated_Source\PSoC4/I2C_I2C_MASTER.c **** volatile uint8  I2C_mstrControl;     /* Master Control byte */
  30:.\Generated_Source\PSoC4/I2C_I2C_MASTER.c **** 
  31:.\Generated_Source\PSoC4/I2C_I2C_MASTER.c **** /* Receive buffer variables */
  32:.\Generated_Source\PSoC4/I2C_I2C_MASTER.c **** volatile uint8 * I2C_mstrRdBufPtr;   /* Pointer to Master Read buffer */
ARM GAS  C:\Users\744\AppData\Local\Temp\ccnzmzQv.s 			page 2


  33:.\Generated_Source\PSoC4/I2C_I2C_MASTER.c **** volatile uint32  I2C_mstrRdBufSize;  /* Master Read buffer size       */
  34:.\Generated_Source\PSoC4/I2C_I2C_MASTER.c **** volatile uint32  I2C_mstrRdBufIndex; /* Master Read buffer Index      */
  35:.\Generated_Source\PSoC4/I2C_I2C_MASTER.c **** 
  36:.\Generated_Source\PSoC4/I2C_I2C_MASTER.c **** /* Transmit buffer variables */
  37:.\Generated_Source\PSoC4/I2C_I2C_MASTER.c **** volatile uint8 * I2C_mstrWrBufPtr;   /* Pointer to Master Write buffer */
  38:.\Generated_Source\PSoC4/I2C_I2C_MASTER.c **** volatile uint32  I2C_mstrWrBufSize;  /* Master Write buffer size       */
  39:.\Generated_Source\PSoC4/I2C_I2C_MASTER.c **** volatile uint32  I2C_mstrWrBufIndex; /* Master Write buffer Index      */
  40:.\Generated_Source\PSoC4/I2C_I2C_MASTER.c **** volatile uint32  I2C_mstrWrBufIndexTmp; /* Master Write buffer Index Tmp */
  41:.\Generated_Source\PSoC4/I2C_I2C_MASTER.c **** 
  42:.\Generated_Source\PSoC4/I2C_I2C_MASTER.c **** #if (!I2C_CY_SCBIP_V0 && \
  43:.\Generated_Source\PSoC4/I2C_I2C_MASTER.c ****     I2C_I2C_MULTI_MASTER_SLAVE_CONST && I2C_I2C_WAKE_ENABLE_CONST)
  44:.\Generated_Source\PSoC4/I2C_I2C_MASTER.c ****     static void I2C_I2CMasterDisableEcAm(void);
  45:.\Generated_Source\PSoC4/I2C_I2C_MASTER.c **** #endif /* (!I2C_CY_SCBIP_V0) */
  46:.\Generated_Source\PSoC4/I2C_I2C_MASTER.c **** 
  47:.\Generated_Source\PSoC4/I2C_I2C_MASTER.c **** 
  48:.\Generated_Source\PSoC4/I2C_I2C_MASTER.c **** /*******************************************************************************
  49:.\Generated_Source\PSoC4/I2C_I2C_MASTER.c **** * Function Name: I2C_I2CMasterWriteBuf
  50:.\Generated_Source\PSoC4/I2C_I2C_MASTER.c **** ********************************************************************************
  51:.\Generated_Source\PSoC4/I2C_I2C_MASTER.c **** *
  52:.\Generated_Source\PSoC4/I2C_I2C_MASTER.c **** * Summary:
  53:.\Generated_Source\PSoC4/I2C_I2C_MASTER.c **** * Automatically writes an entire buffer of data to a slave device.
  54:.\Generated_Source\PSoC4/I2C_I2C_MASTER.c **** * Once the data transfer is initiated by this function, further data transfer
  55:.\Generated_Source\PSoC4/I2C_I2C_MASTER.c **** * is handled by the included ISR.
  56:.\Generated_Source\PSoC4/I2C_I2C_MASTER.c **** * Enables the I2C interrupt and clears SCB_ I2C_MSTAT_WR_CMPLT status.
  57:.\Generated_Source\PSoC4/I2C_I2C_MASTER.c **** *
  58:.\Generated_Source\PSoC4/I2C_I2C_MASTER.c **** * Parameters:
  59:.\Generated_Source\PSoC4/I2C_I2C_MASTER.c **** *  slaveAddr: 7-bit slave address.
  60:.\Generated_Source\PSoC4/I2C_I2C_MASTER.c **** *  xferData:  Pointer to buffer of data to be sent.
  61:.\Generated_Source\PSoC4/I2C_I2C_MASTER.c **** *  cnt:       Size of buffer to send.
  62:.\Generated_Source\PSoC4/I2C_I2C_MASTER.c **** *  mode:      Transfer mode defines: start or restart condition generation at
  63:.\Generated_Source\PSoC4/I2C_I2C_MASTER.c **** *             begin of the transfer and complete the transfer or halt before
  64:.\Generated_Source\PSoC4/I2C_I2C_MASTER.c **** *             generating a stop.
  65:.\Generated_Source\PSoC4/I2C_I2C_MASTER.c **** *
  66:.\Generated_Source\PSoC4/I2C_I2C_MASTER.c **** * Return:
  67:.\Generated_Source\PSoC4/I2C_I2C_MASTER.c **** *  Error status.
  68:.\Generated_Source\PSoC4/I2C_I2C_MASTER.c **** *
  69:.\Generated_Source\PSoC4/I2C_I2C_MASTER.c **** * Global variables:
  70:.\Generated_Source\PSoC4/I2C_I2C_MASTER.c **** *  I2C_mstrStatus  - used to store current status of I2C Master.
  71:.\Generated_Source\PSoC4/I2C_I2C_MASTER.c **** *  I2C_state       - used to store current state of software FSM.
  72:.\Generated_Source\PSoC4/I2C_I2C_MASTER.c **** *  I2C_mstrControl - used to control master end of transaction with
  73:.\Generated_Source\PSoC4/I2C_I2C_MASTER.c **** *  or without the Stop generation.
  74:.\Generated_Source\PSoC4/I2C_I2C_MASTER.c **** *  I2C_mstrWrBufPtr - used to store pointer to master write buffer.
  75:.\Generated_Source\PSoC4/I2C_I2C_MASTER.c **** *  I2C_mstrWrBufIndex - used to current index within master write
  76:.\Generated_Source\PSoC4/I2C_I2C_MASTER.c **** *  buffer.
  77:.\Generated_Source\PSoC4/I2C_I2C_MASTER.c **** *  I2C_mstrWrBufSize - used to store master write buffer size.
  78:.\Generated_Source\PSoC4/I2C_I2C_MASTER.c **** *
  79:.\Generated_Source\PSoC4/I2C_I2C_MASTER.c **** *******************************************************************************/
  80:.\Generated_Source\PSoC4/I2C_I2C_MASTER.c **** uint32 I2C_I2CMasterWriteBuf(uint32 slaveAddress, uint8 * wrData, uint32 cnt, uint32 mode)
  81:.\Generated_Source\PSoC4/I2C_I2C_MASTER.c **** {
  82:.\Generated_Source\PSoC4/I2C_I2C_MASTER.c ****     uint32 errStatus;
  83:.\Generated_Source\PSoC4/I2C_I2C_MASTER.c **** 
  84:.\Generated_Source\PSoC4/I2C_I2C_MASTER.c ****     errStatus = I2C_I2C_MSTR_NOT_READY;
  85:.\Generated_Source\PSoC4/I2C_I2C_MASTER.c **** 
  86:.\Generated_Source\PSoC4/I2C_I2C_MASTER.c ****     if(NULL != wrData)  /* Check buffer pointer */
  87:.\Generated_Source\PSoC4/I2C_I2C_MASTER.c ****     {
  88:.\Generated_Source\PSoC4/I2C_I2C_MASTER.c ****         /* Check FSM state and bus before generating Start/ReStart condition */
  89:.\Generated_Source\PSoC4/I2C_I2C_MASTER.c ****         if(I2C_CHECK_I2C_FSM_IDLE)
ARM GAS  C:\Users\744\AppData\Local\Temp\ccnzmzQv.s 			page 3


  90:.\Generated_Source\PSoC4/I2C_I2C_MASTER.c ****         {
  91:.\Generated_Source\PSoC4/I2C_I2C_MASTER.c ****             I2C_DisableInt();  /* Lock from interruption */
  92:.\Generated_Source\PSoC4/I2C_I2C_MASTER.c **** 
  93:.\Generated_Source\PSoC4/I2C_I2C_MASTER.c ****             /* Check bus state */
  94:.\Generated_Source\PSoC4/I2C_I2C_MASTER.c ****             errStatus = I2C_CHECK_I2C_STATUS(I2C_I2C_STATUS_BUS_BUSY) ?
  95:.\Generated_Source\PSoC4/I2C_I2C_MASTER.c ****                             I2C_I2C_MSTR_BUS_BUSY : I2C_I2C_MSTR_NO_ERROR;
  96:.\Generated_Source\PSoC4/I2C_I2C_MASTER.c ****         }
  97:.\Generated_Source\PSoC4/I2C_I2C_MASTER.c ****         else if(I2C_CHECK_I2C_FSM_HALT)
  98:.\Generated_Source\PSoC4/I2C_I2C_MASTER.c ****         {
  99:.\Generated_Source\PSoC4/I2C_I2C_MASTER.c ****             I2C_mstrStatus &= (uint16) ~I2C_I2C_MSTAT_XFER_HALT;
 100:.\Generated_Source\PSoC4/I2C_I2C_MASTER.c ****                               errStatus  = I2C_I2C_MSTR_NO_ERROR;
 101:.\Generated_Source\PSoC4/I2C_I2C_MASTER.c ****         }
 102:.\Generated_Source\PSoC4/I2C_I2C_MASTER.c ****         else
 103:.\Generated_Source\PSoC4/I2C_I2C_MASTER.c ****         {
 104:.\Generated_Source\PSoC4/I2C_I2C_MASTER.c ****             /* Unexpected FSM state: exit */
 105:.\Generated_Source\PSoC4/I2C_I2C_MASTER.c ****         }
 106:.\Generated_Source\PSoC4/I2C_I2C_MASTER.c ****     }
 107:.\Generated_Source\PSoC4/I2C_I2C_MASTER.c **** 
 108:.\Generated_Source\PSoC4/I2C_I2C_MASTER.c ****     /* Check if master is ready to start  */
 109:.\Generated_Source\PSoC4/I2C_I2C_MASTER.c ****     if(I2C_I2C_MSTR_NO_ERROR == errStatus) /* No error proceed */
 110:.\Generated_Source\PSoC4/I2C_I2C_MASTER.c ****     {
 111:.\Generated_Source\PSoC4/I2C_I2C_MASTER.c ****     #if (!I2C_CY_SCBIP_V0 && \
 112:.\Generated_Source\PSoC4/I2C_I2C_MASTER.c ****         I2C_I2C_MULTI_MASTER_SLAVE_CONST && I2C_I2C_WAKE_ENABLE_CONST)
 113:.\Generated_Source\PSoC4/I2C_I2C_MASTER.c ****             I2C_I2CMasterDisableEcAm();
 114:.\Generated_Source\PSoC4/I2C_I2C_MASTER.c ****     #endif /* (!I2C_CY_SCBIP_V0) */
 115:.\Generated_Source\PSoC4/I2C_I2C_MASTER.c **** 
 116:.\Generated_Source\PSoC4/I2C_I2C_MASTER.c ****         /* Set up write transaction */
 117:.\Generated_Source\PSoC4/I2C_I2C_MASTER.c ****         I2C_state = I2C_I2C_FSM_MSTR_WR_ADDR;
 118:.\Generated_Source\PSoC4/I2C_I2C_MASTER.c ****         I2C_mstrWrBufIndexTmp = 0u;
 119:.\Generated_Source\PSoC4/I2C_I2C_MASTER.c ****         I2C_mstrWrBufIndex    = 0u;
 120:.\Generated_Source\PSoC4/I2C_I2C_MASTER.c ****         I2C_mstrWrBufSize     = cnt;
 121:.\Generated_Source\PSoC4/I2C_I2C_MASTER.c ****         I2C_mstrWrBufPtr      = (volatile uint8 *) wrData;
 122:.\Generated_Source\PSoC4/I2C_I2C_MASTER.c ****         I2C_mstrControl       = (uint8) mode;
 123:.\Generated_Source\PSoC4/I2C_I2C_MASTER.c **** 
 124:.\Generated_Source\PSoC4/I2C_I2C_MASTER.c ****         slaveAddress = I2C_GET_I2C_8BIT_ADDRESS(slaveAddress);
 125:.\Generated_Source\PSoC4/I2C_I2C_MASTER.c **** 
 126:.\Generated_Source\PSoC4/I2C_I2C_MASTER.c ****         I2C_mstrStatus &= (uint16) ~I2C_I2C_MSTAT_WR_CMPLT;
 127:.\Generated_Source\PSoC4/I2C_I2C_MASTER.c **** 
 128:.\Generated_Source\PSoC4/I2C_I2C_MASTER.c ****         I2C_ClearMasterInterruptSource(I2C_INTR_MASTER_ALL);
 129:.\Generated_Source\PSoC4/I2C_I2C_MASTER.c ****         I2C_ClearTxInterruptSource(I2C_INTR_TX_UNDERFLOW);
 130:.\Generated_Source\PSoC4/I2C_I2C_MASTER.c **** 
 131:.\Generated_Source\PSoC4/I2C_I2C_MASTER.c ****         /* The TX and RX FIFO have to be EMPTY */
 132:.\Generated_Source\PSoC4/I2C_I2C_MASTER.c **** 
 133:.\Generated_Source\PSoC4/I2C_I2C_MASTER.c ****         /* Enable interrupt source to catch when address is sent */
 134:.\Generated_Source\PSoC4/I2C_I2C_MASTER.c ****         I2C_SetTxInterruptMode(I2C_INTR_TX_UNDERFLOW);
 135:.\Generated_Source\PSoC4/I2C_I2C_MASTER.c **** 
 136:.\Generated_Source\PSoC4/I2C_I2C_MASTER.c ****         /* Generate Start or ReStart */
 137:.\Generated_Source\PSoC4/I2C_I2C_MASTER.c ****         if(I2C_CHECK_I2C_MODE_RESTART(mode))
 138:.\Generated_Source\PSoC4/I2C_I2C_MASTER.c ****         {
 139:.\Generated_Source\PSoC4/I2C_I2C_MASTER.c ****             I2C_I2C_MASTER_GENERATE_RESTART;
 140:.\Generated_Source\PSoC4/I2C_I2C_MASTER.c ****             I2C_TX_FIFO_WR_REG = slaveAddress;
 141:.\Generated_Source\PSoC4/I2C_I2C_MASTER.c ****         }
 142:.\Generated_Source\PSoC4/I2C_I2C_MASTER.c ****         else
 143:.\Generated_Source\PSoC4/I2C_I2C_MASTER.c ****         {
 144:.\Generated_Source\PSoC4/I2C_I2C_MASTER.c ****             I2C_TX_FIFO_WR_REG = slaveAddress;
 145:.\Generated_Source\PSoC4/I2C_I2C_MASTER.c ****             I2C_I2C_MASTER_GENERATE_START;
 146:.\Generated_Source\PSoC4/I2C_I2C_MASTER.c ****         }
ARM GAS  C:\Users\744\AppData\Local\Temp\ccnzmzQv.s 			page 4


 147:.\Generated_Source\PSoC4/I2C_I2C_MASTER.c ****     }
 148:.\Generated_Source\PSoC4/I2C_I2C_MASTER.c **** 
 149:.\Generated_Source\PSoC4/I2C_I2C_MASTER.c ****     I2C_EnableInt();   /* Release lock */
 150:.\Generated_Source\PSoC4/I2C_I2C_MASTER.c **** 
 151:.\Generated_Source\PSoC4/I2C_I2C_MASTER.c ****     return(errStatus);
 152:.\Generated_Source\PSoC4/I2C_I2C_MASTER.c **** }
 153:.\Generated_Source\PSoC4/I2C_I2C_MASTER.c **** 
 154:.\Generated_Source\PSoC4/I2C_I2C_MASTER.c **** 
 155:.\Generated_Source\PSoC4/I2C_I2C_MASTER.c **** /*******************************************************************************
 156:.\Generated_Source\PSoC4/I2C_I2C_MASTER.c **** * Function Name: I2C_I2CMasterReadBuf
 157:.\Generated_Source\PSoC4/I2C_I2C_MASTER.c **** ********************************************************************************
 158:.\Generated_Source\PSoC4/I2C_I2C_MASTER.c **** *
 159:.\Generated_Source\PSoC4/I2C_I2C_MASTER.c **** * Summary:
 160:.\Generated_Source\PSoC4/I2C_I2C_MASTER.c **** *  Automatically reads an entire buffer of data from a slave device.
 161:.\Generated_Source\PSoC4/I2C_I2C_MASTER.c **** *  Once the data transfer is initiated by this function, further data transfer
 162:.\Generated_Source\PSoC4/I2C_I2C_MASTER.c **** *  is handled by the included ISR.
 163:.\Generated_Source\PSoC4/I2C_I2C_MASTER.c **** * Enables the I2C interrupt and clears SCB_ I2C_MSTAT_RD_CMPLT status.
 164:.\Generated_Source\PSoC4/I2C_I2C_MASTER.c **** *
 165:.\Generated_Source\PSoC4/I2C_I2C_MASTER.c **** * Parameters:
 166:.\Generated_Source\PSoC4/I2C_I2C_MASTER.c **** *  slaveAddr: 7-bit slave address.
 167:.\Generated_Source\PSoC4/I2C_I2C_MASTER.c **** *  xferData:  Pointer to buffer where to put data from slave.
 168:.\Generated_Source\PSoC4/I2C_I2C_MASTER.c **** *  cnt:       Size of buffer to read.
 169:.\Generated_Source\PSoC4/I2C_I2C_MASTER.c **** *  mode:      Transfer mode defines: start or restart condition generation at
 170:.\Generated_Source\PSoC4/I2C_I2C_MASTER.c **** *             begin of the transfer and complete the transfer or halt before
 171:.\Generated_Source\PSoC4/I2C_I2C_MASTER.c **** *             generating a stop.
 172:.\Generated_Source\PSoC4/I2C_I2C_MASTER.c **** *
 173:.\Generated_Source\PSoC4/I2C_I2C_MASTER.c **** * Return:
 174:.\Generated_Source\PSoC4/I2C_I2C_MASTER.c **** *  Error status.
 175:.\Generated_Source\PSoC4/I2C_I2C_MASTER.c **** *
 176:.\Generated_Source\PSoC4/I2C_I2C_MASTER.c **** * Global variables:
 177:.\Generated_Source\PSoC4/I2C_I2C_MASTER.c **** *  I2C_mstrStatus  - used to store current status of I2C Master.
 178:.\Generated_Source\PSoC4/I2C_I2C_MASTER.c **** *  I2C_state       - used to store current state of software FSM.
 179:.\Generated_Source\PSoC4/I2C_I2C_MASTER.c **** *  I2C_mstrControl - used to control master end of transaction with
 180:.\Generated_Source\PSoC4/I2C_I2C_MASTER.c **** *  or without the Stop generation.
 181:.\Generated_Source\PSoC4/I2C_I2C_MASTER.c **** *  I2C_mstrRdBufPtr - used to store pointer to master write buffer.
 182:.\Generated_Source\PSoC4/I2C_I2C_MASTER.c **** *  I2C_mstrRdBufIndex - used to current index within master write
 183:.\Generated_Source\PSoC4/I2C_I2C_MASTER.c **** *  buffer.
 184:.\Generated_Source\PSoC4/I2C_I2C_MASTER.c **** *  I2C_mstrRdBufSize - used to store master write buffer size.
 185:.\Generated_Source\PSoC4/I2C_I2C_MASTER.c **** *
 186:.\Generated_Source\PSoC4/I2C_I2C_MASTER.c **** *******************************************************************************/
 187:.\Generated_Source\PSoC4/I2C_I2C_MASTER.c **** uint32 I2C_I2CMasterReadBuf(uint32 slaveAddress, uint8 * rdData, uint32 cnt, uint32 mode)
 188:.\Generated_Source\PSoC4/I2C_I2C_MASTER.c **** {
 189:.\Generated_Source\PSoC4/I2C_I2C_MASTER.c ****     uint32 errStatus;
 190:.\Generated_Source\PSoC4/I2C_I2C_MASTER.c **** 
 191:.\Generated_Source\PSoC4/I2C_I2C_MASTER.c ****     errStatus = I2C_I2C_MSTR_NOT_READY;
 192:.\Generated_Source\PSoC4/I2C_I2C_MASTER.c **** 
 193:.\Generated_Source\PSoC4/I2C_I2C_MASTER.c ****     if(NULL != rdData)
 194:.\Generated_Source\PSoC4/I2C_I2C_MASTER.c ****     {
 195:.\Generated_Source\PSoC4/I2C_I2C_MASTER.c ****         /* Check FSM state and bus before generating Start/ReStart condition */
 196:.\Generated_Source\PSoC4/I2C_I2C_MASTER.c ****         if(I2C_CHECK_I2C_FSM_IDLE)
 197:.\Generated_Source\PSoC4/I2C_I2C_MASTER.c ****         {
 198:.\Generated_Source\PSoC4/I2C_I2C_MASTER.c ****             I2C_DisableInt();  /* Lock from interruption */
 199:.\Generated_Source\PSoC4/I2C_I2C_MASTER.c **** 
 200:.\Generated_Source\PSoC4/I2C_I2C_MASTER.c ****             /* Check bus state */
 201:.\Generated_Source\PSoC4/I2C_I2C_MASTER.c ****             errStatus = I2C_CHECK_I2C_STATUS(I2C_I2C_STATUS_BUS_BUSY) ?
 202:.\Generated_Source\PSoC4/I2C_I2C_MASTER.c ****                             I2C_I2C_MSTR_BUS_BUSY : I2C_I2C_MSTR_NO_ERROR;
 203:.\Generated_Source\PSoC4/I2C_I2C_MASTER.c ****         }
ARM GAS  C:\Users\744\AppData\Local\Temp\ccnzmzQv.s 			page 5


 204:.\Generated_Source\PSoC4/I2C_I2C_MASTER.c ****         else if(I2C_CHECK_I2C_FSM_HALT)
 205:.\Generated_Source\PSoC4/I2C_I2C_MASTER.c ****         {
 206:.\Generated_Source\PSoC4/I2C_I2C_MASTER.c ****             I2C_mstrStatus &= (uint16) ~I2C_I2C_MSTAT_XFER_HALT;
 207:.\Generated_Source\PSoC4/I2C_I2C_MASTER.c ****                               errStatus  =  I2C_I2C_MSTR_NO_ERROR;
 208:.\Generated_Source\PSoC4/I2C_I2C_MASTER.c ****         }
 209:.\Generated_Source\PSoC4/I2C_I2C_MASTER.c ****         else
 210:.\Generated_Source\PSoC4/I2C_I2C_MASTER.c ****         {
 211:.\Generated_Source\PSoC4/I2C_I2C_MASTER.c ****             /* Unexpected FSM state: exit */
 212:.\Generated_Source\PSoC4/I2C_I2C_MASTER.c ****         }
 213:.\Generated_Source\PSoC4/I2C_I2C_MASTER.c ****     }
 214:.\Generated_Source\PSoC4/I2C_I2C_MASTER.c **** 
 215:.\Generated_Source\PSoC4/I2C_I2C_MASTER.c ****     /* Check master ready to proceed */
 216:.\Generated_Source\PSoC4/I2C_I2C_MASTER.c ****     if(I2C_I2C_MSTR_NO_ERROR == errStatus) /* No error proceed */
 217:.\Generated_Source\PSoC4/I2C_I2C_MASTER.c ****     {
 218:.\Generated_Source\PSoC4/I2C_I2C_MASTER.c ****         #if (!I2C_CY_SCBIP_V0 && \
 219:.\Generated_Source\PSoC4/I2C_I2C_MASTER.c ****         I2C_I2C_MULTI_MASTER_SLAVE_CONST && I2C_I2C_WAKE_ENABLE_CONST)
 220:.\Generated_Source\PSoC4/I2C_I2C_MASTER.c ****             I2C_I2CMasterDisableEcAm();
 221:.\Generated_Source\PSoC4/I2C_I2C_MASTER.c ****         #endif /* (!I2C_CY_SCBIP_V0) */
 222:.\Generated_Source\PSoC4/I2C_I2C_MASTER.c **** 
 223:.\Generated_Source\PSoC4/I2C_I2C_MASTER.c ****         /* Set up read transaction */
 224:.\Generated_Source\PSoC4/I2C_I2C_MASTER.c ****         I2C_state = I2C_I2C_FSM_MSTR_RD_ADDR;
 225:.\Generated_Source\PSoC4/I2C_I2C_MASTER.c ****         I2C_mstrRdBufIndex = 0u;
 226:.\Generated_Source\PSoC4/I2C_I2C_MASTER.c ****         I2C_mstrRdBufSize  = cnt;
 227:.\Generated_Source\PSoC4/I2C_I2C_MASTER.c ****         I2C_mstrRdBufPtr   = (volatile uint8 *) rdData;
 228:.\Generated_Source\PSoC4/I2C_I2C_MASTER.c ****         I2C_mstrControl    = (uint8) mode;
 229:.\Generated_Source\PSoC4/I2C_I2C_MASTER.c **** 
 230:.\Generated_Source\PSoC4/I2C_I2C_MASTER.c ****         slaveAddress = (I2C_GET_I2C_8BIT_ADDRESS(slaveAddress) | I2C_I2C_READ_FLAG);
 231:.\Generated_Source\PSoC4/I2C_I2C_MASTER.c **** 
 232:.\Generated_Source\PSoC4/I2C_I2C_MASTER.c ****         I2C_mstrStatus &= (uint16) ~I2C_I2C_MSTAT_RD_CMPLT;
 233:.\Generated_Source\PSoC4/I2C_I2C_MASTER.c **** 
 234:.\Generated_Source\PSoC4/I2C_I2C_MASTER.c ****         I2C_ClearMasterInterruptSource(I2C_INTR_MASTER_ALL);
 235:.\Generated_Source\PSoC4/I2C_I2C_MASTER.c **** 
 236:.\Generated_Source\PSoC4/I2C_I2C_MASTER.c ****         /* TX and RX FIFO have to be EMPTY */
 237:.\Generated_Source\PSoC4/I2C_I2C_MASTER.c **** 
 238:.\Generated_Source\PSoC4/I2C_I2C_MASTER.c ****         /* Prepare reading */
 239:.\Generated_Source\PSoC4/I2C_I2C_MASTER.c ****         if(I2C_mstrRdBufSize < I2C_I2C_FIFO_SIZE)
 240:.\Generated_Source\PSoC4/I2C_I2C_MASTER.c ****         {
 241:.\Generated_Source\PSoC4/I2C_I2C_MASTER.c ****             /* Reading byte-by-byte */
 242:.\Generated_Source\PSoC4/I2C_I2C_MASTER.c ****             I2C_SetRxInterruptMode(I2C_INTR_RX_NOT_EMPTY);
 243:.\Generated_Source\PSoC4/I2C_I2C_MASTER.c ****         }
 244:.\Generated_Source\PSoC4/I2C_I2C_MASTER.c ****         else
 245:.\Generated_Source\PSoC4/I2C_I2C_MASTER.c ****         {
 246:.\Generated_Source\PSoC4/I2C_I2C_MASTER.c ****             /* Receive RX FIFO chunks */
 247:.\Generated_Source\PSoC4/I2C_I2C_MASTER.c ****             I2C_ENABLE_MASTER_AUTO_DATA_ACK;
 248:.\Generated_Source\PSoC4/I2C_I2C_MASTER.c ****             I2C_SetRxInterruptMode(I2C_INTR_RX_FULL);
 249:.\Generated_Source\PSoC4/I2C_I2C_MASTER.c ****         }
 250:.\Generated_Source\PSoC4/I2C_I2C_MASTER.c **** 
 251:.\Generated_Source\PSoC4/I2C_I2C_MASTER.c ****         /* Generate Start or ReStart */
 252:.\Generated_Source\PSoC4/I2C_I2C_MASTER.c ****         if(I2C_CHECK_I2C_MODE_RESTART(mode))
 253:.\Generated_Source\PSoC4/I2C_I2C_MASTER.c ****         {
 254:.\Generated_Source\PSoC4/I2C_I2C_MASTER.c ****             I2C_I2C_MASTER_GENERATE_RESTART;
 255:.\Generated_Source\PSoC4/I2C_I2C_MASTER.c ****             I2C_TX_FIFO_WR_REG = (slaveAddress);
 256:.\Generated_Source\PSoC4/I2C_I2C_MASTER.c ****         }
 257:.\Generated_Source\PSoC4/I2C_I2C_MASTER.c ****         else
 258:.\Generated_Source\PSoC4/I2C_I2C_MASTER.c ****         {
 259:.\Generated_Source\PSoC4/I2C_I2C_MASTER.c ****             I2C_TX_FIFO_WR_REG = (slaveAddress);
 260:.\Generated_Source\PSoC4/I2C_I2C_MASTER.c ****             I2C_I2C_MASTER_GENERATE_START;
ARM GAS  C:\Users\744\AppData\Local\Temp\ccnzmzQv.s 			page 6


 261:.\Generated_Source\PSoC4/I2C_I2C_MASTER.c ****         }
 262:.\Generated_Source\PSoC4/I2C_I2C_MASTER.c ****     }
 263:.\Generated_Source\PSoC4/I2C_I2C_MASTER.c **** 
 264:.\Generated_Source\PSoC4/I2C_I2C_MASTER.c ****     I2C_EnableInt();   /* Release lock */
 265:.\Generated_Source\PSoC4/I2C_I2C_MASTER.c **** 
 266:.\Generated_Source\PSoC4/I2C_I2C_MASTER.c ****     return(errStatus);
 267:.\Generated_Source\PSoC4/I2C_I2C_MASTER.c **** }
 268:.\Generated_Source\PSoC4/I2C_I2C_MASTER.c **** 
 269:.\Generated_Source\PSoC4/I2C_I2C_MASTER.c **** 
 270:.\Generated_Source\PSoC4/I2C_I2C_MASTER.c **** /*******************************************************************************
 271:.\Generated_Source\PSoC4/I2C_I2C_MASTER.c **** * Function Name: I2C_I2CMasterSendStart
 272:.\Generated_Source\PSoC4/I2C_I2C_MASTER.c **** ********************************************************************************
 273:.\Generated_Source\PSoC4/I2C_I2C_MASTER.c **** *
 274:.\Generated_Source\PSoC4/I2C_I2C_MASTER.c **** * Summary:
 275:.\Generated_Source\PSoC4/I2C_I2C_MASTER.c **** *  Generates Start condition and sends slave address with read/write bit.
 276:.\Generated_Source\PSoC4/I2C_I2C_MASTER.c **** *  Disables the I2C interrupt.
 277:.\Generated_Source\PSoC4/I2C_I2C_MASTER.c **** *  This function is blocking and does not return until start condition and
 278:.\Generated_Source\PSoC4/I2C_I2C_MASTER.c **** *  address byte are sent and ACK/NACK response is received or errors occurred.
 279:.\Generated_Source\PSoC4/I2C_I2C_MASTER.c **** *
 280:.\Generated_Source\PSoC4/I2C_I2C_MASTER.c **** * Parameters:
 281:.\Generated_Source\PSoC4/I2C_I2C_MASTER.c **** *  slaveAddress: Right justified 7-bit Slave address (valid range 8 to 120).
 282:.\Generated_Source\PSoC4/I2C_I2C_MASTER.c **** *  bitRnW:       Direction of the following transfer. It is defined by
 283:.\Generated_Source\PSoC4/I2C_I2C_MASTER.c **** *                read/write bit within address byte.
 284:.\Generated_Source\PSoC4/I2C_I2C_MASTER.c **** *
 285:.\Generated_Source\PSoC4/I2C_I2C_MASTER.c **** * Return:
 286:.\Generated_Source\PSoC4/I2C_I2C_MASTER.c **** *  Error status.
 287:.\Generated_Source\PSoC4/I2C_I2C_MASTER.c **** *
 288:.\Generated_Source\PSoC4/I2C_I2C_MASTER.c **** * Global variables:
 289:.\Generated_Source\PSoC4/I2C_I2C_MASTER.c **** *  I2C_state - used to store current state of software FSM.
 290:.\Generated_Source\PSoC4/I2C_I2C_MASTER.c **** *
 291:.\Generated_Source\PSoC4/I2C_I2C_MASTER.c **** *******************************************************************************/
 292:.\Generated_Source\PSoC4/I2C_I2C_MASTER.c **** uint32 I2C_I2CMasterSendStart(uint32 slaveAddress, uint32 bitRnW)
 293:.\Generated_Source\PSoC4/I2C_I2C_MASTER.c **** {
  26              		.loc 1 293 0
  27              		.cfi_startproc
  28              	.LVL0:
  29 0000 38B5     		push	{r3, r4, r5, lr}
  30              		.cfi_def_cfa_offset 16
  31              		.cfi_offset 3, -16
  32              		.cfi_offset 4, -12
  33              		.cfi_offset 5, -8
  34              		.cfi_offset 14, -4
  35              	.LVL1:
 294:.\Generated_Source\PSoC4/I2C_I2C_MASTER.c ****     uint32  resetIp;
 295:.\Generated_Source\PSoC4/I2C_I2C_MASTER.c ****     uint32 errStatus;
 296:.\Generated_Source\PSoC4/I2C_I2C_MASTER.c **** 
 297:.\Generated_Source\PSoC4/I2C_I2C_MASTER.c ****     resetIp   = 0u;
 298:.\Generated_Source\PSoC4/I2C_I2C_MASTER.c ****     errStatus = I2C_I2C_MSTR_NOT_READY;
 299:.\Generated_Source\PSoC4/I2C_I2C_MASTER.c **** 
 300:.\Generated_Source\PSoC4/I2C_I2C_MASTER.c ****     /* Check FSM state before generating Start condition */
 301:.\Generated_Source\PSoC4/I2C_I2C_MASTER.c ****     if(I2C_CHECK_I2C_FSM_IDLE)
  36              		.loc 1 301 0
  37 0002 2E4B     		ldr	r3, .L12
  38 0004 1B78     		ldrb	r3, [r3]
  39 0006 102B     		cmp	r3, #16
  40 0008 53D1     		bne	.L8
 302:.\Generated_Source\PSoC4/I2C_I2C_MASTER.c ****     {
ARM GAS  C:\Users\744\AppData\Local\Temp\ccnzmzQv.s 			page 7


 303:.\Generated_Source\PSoC4/I2C_I2C_MASTER.c ****         /* If bus is free, generate Start condition */
 304:.\Generated_Source\PSoC4/I2C_I2C_MASTER.c ****         if(I2C_CHECK_I2C_STATUS(I2C_I2C_STATUS_BUS_BUSY))
  41              		.loc 1 304 0
  42 000a 2D4B     		ldr	r3, .L12+4
  43 000c 1B68     		ldr	r3, [r3]
  44 000e DB07     		lsl	r3, r3, #31
  45 0010 51D4     		bmi	.L9
  46 0012 0D1C     		mov	r5, r1
  47 0014 041C     		mov	r4, r0
 305:.\Generated_Source\PSoC4/I2C_I2C_MASTER.c ****         {
 306:.\Generated_Source\PSoC4/I2C_I2C_MASTER.c ****             errStatus = I2C_I2C_MSTR_BUS_BUSY;
 307:.\Generated_Source\PSoC4/I2C_I2C_MASTER.c ****         }
 308:.\Generated_Source\PSoC4/I2C_I2C_MASTER.c ****         else
 309:.\Generated_Source\PSoC4/I2C_I2C_MASTER.c ****         {
 310:.\Generated_Source\PSoC4/I2C_I2C_MASTER.c ****             I2C_DisableInt();  /* Lock from interruption */
  48              		.loc 1 310 0
  49 0016 0B20     		mov	r0, #11
  50              	.LVL2:
  51 0018 FFF7FEFF 		bl	CyIntDisable
  52              	.LVL3:
 311:.\Generated_Source\PSoC4/I2C_I2C_MASTER.c **** 
 312:.\Generated_Source\PSoC4/I2C_I2C_MASTER.c ****         #if (!I2C_CY_SCBIP_V0 && \
 313:.\Generated_Source\PSoC4/I2C_I2C_MASTER.c ****             I2C_I2C_MULTI_MASTER_SLAVE_CONST && I2C_I2C_WAKE_ENABLE_CONST)
 314:.\Generated_Source\PSoC4/I2C_I2C_MASTER.c ****             I2C_I2CMasterDisableEcAm();
 315:.\Generated_Source\PSoC4/I2C_I2C_MASTER.c ****         #endif /* (!I2C_CY_SCBIP_V0) */
 316:.\Generated_Source\PSoC4/I2C_I2C_MASTER.c **** 
 317:.\Generated_Source\PSoC4/I2C_I2C_MASTER.c ****             slaveAddress = I2C_GET_I2C_8BIT_ADDRESS(slaveAddress);
  53              		.loc 1 317 0
  54 001c 6000     		lsl	r0, r4, #1
  55 001e FF23     		mov	r3, #255
  56 0020 1840     		and	r0, r3
  57              	.LVL4:
 318:.\Generated_Source\PSoC4/I2C_I2C_MASTER.c **** 
 319:.\Generated_Source\PSoC4/I2C_I2C_MASTER.c ****             if(0u == bitRnW) /* Write direction */
  58              		.loc 1 319 0
  59 0022 002D     		cmp	r5, #0
  60 0024 03D1     		bne	.L3
 320:.\Generated_Source\PSoC4/I2C_I2C_MASTER.c ****             {
 321:.\Generated_Source\PSoC4/I2C_I2C_MASTER.c ****                 I2C_state = I2C_I2C_FSM_MSTR_WR_DATA;
  61              		.loc 1 321 0
  62 0026 2422     		mov	r2, #36
  63 0028 244B     		ldr	r3, .L12
  64 002a 1A70     		strb	r2, [r3]
  65 002c 04E0     		b	.L4
  66              	.L3:
 322:.\Generated_Source\PSoC4/I2C_I2C_MASTER.c ****             }
 323:.\Generated_Source\PSoC4/I2C_I2C_MASTER.c ****             else /* Read direction */
 324:.\Generated_Source\PSoC4/I2C_I2C_MASTER.c ****             {
 325:.\Generated_Source\PSoC4/I2C_I2C_MASTER.c ****                 I2C_state = I2C_I2C_FSM_MSTR_RD_DATA;
  67              		.loc 1 325 0
  68 002e 2522     		mov	r2, #37
  69 0030 224B     		ldr	r3, .L12
  70 0032 1A70     		strb	r2, [r3]
 326:.\Generated_Source\PSoC4/I2C_I2C_MASTER.c ****                          slaveAddress |= I2C_I2C_READ_FLAG;
  71              		.loc 1 326 0
  72 0034 0123     		mov	r3, #1
  73 0036 1843     		orr	r0, r3
ARM GAS  C:\Users\744\AppData\Local\Temp\ccnzmzQv.s 			page 8


  74              	.LVL5:
  75              	.L4:
 327:.\Generated_Source\PSoC4/I2C_I2C_MASTER.c ****             }
 328:.\Generated_Source\PSoC4/I2C_I2C_MASTER.c **** 
 329:.\Generated_Source\PSoC4/I2C_I2C_MASTER.c ****             /* TX and RX FIFO have to be EMPTY */
 330:.\Generated_Source\PSoC4/I2C_I2C_MASTER.c **** 
 331:.\Generated_Source\PSoC4/I2C_I2C_MASTER.c ****             I2C_TX_FIFO_WR_REG = slaveAddress; /* Put address in TX FIFO */
  76              		.loc 1 331 0
  77 0038 224B     		ldr	r3, .L12+8
  78 003a 1860     		str	r0, [r3]
 332:.\Generated_Source\PSoC4/I2C_I2C_MASTER.c ****             I2C_ClearMasterInterruptSource(I2C_INTR_MASTER_ALL);
  79              		.loc 1 332 0
  80 003c 224A     		ldr	r2, .L12+12
  81 003e 234B     		ldr	r3, .L12+16
  82 0040 1A60     		str	r2, [r3]
 333:.\Generated_Source\PSoC4/I2C_I2C_MASTER.c **** 
 334:.\Generated_Source\PSoC4/I2C_I2C_MASTER.c ****             I2C_I2C_MASTER_GENERATE_START;
  83              		.loc 1 334 0
  84 0042 0222     		mov	r2, #2
  85 0044 224B     		ldr	r3, .L12+20
  86 0046 1A60     		str	r2, [r3]
  87              	.L5:
 335:.\Generated_Source\PSoC4/I2C_I2C_MASTER.c **** 
 336:.\Generated_Source\PSoC4/I2C_I2C_MASTER.c **** 
 337:.\Generated_Source\PSoC4/I2C_I2C_MASTER.c ****             while(!I2C_CHECK_INTR_MASTER(I2C_INTR_MASTER_I2C_ACK      |
  88              		.loc 1 337 0 discriminator 1
  89 0048 204B     		ldr	r3, .L12+16
  90 004a 1A68     		ldr	r2, [r3]
  91 004c 0823     		mov	r3, #8
  92 004e FF33     		add	r3, r3, #255
  93 0050 1A42     		tst	r2, r3
  94 0052 F9D0     		beq	.L5
 338:.\Generated_Source\PSoC4/I2C_I2C_MASTER.c ****                                                       I2C_INTR_MASTER_I2C_NACK     |
 339:.\Generated_Source\PSoC4/I2C_I2C_MASTER.c ****                                                       I2C_INTR_MASTER_I2C_ARB_LOST |
 340:.\Generated_Source\PSoC4/I2C_I2C_MASTER.c ****                                                       I2C_INTR_MASTER_I2C_BUS_ERROR))
 341:.\Generated_Source\PSoC4/I2C_I2C_MASTER.c ****             {
 342:.\Generated_Source\PSoC4/I2C_I2C_MASTER.c ****                 /*
 343:.\Generated_Source\PSoC4/I2C_I2C_MASTER.c ****                 * Write: wait until address has been transferred
 344:.\Generated_Source\PSoC4/I2C_I2C_MASTER.c ****                 * Read : wait until address has been transferred, data byte is going to RX FIFO as 
 345:.\Generated_Source\PSoC4/I2C_I2C_MASTER.c ****                 */
 346:.\Generated_Source\PSoC4/I2C_I2C_MASTER.c ****             }
 347:.\Generated_Source\PSoC4/I2C_I2C_MASTER.c **** 
 348:.\Generated_Source\PSoC4/I2C_I2C_MASTER.c ****             /* Check the results of the address phase */
 349:.\Generated_Source\PSoC4/I2C_I2C_MASTER.c ****             if(I2C_CHECK_INTR_MASTER(I2C_INTR_MASTER_I2C_ACK))
  95              		.loc 1 349 0
  96 0054 1D4B     		ldr	r3, .L12+16
  97 0056 1B68     		ldr	r3, [r3]
  98 0058 5B07     		lsl	r3, r3, #29
  99 005a 14D4     		bmi	.L10
 350:.\Generated_Source\PSoC4/I2C_I2C_MASTER.c ****             {
 351:.\Generated_Source\PSoC4/I2C_I2C_MASTER.c ****                 errStatus = I2C_I2C_MSTR_NO_ERROR;
 352:.\Generated_Source\PSoC4/I2C_I2C_MASTER.c ****             }
 353:.\Generated_Source\PSoC4/I2C_I2C_MASTER.c ****             else if(I2C_CHECK_INTR_MASTER(I2C_INTR_MASTER_I2C_NACK))
 100              		.loc 1 353 0
 101 005c 1B4B     		ldr	r3, .L12+16
 102 005e 1B68     		ldr	r3, [r3]
 103 0060 9B07     		lsl	r3, r3, #30
ARM GAS  C:\Users\744\AppData\Local\Temp\ccnzmzQv.s 			page 9


 104 0062 13D4     		bmi	.L11
 354:.\Generated_Source\PSoC4/I2C_I2C_MASTER.c ****             {
 355:.\Generated_Source\PSoC4/I2C_I2C_MASTER.c ****                 errStatus = I2C_I2C_MSTR_ERR_LB_NAK;
 356:.\Generated_Source\PSoC4/I2C_I2C_MASTER.c ****             }
 357:.\Generated_Source\PSoC4/I2C_I2C_MASTER.c ****             else if(I2C_CHECK_INTR_MASTER(I2C_INTR_MASTER_I2C_ARB_LOST))
 105              		.loc 1 357 0
 106 0064 194B     		ldr	r3, .L12+16
 107 0066 1B68     		ldr	r3, [r3]
 108 0068 DB07     		lsl	r3, r3, #31
 109 006a 05D5     		bpl	.L7
 358:.\Generated_Source\PSoC4/I2C_I2C_MASTER.c ****             {
 359:.\Generated_Source\PSoC4/I2C_I2C_MASTER.c ****                 I2C_state = I2C_I2C_FSM_IDLE;
 110              		.loc 1 359 0
 111 006c 1022     		mov	r2, #16
 112 006e 134B     		ldr	r3, .L12
 113 0070 1A70     		strb	r2, [r3]
 114              	.LVL6:
 360:.\Generated_Source\PSoC4/I2C_I2C_MASTER.c ****                              errStatus = I2C_I2C_MSTR_ERR_ARB_LOST;
 115              		.loc 1 360 0
 116 0072 0120     		mov	r0, #1
 117              	.LVL7:
 361:.\Generated_Source\PSoC4/I2C_I2C_MASTER.c ****                              resetIp   = I2C_I2C_RESET_ERROR;
 118              		.loc 1 361 0
 119 0074 0121     		mov	r1, #1
 120 0076 0BE0     		b	.L6
 121              	.LVL8:
 122              	.L7:
 362:.\Generated_Source\PSoC4/I2C_I2C_MASTER.c ****             }
 363:.\Generated_Source\PSoC4/I2C_I2C_MASTER.c ****             else /* I2C_INTR_MASTER_I2C_BUS_ERROR set is else condition */
 364:.\Generated_Source\PSoC4/I2C_I2C_MASTER.c ****             {
 365:.\Generated_Source\PSoC4/I2C_I2C_MASTER.c ****                 I2C_state = I2C_I2C_FSM_IDLE;
 123              		.loc 1 365 0
 124 0078 1022     		mov	r2, #16
 125 007a 104B     		ldr	r3, .L12
 126 007c 1A70     		strb	r2, [r3]
 127              	.LVL9:
 366:.\Generated_Source\PSoC4/I2C_I2C_MASTER.c ****                              errStatus = I2C_I2C_MSTR_ERR_BUS_ERR;
 128              		.loc 1 366 0
 129 007e 8020     		mov	r0, #128
 130              	.LVL10:
 131 0080 4000     		lsl	r0, r0, #1
 367:.\Generated_Source\PSoC4/I2C_I2C_MASTER.c ****                              resetIp   = I2C_I2C_RESET_ERROR;
 132              		.loc 1 367 0
 133 0082 0121     		mov	r1, #1
 134 0084 04E0     		b	.L6
 135              	.LVL11:
 136              	.L10:
 351:.\Generated_Source\PSoC4/I2C_I2C_MASTER.c ****             }
 137              		.loc 1 351 0
 138 0086 0020     		mov	r0, #0
 139              	.LVL12:
 297:.\Generated_Source\PSoC4/I2C_I2C_MASTER.c ****     errStatus = I2C_I2C_MSTR_NOT_READY;
 140              		.loc 1 297 0
 141 0088 0021     		mov	r1, #0
 142 008a 01E0     		b	.L6
 143              	.LVL13:
 144              	.L11:
ARM GAS  C:\Users\744\AppData\Local\Temp\ccnzmzQv.s 			page 10


 355:.\Generated_Source\PSoC4/I2C_I2C_MASTER.c ****             }
 145              		.loc 1 355 0
 146 008c 0220     		mov	r0, #2
 147              	.LVL14:
 297:.\Generated_Source\PSoC4/I2C_I2C_MASTER.c ****     errStatus = I2C_I2C_MSTR_NOT_READY;
 148              		.loc 1 297 0
 149 008e 0021     		mov	r1, #0
 150              	.LVL15:
 151              	.L6:
 368:.\Generated_Source\PSoC4/I2C_I2C_MASTER.c ****             }
 369:.\Generated_Source\PSoC4/I2C_I2C_MASTER.c **** 
 370:.\Generated_Source\PSoC4/I2C_I2C_MASTER.c ****             I2C_ClearMasterInterruptSource(I2C_INTR_MASTER_I2C_ACK      |
 152              		.loc 1 370 0
 153 0090 0822     		mov	r2, #8
 154 0092 FF32     		add	r2, r2, #255
 155 0094 0D4B     		ldr	r3, .L12+16
 156 0096 1A60     		str	r2, [r3]
 371:.\Generated_Source\PSoC4/I2C_I2C_MASTER.c ****                                                         I2C_INTR_MASTER_I2C_NACK     |
 372:.\Generated_Source\PSoC4/I2C_I2C_MASTER.c ****                                                         I2C_INTR_MASTER_I2C_ARB_LOST |
 373:.\Generated_Source\PSoC4/I2C_I2C_MASTER.c ****                                                         I2C_INTR_MASTER_I2C_BUS_ERROR);
 374:.\Generated_Source\PSoC4/I2C_I2C_MASTER.c **** 
 375:.\Generated_Source\PSoC4/I2C_I2C_MASTER.c ****             /* Reset block in case of: LOST_ARB or BUS_ERR */
 376:.\Generated_Source\PSoC4/I2C_I2C_MASTER.c ****             if(0u != resetIp)
 157              		.loc 1 376 0
 158 0098 0029     		cmp	r1, #0
 159 009a 0DD0     		beq	.L2
 377:.\Generated_Source\PSoC4/I2C_I2C_MASTER.c ****             {
 378:.\Generated_Source\PSoC4/I2C_I2C_MASTER.c ****                 I2C_SCB_SW_RESET;
 160              		.loc 1 378 0
 161 009c 0D4A     		ldr	r2, .L12+24
 162 009e 1368     		ldr	r3, [r2]
 163 00a0 5B00     		lsl	r3, r3, #1
 164 00a2 5B08     		lsr	r3, r3, #1
 165 00a4 1360     		str	r3, [r2]
 166 00a6 1368     		ldr	r3, [r2]
 167 00a8 8021     		mov	r1, #128
 168              	.LVL16:
 169 00aa 0906     		lsl	r1, r1, #24
 170 00ac 0B43     		orr	r3, r1
 171 00ae 1360     		str	r3, [r2]
 172 00b0 02E0     		b	.L2
 173              	.LVL17:
 174              	.L8:
 298:.\Generated_Source\PSoC4/I2C_I2C_MASTER.c **** 
 175              		.loc 1 298 0
 176 00b2 0420     		mov	r0, #4
 177              	.LVL18:
 178 00b4 00E0     		b	.L2
 179              	.LVL19:
 180              	.L9:
 306:.\Generated_Source\PSoC4/I2C_I2C_MASTER.c ****         }
 181              		.loc 1 306 0
 182 00b6 0820     		mov	r0, #8
 183              	.LVL20:
 184              	.L2:
 379:.\Generated_Source\PSoC4/I2C_I2C_MASTER.c ****             }
 380:.\Generated_Source\PSoC4/I2C_I2C_MASTER.c ****         }
ARM GAS  C:\Users\744\AppData\Local\Temp\ccnzmzQv.s 			page 11


 381:.\Generated_Source\PSoC4/I2C_I2C_MASTER.c ****     }
 382:.\Generated_Source\PSoC4/I2C_I2C_MASTER.c **** 
 383:.\Generated_Source\PSoC4/I2C_I2C_MASTER.c ****     return(errStatus);
 384:.\Generated_Source\PSoC4/I2C_I2C_MASTER.c **** }
 185              		.loc 1 384 0
 186              		@ sp needed
 187 00b8 38BD     		pop	{r3, r4, r5, pc}
 188              	.L13:
 189 00ba C046     		.align	2
 190              	.L12:
 191 00bc 00000000 		.word	I2C_state
 192 00c0 64000740 		.word	1074200676
 193 00c4 40020740 		.word	1074201152
 194 00c8 17030000 		.word	791
 195 00cc 000F0740 		.word	1074204416
 196 00d0 68000740 		.word	1074200680
 197 00d4 00000740 		.word	1074200576
 198              		.cfi_endproc
 199              	.LFE2:
 200              		.size	I2C_I2CMasterSendStart, .-I2C_I2CMasterSendStart
 201              		.section	.text.I2C_I2CMasterSendStop,"ax",%progbits
 202              		.align	2
 203              		.global	I2C_I2CMasterSendStop
 204              		.code	16
 205              		.thumb_func
 206              		.type	I2C_I2CMasterSendStop, %function
 207              	I2C_I2CMasterSendStop:
 208              	.LFB4:
 385:.\Generated_Source\PSoC4/I2C_I2C_MASTER.c **** 
 386:.\Generated_Source\PSoC4/I2C_I2C_MASTER.c **** 
 387:.\Generated_Source\PSoC4/I2C_I2C_MASTER.c **** /*******************************************************************************
 388:.\Generated_Source\PSoC4/I2C_I2C_MASTER.c **** * Function Name: I2C_I2CMasterSendRestart
 389:.\Generated_Source\PSoC4/I2C_I2C_MASTER.c **** ********************************************************************************
 390:.\Generated_Source\PSoC4/I2C_I2C_MASTER.c **** *
 391:.\Generated_Source\PSoC4/I2C_I2C_MASTER.c **** * Summary:
 392:.\Generated_Source\PSoC4/I2C_I2C_MASTER.c **** *  Generates Restart condition and sends slave address with read/write bit.
 393:.\Generated_Source\PSoC4/I2C_I2C_MASTER.c **** *  This function is blocking and does not return until start condition and
 394:.\Generated_Source\PSoC4/I2C_I2C_MASTER.c **** *  address are sent and ACK/NACK response is received or errors occurred.
 395:.\Generated_Source\PSoC4/I2C_I2C_MASTER.c **** *
 396:.\Generated_Source\PSoC4/I2C_I2C_MASTER.c **** * Parameters:
 397:.\Generated_Source\PSoC4/I2C_I2C_MASTER.c **** *  slaveAddress: Right justified 7-bit Slave address (valid range 8 to 120).
 398:.\Generated_Source\PSoC4/I2C_I2C_MASTER.c **** *  bitRnW:       Direction of the following transfer. It is defined by
 399:.\Generated_Source\PSoC4/I2C_I2C_MASTER.c **** *                read/write bit within address byte.
 400:.\Generated_Source\PSoC4/I2C_I2C_MASTER.c **** *
 401:.\Generated_Source\PSoC4/I2C_I2C_MASTER.c **** * Return:
 402:.\Generated_Source\PSoC4/I2C_I2C_MASTER.c **** *  Error status
 403:.\Generated_Source\PSoC4/I2C_I2C_MASTER.c **** *
 404:.\Generated_Source\PSoC4/I2C_I2C_MASTER.c **** *
 405:.\Generated_Source\PSoC4/I2C_I2C_MASTER.c **** * Global variables:
 406:.\Generated_Source\PSoC4/I2C_I2C_MASTER.c **** *  I2C_state - used to store current state of software FSM.
 407:.\Generated_Source\PSoC4/I2C_I2C_MASTER.c **** *
 408:.\Generated_Source\PSoC4/I2C_I2C_MASTER.c **** *******************************************************************************/
 409:.\Generated_Source\PSoC4/I2C_I2C_MASTER.c **** uint32 I2C_I2CMasterSendRestart(uint32 slaveAddress, uint32 bitRnW)
 410:.\Generated_Source\PSoC4/I2C_I2C_MASTER.c **** {
 411:.\Generated_Source\PSoC4/I2C_I2C_MASTER.c ****     uint32 resetIp;
 412:.\Generated_Source\PSoC4/I2C_I2C_MASTER.c ****     uint32 errStatus;
 413:.\Generated_Source\PSoC4/I2C_I2C_MASTER.c **** 
ARM GAS  C:\Users\744\AppData\Local\Temp\ccnzmzQv.s 			page 12


 414:.\Generated_Source\PSoC4/I2C_I2C_MASTER.c ****     resetIp   = 0u;
 415:.\Generated_Source\PSoC4/I2C_I2C_MASTER.c ****     errStatus = I2C_I2C_MSTR_NOT_READY;
 416:.\Generated_Source\PSoC4/I2C_I2C_MASTER.c **** 
 417:.\Generated_Source\PSoC4/I2C_I2C_MASTER.c ****     /* Check FSM state before generating ReStart condition */
 418:.\Generated_Source\PSoC4/I2C_I2C_MASTER.c ****     if(I2C_CHECK_I2C_MASTER_ACTIVE)
 419:.\Generated_Source\PSoC4/I2C_I2C_MASTER.c ****     {
 420:.\Generated_Source\PSoC4/I2C_I2C_MASTER.c ****         slaveAddress = I2C_GET_I2C_8BIT_ADDRESS(slaveAddress);
 421:.\Generated_Source\PSoC4/I2C_I2C_MASTER.c **** 
 422:.\Generated_Source\PSoC4/I2C_I2C_MASTER.c ****         if(0u == bitRnW) /* Write direction */
 423:.\Generated_Source\PSoC4/I2C_I2C_MASTER.c ****         {
 424:.\Generated_Source\PSoC4/I2C_I2C_MASTER.c ****             I2C_state = I2C_I2C_FSM_MSTR_WR_DATA;
 425:.\Generated_Source\PSoC4/I2C_I2C_MASTER.c ****         }
 426:.\Generated_Source\PSoC4/I2C_I2C_MASTER.c ****         else  /* Read direction */
 427:.\Generated_Source\PSoC4/I2C_I2C_MASTER.c ****         {
 428:.\Generated_Source\PSoC4/I2C_I2C_MASTER.c ****             I2C_state  = I2C_I2C_FSM_MSTR_RD_DATA;
 429:.\Generated_Source\PSoC4/I2C_I2C_MASTER.c ****                       slaveAddress |= I2C_I2C_READ_FLAG;
 430:.\Generated_Source\PSoC4/I2C_I2C_MASTER.c ****         }
 431:.\Generated_Source\PSoC4/I2C_I2C_MASTER.c **** 
 432:.\Generated_Source\PSoC4/I2C_I2C_MASTER.c ****         /* TX and RX FIFO have to be EMPTY */
 433:.\Generated_Source\PSoC4/I2C_I2C_MASTER.c **** 
 434:.\Generated_Source\PSoC4/I2C_I2C_MASTER.c ****         /* Clean-up interrupt status */
 435:.\Generated_Source\PSoC4/I2C_I2C_MASTER.c ****         I2C_ClearMasterInterruptSource(I2C_INTR_MASTER_ALL);
 436:.\Generated_Source\PSoC4/I2C_I2C_MASTER.c **** 
 437:.\Generated_Source\PSoC4/I2C_I2C_MASTER.c ****         /* A proper ReStart sequence is: generate ReStart, then put an address byte in the TX FIFO.
 438:.\Generated_Source\PSoC4/I2C_I2C_MASTER.c ****         * Otherwise the master treats the address in the TX FIFO as a data byte if a previous trans
 439:.\Generated_Source\PSoC4/I2C_I2C_MASTER.c ****         * The write transfer continues instead of ReStart.
 440:.\Generated_Source\PSoC4/I2C_I2C_MASTER.c ****         */
 441:.\Generated_Source\PSoC4/I2C_I2C_MASTER.c ****         I2C_I2C_MASTER_GENERATE_RESTART;
 442:.\Generated_Source\PSoC4/I2C_I2C_MASTER.c **** 
 443:.\Generated_Source\PSoC4/I2C_I2C_MASTER.c ****         while(I2C_CHECK_I2C_MASTER_CMD(I2C_I2C_MASTER_CMD_M_START))
 444:.\Generated_Source\PSoC4/I2C_I2C_MASTER.c ****         {
 445:.\Generated_Source\PSoC4/I2C_I2C_MASTER.c ****             /* Wait until ReStart has been generated */
 446:.\Generated_Source\PSoC4/I2C_I2C_MASTER.c ****         }
 447:.\Generated_Source\PSoC4/I2C_I2C_MASTER.c **** 
 448:.\Generated_Source\PSoC4/I2C_I2C_MASTER.c ****         /* Put address into TX FIFO */
 449:.\Generated_Source\PSoC4/I2C_I2C_MASTER.c ****         I2C_TX_FIFO_WR_REG = slaveAddress;
 450:.\Generated_Source\PSoC4/I2C_I2C_MASTER.c **** 
 451:.\Generated_Source\PSoC4/I2C_I2C_MASTER.c ****         /* Wait for address to be transferred */
 452:.\Generated_Source\PSoC4/I2C_I2C_MASTER.c ****         while(!I2C_CHECK_INTR_MASTER(I2C_INTR_MASTER_I2C_ACK      |
 453:.\Generated_Source\PSoC4/I2C_I2C_MASTER.c ****                                                   I2C_INTR_MASTER_I2C_NACK     |
 454:.\Generated_Source\PSoC4/I2C_I2C_MASTER.c ****                                                   I2C_INTR_MASTER_I2C_ARB_LOST |
 455:.\Generated_Source\PSoC4/I2C_I2C_MASTER.c ****                                                   I2C_INTR_MASTER_I2C_BUS_ERROR))
 456:.\Generated_Source\PSoC4/I2C_I2C_MASTER.c ****         {
 457:.\Generated_Source\PSoC4/I2C_I2C_MASTER.c ****             /* Wait until address has been transferred */
 458:.\Generated_Source\PSoC4/I2C_I2C_MASTER.c ****         }
 459:.\Generated_Source\PSoC4/I2C_I2C_MASTER.c **** 
 460:.\Generated_Source\PSoC4/I2C_I2C_MASTER.c ****         /* Check results of address phase */
 461:.\Generated_Source\PSoC4/I2C_I2C_MASTER.c ****         if(I2C_CHECK_INTR_MASTER(I2C_INTR_MASTER_I2C_ACK))
 462:.\Generated_Source\PSoC4/I2C_I2C_MASTER.c ****         {
 463:.\Generated_Source\PSoC4/I2C_I2C_MASTER.c ****             errStatus = I2C_I2C_MSTR_NO_ERROR;
 464:.\Generated_Source\PSoC4/I2C_I2C_MASTER.c ****         }
 465:.\Generated_Source\PSoC4/I2C_I2C_MASTER.c ****         else if(I2C_CHECK_INTR_MASTER(I2C_INTR_MASTER_I2C_NACK))
 466:.\Generated_Source\PSoC4/I2C_I2C_MASTER.c ****         {
 467:.\Generated_Source\PSoC4/I2C_I2C_MASTER.c ****              errStatus = I2C_I2C_MSTR_ERR_LB_NAK;
 468:.\Generated_Source\PSoC4/I2C_I2C_MASTER.c ****         }
 469:.\Generated_Source\PSoC4/I2C_I2C_MASTER.c ****         else if(I2C_CHECK_INTR_MASTER(I2C_INTR_MASTER_I2C_ARB_LOST))
 470:.\Generated_Source\PSoC4/I2C_I2C_MASTER.c ****         {
ARM GAS  C:\Users\744\AppData\Local\Temp\ccnzmzQv.s 			page 13


 471:.\Generated_Source\PSoC4/I2C_I2C_MASTER.c ****             I2C_state = I2C_I2C_FSM_IDLE;
 472:.\Generated_Source\PSoC4/I2C_I2C_MASTER.c ****                          errStatus = I2C_I2C_MSTR_ERR_ARB_LOST;
 473:.\Generated_Source\PSoC4/I2C_I2C_MASTER.c ****                          resetIp   = I2C_I2C_RESET_ERROR;
 474:.\Generated_Source\PSoC4/I2C_I2C_MASTER.c ****         }
 475:.\Generated_Source\PSoC4/I2C_I2C_MASTER.c ****         else /* I2C_INTR_MASTER_I2C_BUS_ERROR set is else condition */
 476:.\Generated_Source\PSoC4/I2C_I2C_MASTER.c ****         {
 477:.\Generated_Source\PSoC4/I2C_I2C_MASTER.c ****             I2C_state = I2C_I2C_FSM_IDLE;
 478:.\Generated_Source\PSoC4/I2C_I2C_MASTER.c ****                          errStatus = I2C_I2C_MSTR_ERR_BUS_ERR;
 479:.\Generated_Source\PSoC4/I2C_I2C_MASTER.c ****                          resetIp   = I2C_I2C_RESET_ERROR;
 480:.\Generated_Source\PSoC4/I2C_I2C_MASTER.c ****         }
 481:.\Generated_Source\PSoC4/I2C_I2C_MASTER.c **** 
 482:.\Generated_Source\PSoC4/I2C_I2C_MASTER.c ****         I2C_ClearMasterInterruptSource(I2C_INTR_MASTER_I2C_ACK      |
 483:.\Generated_Source\PSoC4/I2C_I2C_MASTER.c ****                                                     I2C_INTR_MASTER_I2C_NACK     |
 484:.\Generated_Source\PSoC4/I2C_I2C_MASTER.c ****                                                     I2C_INTR_MASTER_I2C_ARB_LOST |
 485:.\Generated_Source\PSoC4/I2C_I2C_MASTER.c ****                                                     I2C_INTR_MASTER_I2C_BUS_ERROR);
 486:.\Generated_Source\PSoC4/I2C_I2C_MASTER.c **** 
 487:.\Generated_Source\PSoC4/I2C_I2C_MASTER.c ****         /* Reset block in case of: LOST_ARB or BUS_ERR */
 488:.\Generated_Source\PSoC4/I2C_I2C_MASTER.c ****         if(0u != resetIp)
 489:.\Generated_Source\PSoC4/I2C_I2C_MASTER.c ****         {
 490:.\Generated_Source\PSoC4/I2C_I2C_MASTER.c ****             I2C_SCB_SW_RESET;
 491:.\Generated_Source\PSoC4/I2C_I2C_MASTER.c ****         }
 492:.\Generated_Source\PSoC4/I2C_I2C_MASTER.c ****     }
 493:.\Generated_Source\PSoC4/I2C_I2C_MASTER.c **** 
 494:.\Generated_Source\PSoC4/I2C_I2C_MASTER.c ****     return(errStatus);
 495:.\Generated_Source\PSoC4/I2C_I2C_MASTER.c **** }
 496:.\Generated_Source\PSoC4/I2C_I2C_MASTER.c **** 
 497:.\Generated_Source\PSoC4/I2C_I2C_MASTER.c **** 
 498:.\Generated_Source\PSoC4/I2C_I2C_MASTER.c **** /*******************************************************************************
 499:.\Generated_Source\PSoC4/I2C_I2C_MASTER.c **** * Function Name: I2C_I2CMasterSendStop
 500:.\Generated_Source\PSoC4/I2C_I2C_MASTER.c **** ********************************************************************************
 501:.\Generated_Source\PSoC4/I2C_I2C_MASTER.c **** *
 502:.\Generated_Source\PSoC4/I2C_I2C_MASTER.c **** * Summary:
 503:.\Generated_Source\PSoC4/I2C_I2C_MASTER.c **** *  Generates Stop condition on the bus.
 504:.\Generated_Source\PSoC4/I2C_I2C_MASTER.c **** *  At least one byte has to be read if start or restart condition with read
 505:.\Generated_Source\PSoC4/I2C_I2C_MASTER.c **** *  direction was generated before.
 506:.\Generated_Source\PSoC4/I2C_I2C_MASTER.c **** *  This function is blocking and does not return until a stop condition
 507:.\Generated_Source\PSoC4/I2C_I2C_MASTER.c **** *  is generated or error occurred.
 508:.\Generated_Source\PSoC4/I2C_I2C_MASTER.c **** *
 509:.\Generated_Source\PSoC4/I2C_I2C_MASTER.c **** * Parameters:
 510:.\Generated_Source\PSoC4/I2C_I2C_MASTER.c **** *  None
 511:.\Generated_Source\PSoC4/I2C_I2C_MASTER.c **** *
 512:.\Generated_Source\PSoC4/I2C_I2C_MASTER.c **** * Return:
 513:.\Generated_Source\PSoC4/I2C_I2C_MASTER.c **** *  Error status
 514:.\Generated_Source\PSoC4/I2C_I2C_MASTER.c **** *
 515:.\Generated_Source\PSoC4/I2C_I2C_MASTER.c **** * Side Effects:
 516:.\Generated_Source\PSoC4/I2C_I2C_MASTER.c **** *  A valid Start or ReStart condition must be generated before calling
 517:.\Generated_Source\PSoC4/I2C_I2C_MASTER.c **** *  this function. This function does nothing if Start or ReStart condition
 518:.\Generated_Source\PSoC4/I2C_I2C_MASTER.c **** *  failed before this function was called.
 519:.\Generated_Source\PSoC4/I2C_I2C_MASTER.c **** *  For read transfer, at least one byte has to be read before Stop generation.
 520:.\Generated_Source\PSoC4/I2C_I2C_MASTER.c **** *
 521:.\Generated_Source\PSoC4/I2C_I2C_MASTER.c **** * Global variables:
 522:.\Generated_Source\PSoC4/I2C_I2C_MASTER.c **** *  I2C_state - used to store current state of software FSM.
 523:.\Generated_Source\PSoC4/I2C_I2C_MASTER.c **** *
 524:.\Generated_Source\PSoC4/I2C_I2C_MASTER.c **** *******************************************************************************/
 525:.\Generated_Source\PSoC4/I2C_I2C_MASTER.c **** uint32 I2C_I2CMasterSendStop(void)
 526:.\Generated_Source\PSoC4/I2C_I2C_MASTER.c **** {
 209              		.loc 1 526 0
ARM GAS  C:\Users\744\AppData\Local\Temp\ccnzmzQv.s 			page 14


 210              		.cfi_startproc
 211              	.LVL21:
 527:.\Generated_Source\PSoC4/I2C_I2C_MASTER.c ****     uint32 resetIp;
 528:.\Generated_Source\PSoC4/I2C_I2C_MASTER.c ****     uint32 errStatus;
 529:.\Generated_Source\PSoC4/I2C_I2C_MASTER.c **** 
 530:.\Generated_Source\PSoC4/I2C_I2C_MASTER.c ****     resetIp   = 0u;
 531:.\Generated_Source\PSoC4/I2C_I2C_MASTER.c ****     errStatus = I2C_I2C_MSTR_NOT_READY;
 532:.\Generated_Source\PSoC4/I2C_I2C_MASTER.c **** 
 533:.\Generated_Source\PSoC4/I2C_I2C_MASTER.c ****     /* Check FSM state before generating Stop condition */
 534:.\Generated_Source\PSoC4/I2C_I2C_MASTER.c ****     if(I2C_CHECK_I2C_MASTER_ACTIVE)
 212              		.loc 1 534 0
 213 0000 1D4B     		ldr	r3, .L23
 214 0002 1B78     		ldrb	r3, [r3]
 215 0004 9B06     		lsl	r3, r3, #26
 216 0006 34D5     		bpl	.L19
 535:.\Generated_Source\PSoC4/I2C_I2C_MASTER.c ****     {
 536:.\Generated_Source\PSoC4/I2C_I2C_MASTER.c ****         /*
 537:.\Generated_Source\PSoC4/I2C_I2C_MASTER.c ****         * Write direction: generates Stop
 538:.\Generated_Source\PSoC4/I2C_I2C_MASTER.c ****         * Read  direction: generates NACK and Stop
 539:.\Generated_Source\PSoC4/I2C_I2C_MASTER.c ****         */
 540:.\Generated_Source\PSoC4/I2C_I2C_MASTER.c ****         I2C_I2C_MASTER_GENERATE_STOP;
 217              		.loc 1 540 0
 218 0008 1C4B     		ldr	r3, .L23+4
 219 000a 1B68     		ldr	r3, [r3]
 220 000c 9B06     		lsl	r3, r3, #26
 221 000e 01D5     		bpl	.L20
 222 0010 1822     		mov	r2, #24
 223 0012 00E0     		b	.L16
 224              	.L20:
 225 0014 1022     		mov	r2, #16
 226              	.L16:
 227              		.loc 1 540 0 is_stmt 0 discriminator 4
 228 0016 1A4B     		ldr	r3, .L23+8
 229 0018 1A60     		str	r2, [r3]
 230              	.L17:
 541:.\Generated_Source\PSoC4/I2C_I2C_MASTER.c **** 
 542:.\Generated_Source\PSoC4/I2C_I2C_MASTER.c ****         while(!I2C_CHECK_INTR_MASTER(I2C_INTR_MASTER_I2C_STOP     |
 231              		.loc 1 542 0 is_stmt 1 discriminator 1
 232 001a 1A4B     		ldr	r3, .L23+12
 233 001c 1A68     		ldr	r2, [r3]
 234 001e 1223     		mov	r3, #18
 235 0020 FF33     		add	r3, r3, #255
 236 0022 1A42     		tst	r2, r3
 237 0024 F9D0     		beq	.L17
 543:.\Generated_Source\PSoC4/I2C_I2C_MASTER.c ****                                                   I2C_INTR_MASTER_I2C_ARB_LOST |
 544:.\Generated_Source\PSoC4/I2C_I2C_MASTER.c ****                                                   I2C_INTR_MASTER_I2C_BUS_ERROR))
 545:.\Generated_Source\PSoC4/I2C_I2C_MASTER.c ****         {
 546:.\Generated_Source\PSoC4/I2C_I2C_MASTER.c ****             /* Wait until Stop has been generated */
 547:.\Generated_Source\PSoC4/I2C_I2C_MASTER.c ****         }
 548:.\Generated_Source\PSoC4/I2C_I2C_MASTER.c **** 
 549:.\Generated_Source\PSoC4/I2C_I2C_MASTER.c ****         /* Check Stop generation */
 550:.\Generated_Source\PSoC4/I2C_I2C_MASTER.c ****         if(I2C_CHECK_INTR_MASTER(I2C_INTR_MASTER_I2C_STOP))
 238              		.loc 1 550 0
 239 0026 174B     		ldr	r3, .L23+12
 240 0028 1B68     		ldr	r3, [r3]
 241 002a DB06     		lsl	r3, r3, #27
 242 002c 06D4     		bmi	.L21
ARM GAS  C:\Users\744\AppData\Local\Temp\ccnzmzQv.s 			page 15


 551:.\Generated_Source\PSoC4/I2C_I2C_MASTER.c ****         {
 552:.\Generated_Source\PSoC4/I2C_I2C_MASTER.c ****             errStatus = I2C_I2C_MSTR_NO_ERROR;
 553:.\Generated_Source\PSoC4/I2C_I2C_MASTER.c ****         }
 554:.\Generated_Source\PSoC4/I2C_I2C_MASTER.c ****         else if(I2C_CHECK_INTR_MASTER(I2C_INTR_MASTER_I2C_ARB_LOST))
 243              		.loc 1 554 0
 244 002e 154B     		ldr	r3, .L23+12
 245 0030 1B68     		ldr	r3, [r3]
 246 0032 DB07     		lsl	r3, r3, #31
 247 0034 05D5     		bpl	.L22
 555:.\Generated_Source\PSoC4/I2C_I2C_MASTER.c ****         {
 556:.\Generated_Source\PSoC4/I2C_I2C_MASTER.c ****             errStatus = I2C_I2C_MSTR_ERR_ARB_LOST;
 248              		.loc 1 556 0
 249 0036 0120     		mov	r0, #1
 557:.\Generated_Source\PSoC4/I2C_I2C_MASTER.c ****             resetIp   = I2C_I2C_RESET_ERROR;
 250              		.loc 1 557 0
 251 0038 0121     		mov	r1, #1
 252 003a 05E0     		b	.L18
 253              	.L21:
 552:.\Generated_Source\PSoC4/I2C_I2C_MASTER.c ****         }
 254              		.loc 1 552 0
 255 003c 0020     		mov	r0, #0
 530:.\Generated_Source\PSoC4/I2C_I2C_MASTER.c ****     errStatus = I2C_I2C_MSTR_NOT_READY;
 256              		.loc 1 530 0
 257 003e 0021     		mov	r1, #0
 258 0040 02E0     		b	.L18
 259              	.L22:
 558:.\Generated_Source\PSoC4/I2C_I2C_MASTER.c ****         }
 559:.\Generated_Source\PSoC4/I2C_I2C_MASTER.c ****         else /* I2C_INTR_MASTER_I2C_BUS_ERROR is set */
 560:.\Generated_Source\PSoC4/I2C_I2C_MASTER.c ****         {
 561:.\Generated_Source\PSoC4/I2C_I2C_MASTER.c ****             errStatus = I2C_I2C_MSTR_ERR_BUS_ERR;
 260              		.loc 1 561 0
 261 0042 8020     		mov	r0, #128
 262 0044 4000     		lsl	r0, r0, #1
 562:.\Generated_Source\PSoC4/I2C_I2C_MASTER.c ****             resetIp   = I2C_I2C_RESET_ERROR;
 263              		.loc 1 562 0
 264 0046 0121     		mov	r1, #1
 265              	.L18:
 266              	.LVL22:
 563:.\Generated_Source\PSoC4/I2C_I2C_MASTER.c ****         }
 564:.\Generated_Source\PSoC4/I2C_I2C_MASTER.c **** 
 565:.\Generated_Source\PSoC4/I2C_I2C_MASTER.c ****         I2C_ClearMasterInterruptSource(I2C_INTR_MASTER_I2C_STOP     |
 267              		.loc 1 565 0
 268 0048 1222     		mov	r2, #18
 269 004a FF32     		add	r2, r2, #255
 270 004c 0D4B     		ldr	r3, .L23+12
 271 004e 1A60     		str	r2, [r3]
 566:.\Generated_Source\PSoC4/I2C_I2C_MASTER.c ****                                                     I2C_INTR_MASTER_I2C_ARB_LOST |
 567:.\Generated_Source\PSoC4/I2C_I2C_MASTER.c ****                                                     I2C_INTR_MASTER_I2C_BUS_ERROR);
 568:.\Generated_Source\PSoC4/I2C_I2C_MASTER.c **** 
 569:.\Generated_Source\PSoC4/I2C_I2C_MASTER.c ****         I2C_state = I2C_I2C_FSM_IDLE;
 272              		.loc 1 569 0
 273 0050 023A     		sub	r2, r2, #2
 274 0052 FF3A     		sub	r2, r2, #255
 275 0054 084B     		ldr	r3, .L23
 276 0056 1A70     		strb	r2, [r3]
 570:.\Generated_Source\PSoC4/I2C_I2C_MASTER.c **** 
 571:.\Generated_Source\PSoC4/I2C_I2C_MASTER.c ****         /* Reset block in case of: LOST_ARB or BUS_ERR */
ARM GAS  C:\Users\744\AppData\Local\Temp\ccnzmzQv.s 			page 16


 572:.\Generated_Source\PSoC4/I2C_I2C_MASTER.c ****         if(0u != resetIp)
 277              		.loc 1 572 0
 278 0058 0029     		cmp	r1, #0
 279 005a 0BD0     		beq	.L15
 573:.\Generated_Source\PSoC4/I2C_I2C_MASTER.c ****         {
 574:.\Generated_Source\PSoC4/I2C_I2C_MASTER.c ****             I2C_SCB_SW_RESET;
 280              		.loc 1 574 0
 281 005c 0A4A     		ldr	r2, .L23+16
 282 005e 1368     		ldr	r3, [r2]
 283 0060 5B00     		lsl	r3, r3, #1
 284 0062 5B08     		lsr	r3, r3, #1
 285 0064 1360     		str	r3, [r2]
 286 0066 1368     		ldr	r3, [r2]
 287 0068 8021     		mov	r1, #128
 288              	.LVL23:
 289 006a 0906     		lsl	r1, r1, #24
 290 006c 0B43     		orr	r3, r1
 291 006e 1360     		str	r3, [r2]
 292 0070 00E0     		b	.L15
 293              	.LVL24:
 294              	.L19:
 531:.\Generated_Source\PSoC4/I2C_I2C_MASTER.c **** 
 295              		.loc 1 531 0
 296 0072 0420     		mov	r0, #4
 297              	.LVL25:
 298              	.L15:
 575:.\Generated_Source\PSoC4/I2C_I2C_MASTER.c ****         }
 576:.\Generated_Source\PSoC4/I2C_I2C_MASTER.c ****     }
 577:.\Generated_Source\PSoC4/I2C_I2C_MASTER.c **** 
 578:.\Generated_Source\PSoC4/I2C_I2C_MASTER.c ****     return(errStatus);
 579:.\Generated_Source\PSoC4/I2C_I2C_MASTER.c **** }
 299              		.loc 1 579 0
 300              		@ sp needed
 301 0074 7047     		bx	lr
 302              	.L24:
 303 0076 C046     		.align	2
 304              	.L23:
 305 0078 00000000 		.word	I2C_state
 306 007c 64000740 		.word	1074200676
 307 0080 68000740 		.word	1074200680
 308 0084 000F0740 		.word	1074204416
 309 0088 00000740 		.word	1074200576
 310              		.cfi_endproc
 311              	.LFE4:
 312              		.size	I2C_I2CMasterSendStop, .-I2C_I2CMasterSendStop
 313              		.section	.text.I2C_I2CMasterWriteByte,"ax",%progbits
 314              		.align	2
 315              		.global	I2C_I2CMasterWriteByte
 316              		.code	16
 317              		.thumb_func
 318              		.type	I2C_I2CMasterWriteByte, %function
 319              	I2C_I2CMasterWriteByte:
 320              	.LFB5:
 580:.\Generated_Source\PSoC4/I2C_I2C_MASTER.c **** 
 581:.\Generated_Source\PSoC4/I2C_I2C_MASTER.c **** 
 582:.\Generated_Source\PSoC4/I2C_I2C_MASTER.c **** /*******************************************************************************
 583:.\Generated_Source\PSoC4/I2C_I2C_MASTER.c **** * Function Name: I2C_I2CMasterWriteByte
ARM GAS  C:\Users\744\AppData\Local\Temp\ccnzmzQv.s 			page 17


 584:.\Generated_Source\PSoC4/I2C_I2C_MASTER.c **** ********************************************************************************
 585:.\Generated_Source\PSoC4/I2C_I2C_MASTER.c **** *
 586:.\Generated_Source\PSoC4/I2C_I2C_MASTER.c **** * Summary:
 587:.\Generated_Source\PSoC4/I2C_I2C_MASTER.c **** *  Sends one byte to a slave.
 588:.\Generated_Source\PSoC4/I2C_I2C_MASTER.c **** *  This function is blocking and does not return until byte is transmitted
 589:.\Generated_Source\PSoC4/I2C_I2C_MASTER.c **** *  or error occurred.
 590:.\Generated_Source\PSoC4/I2C_I2C_MASTER.c **** *
 591:.\Generated_Source\PSoC4/I2C_I2C_MASTER.c **** * Parameters:
 592:.\Generated_Source\PSoC4/I2C_I2C_MASTER.c **** *  data: The data byte to send to the slave.
 593:.\Generated_Source\PSoC4/I2C_I2C_MASTER.c **** *
 594:.\Generated_Source\PSoC4/I2C_I2C_MASTER.c **** * Return:
 595:.\Generated_Source\PSoC4/I2C_I2C_MASTER.c **** *  Error status
 596:.\Generated_Source\PSoC4/I2C_I2C_MASTER.c **** *
 597:.\Generated_Source\PSoC4/I2C_I2C_MASTER.c **** * Side Effects:
 598:.\Generated_Source\PSoC4/I2C_I2C_MASTER.c **** *  A valid Start or ReStart condition must be generated before calling
 599:.\Generated_Source\PSoC4/I2C_I2C_MASTER.c **** *  this function. This function does nothing if Start or ReStart condition
 600:.\Generated_Source\PSoC4/I2C_I2C_MASTER.c **** *  failed before this function was called.
 601:.\Generated_Source\PSoC4/I2C_I2C_MASTER.c **** *
 602:.\Generated_Source\PSoC4/I2C_I2C_MASTER.c **** * Global variables:
 603:.\Generated_Source\PSoC4/I2C_I2C_MASTER.c **** *  I2C_state - used to store current state of software FSM.
 604:.\Generated_Source\PSoC4/I2C_I2C_MASTER.c **** *
 605:.\Generated_Source\PSoC4/I2C_I2C_MASTER.c **** *******************************************************************************/
 606:.\Generated_Source\PSoC4/I2C_I2C_MASTER.c **** uint32 I2C_I2CMasterWriteByte(uint32 theByte)
 607:.\Generated_Source\PSoC4/I2C_I2C_MASTER.c **** {
 321              		.loc 1 607 0
 322              		.cfi_startproc
 323              	.LVL26:
 608:.\Generated_Source\PSoC4/I2C_I2C_MASTER.c ****     uint32 resetIp;
 609:.\Generated_Source\PSoC4/I2C_I2C_MASTER.c ****     uint32 errStatus;
 610:.\Generated_Source\PSoC4/I2C_I2C_MASTER.c **** 
 611:.\Generated_Source\PSoC4/I2C_I2C_MASTER.c ****     resetIp   = 0u;
 612:.\Generated_Source\PSoC4/I2C_I2C_MASTER.c ****     errStatus = I2C_I2C_MSTR_NOT_READY;
 613:.\Generated_Source\PSoC4/I2C_I2C_MASTER.c **** 
 614:.\Generated_Source\PSoC4/I2C_I2C_MASTER.c ****     /* Check FSM state before write byte */
 615:.\Generated_Source\PSoC4/I2C_I2C_MASTER.c ****     if(I2C_CHECK_I2C_MASTER_ACTIVE)
 324              		.loc 1 615 0
 325 0000 214B     		ldr	r3, .L33
 326 0002 1B78     		ldrb	r3, [r3]
 327 0004 9B06     		lsl	r3, r3, #26
 328 0006 3CD5     		bpl	.L32
 616:.\Generated_Source\PSoC4/I2C_I2C_MASTER.c ****     {
 617:.\Generated_Source\PSoC4/I2C_I2C_MASTER.c ****         I2C_TX_FIFO_WR_REG = theByte;
 329              		.loc 1 617 0
 330 0008 204B     		ldr	r3, .L33+4
 331 000a 1860     		str	r0, [r3]
 332              	.L27:
 618:.\Generated_Source\PSoC4/I2C_I2C_MASTER.c **** 
 619:.\Generated_Source\PSoC4/I2C_I2C_MASTER.c ****         while(!I2C_CHECK_INTR_MASTER(I2C_INTR_MASTER_I2C_ACK      |
 333              		.loc 1 619 0 discriminator 1
 334 000c 204B     		ldr	r3, .L33+8
 335 000e 1A68     		ldr	r2, [r3]
 336 0010 0823     		mov	r3, #8
 337 0012 FF33     		add	r3, r3, #255
 338 0014 1A42     		tst	r2, r3
 339 0016 F9D0     		beq	.L27
 620:.\Generated_Source\PSoC4/I2C_I2C_MASTER.c ****                                                   I2C_INTR_MASTER_I2C_NACK     |
 621:.\Generated_Source\PSoC4/I2C_I2C_MASTER.c ****                                                   I2C_INTR_MASTER_I2C_ARB_LOST |
ARM GAS  C:\Users\744\AppData\Local\Temp\ccnzmzQv.s 			page 18


 622:.\Generated_Source\PSoC4/I2C_I2C_MASTER.c ****                                                   I2C_INTR_MASTER_I2C_BUS_ERROR))
 623:.\Generated_Source\PSoC4/I2C_I2C_MASTER.c ****         {
 624:.\Generated_Source\PSoC4/I2C_I2C_MASTER.c ****             /* Wait until byte has been transferred */
 625:.\Generated_Source\PSoC4/I2C_I2C_MASTER.c ****         }
 626:.\Generated_Source\PSoC4/I2C_I2C_MASTER.c **** 
 627:.\Generated_Source\PSoC4/I2C_I2C_MASTER.c ****         /* Check results after byte was sent */
 628:.\Generated_Source\PSoC4/I2C_I2C_MASTER.c ****         if(I2C_CHECK_INTR_MASTER(I2C_INTR_MASTER_I2C_ACK))
 340              		.loc 1 628 0
 341 0018 1D4B     		ldr	r3, .L33+8
 342 001a 1B68     		ldr	r3, [r3]
 343 001c 5B07     		lsl	r3, r3, #29
 344 001e 05D5     		bpl	.L28
 629:.\Generated_Source\PSoC4/I2C_I2C_MASTER.c ****         {
 630:.\Generated_Source\PSoC4/I2C_I2C_MASTER.c ****             I2C_state = I2C_I2C_FSM_MSTR_HALT;
 345              		.loc 1 630 0
 346 0020 6022     		mov	r2, #96
 347 0022 194B     		ldr	r3, .L33
 348 0024 1A70     		strb	r2, [r3]
 349              	.LVL27:
 631:.\Generated_Source\PSoC4/I2C_I2C_MASTER.c ****                          errStatus = I2C_I2C_MSTR_NO_ERROR;
 350              		.loc 1 631 0
 351 0026 0020     		mov	r0, #0
 352              	.LVL28:
 611:.\Generated_Source\PSoC4/I2C_I2C_MASTER.c ****     errStatus = I2C_I2C_MSTR_NOT_READY;
 353              		.loc 1 611 0
 354 0028 0021     		mov	r1, #0
 355 002a 19E0     		b	.L29
 356              	.LVL29:
 357              	.L28:
 632:.\Generated_Source\PSoC4/I2C_I2C_MASTER.c ****         }
 633:.\Generated_Source\PSoC4/I2C_I2C_MASTER.c ****         else if(I2C_CHECK_INTR_MASTER(I2C_INTR_MASTER_I2C_NACK))
 358              		.loc 1 633 0
 359 002c 184B     		ldr	r3, .L33+8
 360 002e 1B68     		ldr	r3, [r3]
 361 0030 9B07     		lsl	r3, r3, #30
 362 0032 05D5     		bpl	.L30
 634:.\Generated_Source\PSoC4/I2C_I2C_MASTER.c ****         {
 635:.\Generated_Source\PSoC4/I2C_I2C_MASTER.c ****             I2C_state = I2C_I2C_FSM_MSTR_HALT;
 363              		.loc 1 635 0
 364 0034 6022     		mov	r2, #96
 365 0036 144B     		ldr	r3, .L33
 366 0038 1A70     		strb	r2, [r3]
 367              	.LVL30:
 636:.\Generated_Source\PSoC4/I2C_I2C_MASTER.c ****                          errStatus = I2C_I2C_MSTR_ERR_LB_NAK;
 368              		.loc 1 636 0
 369 003a 0220     		mov	r0, #2
 370              	.LVL31:
 611:.\Generated_Source\PSoC4/I2C_I2C_MASTER.c ****     errStatus = I2C_I2C_MSTR_NOT_READY;
 371              		.loc 1 611 0
 372 003c 0021     		mov	r1, #0
 373 003e 0FE0     		b	.L29
 374              	.LVL32:
 375              	.L30:
 637:.\Generated_Source\PSoC4/I2C_I2C_MASTER.c ****         }
 638:.\Generated_Source\PSoC4/I2C_I2C_MASTER.c ****         else if(I2C_CHECK_INTR_MASTER(I2C_INTR_MASTER_I2C_ARB_LOST))
 376              		.loc 1 638 0
 377 0040 134B     		ldr	r3, .L33+8
ARM GAS  C:\Users\744\AppData\Local\Temp\ccnzmzQv.s 			page 19


 378 0042 1B68     		ldr	r3, [r3]
 379 0044 DB07     		lsl	r3, r3, #31
 380 0046 05D5     		bpl	.L31
 639:.\Generated_Source\PSoC4/I2C_I2C_MASTER.c ****         {
 640:.\Generated_Source\PSoC4/I2C_I2C_MASTER.c ****             I2C_state = I2C_I2C_FSM_IDLE;
 381              		.loc 1 640 0
 382 0048 1022     		mov	r2, #16
 383 004a 0F4B     		ldr	r3, .L33
 384 004c 1A70     		strb	r2, [r3]
 385              	.LVL33:
 641:.\Generated_Source\PSoC4/I2C_I2C_MASTER.c ****                          errStatus = I2C_I2C_MSTR_ERR_ARB_LOST;
 386              		.loc 1 641 0
 387 004e 0120     		mov	r0, #1
 388              	.LVL34:
 642:.\Generated_Source\PSoC4/I2C_I2C_MASTER.c ****                          resetIp   = I2C_I2C_RESET_ERROR;
 389              		.loc 1 642 0
 390 0050 0121     		mov	r1, #1
 391 0052 05E0     		b	.L29
 392              	.LVL35:
 393              	.L31:
 643:.\Generated_Source\PSoC4/I2C_I2C_MASTER.c ****         }
 644:.\Generated_Source\PSoC4/I2C_I2C_MASTER.c ****         else /* I2C_INTR_MASTER_I2C_BUS_ERROR set is */
 645:.\Generated_Source\PSoC4/I2C_I2C_MASTER.c ****         {
 646:.\Generated_Source\PSoC4/I2C_I2C_MASTER.c ****             I2C_state = I2C_I2C_FSM_IDLE;
 394              		.loc 1 646 0
 395 0054 1022     		mov	r2, #16
 396 0056 0C4B     		ldr	r3, .L33
 397 0058 1A70     		strb	r2, [r3]
 398              	.LVL36:
 647:.\Generated_Source\PSoC4/I2C_I2C_MASTER.c ****                          errStatus = I2C_I2C_MSTR_ERR_BUS_ERR;
 399              		.loc 1 647 0
 400 005a 8020     		mov	r0, #128
 401              	.LVL37:
 402 005c 4000     		lsl	r0, r0, #1
 648:.\Generated_Source\PSoC4/I2C_I2C_MASTER.c ****                          resetIp   = I2C_I2C_RESET_ERROR;
 403              		.loc 1 648 0
 404 005e 0121     		mov	r1, #1
 405              	.LVL38:
 406              	.L29:
 649:.\Generated_Source\PSoC4/I2C_I2C_MASTER.c ****         }
 650:.\Generated_Source\PSoC4/I2C_I2C_MASTER.c **** 
 651:.\Generated_Source\PSoC4/I2C_I2C_MASTER.c ****         I2C_ClearMasterInterruptSource(I2C_INTR_MASTER_I2C_ACK      |
 407              		.loc 1 651 0
 408 0060 0822     		mov	r2, #8
 409 0062 FF32     		add	r2, r2, #255
 410 0064 0A4B     		ldr	r3, .L33+8
 411 0066 1A60     		str	r2, [r3]
 652:.\Generated_Source\PSoC4/I2C_I2C_MASTER.c ****                                                     I2C_INTR_MASTER_I2C_NACK     |
 653:.\Generated_Source\PSoC4/I2C_I2C_MASTER.c ****                                                     I2C_INTR_MASTER_I2C_ARB_LOST |
 654:.\Generated_Source\PSoC4/I2C_I2C_MASTER.c ****                                                     I2C_INTR_MASTER_I2C_BUS_ERROR);
 655:.\Generated_Source\PSoC4/I2C_I2C_MASTER.c **** 
 656:.\Generated_Source\PSoC4/I2C_I2C_MASTER.c ****         /* Reset block in case of: LOST_ARB or BUS_ERR */
 657:.\Generated_Source\PSoC4/I2C_I2C_MASTER.c ****         if(0u != resetIp)
 412              		.loc 1 657 0
 413 0068 0029     		cmp	r1, #0
 414 006a 0BD0     		beq	.L26
 658:.\Generated_Source\PSoC4/I2C_I2C_MASTER.c ****         {
ARM GAS  C:\Users\744\AppData\Local\Temp\ccnzmzQv.s 			page 20


 659:.\Generated_Source\PSoC4/I2C_I2C_MASTER.c ****             I2C_SCB_SW_RESET;
 415              		.loc 1 659 0
 416 006c 094A     		ldr	r2, .L33+12
 417 006e 1368     		ldr	r3, [r2]
 418 0070 5B00     		lsl	r3, r3, #1
 419 0072 5B08     		lsr	r3, r3, #1
 420 0074 1360     		str	r3, [r2]
 421 0076 1368     		ldr	r3, [r2]
 422 0078 8021     		mov	r1, #128
 423              	.LVL39:
 424 007a 0906     		lsl	r1, r1, #24
 425 007c 0B43     		orr	r3, r1
 426 007e 1360     		str	r3, [r2]
 427 0080 00E0     		b	.L26
 428              	.LVL40:
 429              	.L32:
 612:.\Generated_Source\PSoC4/I2C_I2C_MASTER.c **** 
 430              		.loc 1 612 0
 431 0082 0420     		mov	r0, #4
 432              	.LVL41:
 433              	.L26:
 660:.\Generated_Source\PSoC4/I2C_I2C_MASTER.c ****         }
 661:.\Generated_Source\PSoC4/I2C_I2C_MASTER.c ****     }
 662:.\Generated_Source\PSoC4/I2C_I2C_MASTER.c **** 
 663:.\Generated_Source\PSoC4/I2C_I2C_MASTER.c ****     return(errStatus);
 664:.\Generated_Source\PSoC4/I2C_I2C_MASTER.c **** }
 434              		.loc 1 664 0
 435              		@ sp needed
 436 0084 7047     		bx	lr
 437              	.L34:
 438 0086 C046     		.align	2
 439              	.L33:
 440 0088 00000000 		.word	I2C_state
 441 008c 40020740 		.word	1074201152
 442 0090 000F0740 		.word	1074204416
 443 0094 00000740 		.word	1074200576
 444              		.cfi_endproc
 445              	.LFE5:
 446              		.size	I2C_I2CMasterWriteByte, .-I2C_I2CMasterWriteByte
 447              		.section	.text.I2C_I2CMasterReadByte,"ax",%progbits
 448              		.align	2
 449              		.global	I2C_I2CMasterReadByte
 450              		.code	16
 451              		.thumb_func
 452              		.type	I2C_I2CMasterReadByte, %function
 453              	I2C_I2CMasterReadByte:
 454              	.LFB6:
 665:.\Generated_Source\PSoC4/I2C_I2C_MASTER.c **** 
 666:.\Generated_Source\PSoC4/I2C_I2C_MASTER.c **** 
 667:.\Generated_Source\PSoC4/I2C_I2C_MASTER.c **** /*******************************************************************************
 668:.\Generated_Source\PSoC4/I2C_I2C_MASTER.c **** * Function Name: I2C_I2CMasterReadByte
 669:.\Generated_Source\PSoC4/I2C_I2C_MASTER.c **** ********************************************************************************
 670:.\Generated_Source\PSoC4/I2C_I2C_MASTER.c **** *
 671:.\Generated_Source\PSoC4/I2C_I2C_MASTER.c **** * Summary:
 672:.\Generated_Source\PSoC4/I2C_I2C_MASTER.c **** *  Reads one byte from a slave and ACKs or NAKs received byte.
 673:.\Generated_Source\PSoC4/I2C_I2C_MASTER.c **** *  This function does not generate NAK explicitly. The following call
 674:.\Generated_Source\PSoC4/I2C_I2C_MASTER.c **** *  SCB_I2CMasterSendStop() or SCB_I2CMasterSendRestart() will generate NAK and
ARM GAS  C:\Users\744\AppData\Local\Temp\ccnzmzQv.s 			page 21


 675:.\Generated_Source\PSoC4/I2C_I2C_MASTER.c **** *  Stop or ReStart condition appropriately.
 676:.\Generated_Source\PSoC4/I2C_I2C_MASTER.c **** *  This function is blocking and does not return until byte is received
 677:.\Generated_Source\PSoC4/I2C_I2C_MASTER.c **** *  or error occurred.
 678:.\Generated_Source\PSoC4/I2C_I2C_MASTER.c **** *
 679:.\Generated_Source\PSoC4/I2C_I2C_MASTER.c **** * Parameters:
 680:.\Generated_Source\PSoC4/I2C_I2C_MASTER.c **** *  ackNack: Response to received byte.
 681:.\Generated_Source\PSoC4/I2C_I2C_MASTER.c **** *
 682:.\Generated_Source\PSoC4/I2C_I2C_MASTER.c **** * Return:
 683:.\Generated_Source\PSoC4/I2C_I2C_MASTER.c **** *  Byte read from the slave. In case of error the MSB of returned data
 684:.\Generated_Source\PSoC4/I2C_I2C_MASTER.c **** *  is set to 1.
 685:.\Generated_Source\PSoC4/I2C_I2C_MASTER.c **** *
 686:.\Generated_Source\PSoC4/I2C_I2C_MASTER.c **** * Side Effects:
 687:.\Generated_Source\PSoC4/I2C_I2C_MASTER.c **** *  A valid Start or ReStart condition must be generated before calling this
 688:.\Generated_Source\PSoC4/I2C_I2C_MASTER.c **** *  function. This function does nothing and returns invalid byte value
 689:.\Generated_Source\PSoC4/I2C_I2C_MASTER.c **** *  if Start or ReStart conditions failed before this function was called.
 690:.\Generated_Source\PSoC4/I2C_I2C_MASTER.c **** *
 691:.\Generated_Source\PSoC4/I2C_I2C_MASTER.c **** * Global variables:
 692:.\Generated_Source\PSoC4/I2C_I2C_MASTER.c **** *  I2C_state - used to store current state of software FSM.
 693:.\Generated_Source\PSoC4/I2C_I2C_MASTER.c **** *
 694:.\Generated_Source\PSoC4/I2C_I2C_MASTER.c **** *******************************************************************************/
 695:.\Generated_Source\PSoC4/I2C_I2C_MASTER.c **** uint32 I2C_I2CMasterReadByte(uint32 ackNack)
 696:.\Generated_Source\PSoC4/I2C_I2C_MASTER.c **** {
 455              		.loc 1 696 0
 456              		.cfi_startproc
 457              	.LVL42:
 458 0000 011C     		mov	r1, r0
 459              	.LVL43:
 697:.\Generated_Source\PSoC4/I2C_I2C_MASTER.c ****     uint32 theByte;
 698:.\Generated_Source\PSoC4/I2C_I2C_MASTER.c **** 
 699:.\Generated_Source\PSoC4/I2C_I2C_MASTER.c ****     /* Return invalid byte in case BUS_ERR happen during receiving */
 700:.\Generated_Source\PSoC4/I2C_I2C_MASTER.c ****     theByte = I2C_I2C_INVALID_BYTE;
 701:.\Generated_Source\PSoC4/I2C_I2C_MASTER.c **** 
 702:.\Generated_Source\PSoC4/I2C_I2C_MASTER.c ****     /* Check FSM state before read byte */
 703:.\Generated_Source\PSoC4/I2C_I2C_MASTER.c ****     if(I2C_CHECK_I2C_MASTER_ACTIVE)
 460              		.loc 1 703 0
 461 0002 194B     		ldr	r3, .L42
 462 0004 1B78     		ldrb	r3, [r3]
 463 0006 9B06     		lsl	r3, r3, #26
 464 0008 2BD5     		bpl	.L41
 465              	.L38:
 704:.\Generated_Source\PSoC4/I2C_I2C_MASTER.c ****     {
 705:.\Generated_Source\PSoC4/I2C_I2C_MASTER.c ****         while((!I2C_CHECK_INTR_RX(I2C_INTR_RX_NOT_EMPTY)) &&
 466              		.loc 1 705 0 discriminator 2
 467 000a 184B     		ldr	r3, .L42+4
 468 000c 1B68     		ldr	r3, [r3]
 469 000e 5B07     		lsl	r3, r3, #29
 470 0010 05D4     		bmi	.L37
 706:.\Generated_Source\PSoC4/I2C_I2C_MASTER.c ****               (!I2C_CHECK_INTR_MASTER(I2C_INTR_MASTER_I2C_ARB_LOST |
 471              		.loc 1 706 0 discriminator 1
 472 0012 174B     		ldr	r3, .L42+8
 473 0014 1A68     		ldr	r2, [r3]
 705:.\Generated_Source\PSoC4/I2C_I2C_MASTER.c ****               (!I2C_CHECK_INTR_MASTER(I2C_INTR_MASTER_I2C_ARB_LOST |
 474              		.loc 1 705 0 discriminator 1
 475 0016 0223     		mov	r3, #2
 476 0018 FF33     		add	r3, r3, #255
 477 001a 1A42     		tst	r2, r3
 478 001c F5D0     		beq	.L38
ARM GAS  C:\Users\744\AppData\Local\Temp\ccnzmzQv.s 			page 22


 479              	.L37:
 707:.\Generated_Source\PSoC4/I2C_I2C_MASTER.c ****                                                   I2C_INTR_MASTER_I2C_BUS_ERROR)))
 708:.\Generated_Source\PSoC4/I2C_I2C_MASTER.c ****         {
 709:.\Generated_Source\PSoC4/I2C_I2C_MASTER.c ****             /* Wait until byte has been received */
 710:.\Generated_Source\PSoC4/I2C_I2C_MASTER.c ****         }
 711:.\Generated_Source\PSoC4/I2C_I2C_MASTER.c **** 
 712:.\Generated_Source\PSoC4/I2C_I2C_MASTER.c ****         /* Check the results after the byte was sent */
 713:.\Generated_Source\PSoC4/I2C_I2C_MASTER.c ****         if(I2C_CHECK_INTR_RX(I2C_INTR_RX_NOT_EMPTY))
 480              		.loc 1 713 0
 481 001e 134B     		ldr	r3, .L42+4
 482 0020 1B68     		ldr	r3, [r3]
 483 0022 5B07     		lsl	r3, r3, #29
 484 0024 0DD5     		bpl	.L39
 714:.\Generated_Source\PSoC4/I2C_I2C_MASTER.c ****         {
 715:.\Generated_Source\PSoC4/I2C_I2C_MASTER.c ****             theByte = I2C_RX_FIFO_RD_REG;
 485              		.loc 1 715 0
 486 0026 134B     		ldr	r3, .L42+12
 487 0028 1868     		ldr	r0, [r3]
 488              	.LVL44:
 716:.\Generated_Source\PSoC4/I2C_I2C_MASTER.c **** 
 717:.\Generated_Source\PSoC4/I2C_I2C_MASTER.c ****             I2C_ClearRxInterruptSource(I2C_INTR_RX_NOT_EMPTY);
 489              		.loc 1 717 0
 490 002a 0422     		mov	r2, #4
 491 002c 0F4B     		ldr	r3, .L42+4
 492 002e 1A60     		str	r2, [r3]
 718:.\Generated_Source\PSoC4/I2C_I2C_MASTER.c **** 
 719:.\Generated_Source\PSoC4/I2C_I2C_MASTER.c ****             if(0u == ackNack)
 493              		.loc 1 719 0
 494 0030 0029     		cmp	r1, #0
 495 0032 02D1     		bne	.L40
 720:.\Generated_Source\PSoC4/I2C_I2C_MASTER.c ****             {
 721:.\Generated_Source\PSoC4/I2C_I2C_MASTER.c ****                 I2C_I2C_MASTER_GENERATE_ACK;
 496              		.loc 1 721 0
 497 0034 104B     		ldr	r3, .L42+16
 498 0036 1A60     		str	r2, [r3]
 499 0038 15E0     		b	.L36
 500              	.L40:
 722:.\Generated_Source\PSoC4/I2C_I2C_MASTER.c ****             }
 723:.\Generated_Source\PSoC4/I2C_I2C_MASTER.c ****             else
 724:.\Generated_Source\PSoC4/I2C_I2C_MASTER.c ****             {
 725:.\Generated_Source\PSoC4/I2C_I2C_MASTER.c ****                 /* NACK is generated by Stop or ReStart command */
 726:.\Generated_Source\PSoC4/I2C_I2C_MASTER.c ****                 I2C_state = I2C_I2C_FSM_MSTR_HALT;
 501              		.loc 1 726 0
 502 003a 6022     		mov	r2, #96
 503 003c 0A4B     		ldr	r3, .L42
 504 003e 1A70     		strb	r2, [r3]
 505 0040 11E0     		b	.L36
 506              	.LVL45:
 507              	.L39:
 727:.\Generated_Source\PSoC4/I2C_I2C_MASTER.c ****             }
 728:.\Generated_Source\PSoC4/I2C_I2C_MASTER.c ****         }
 729:.\Generated_Source\PSoC4/I2C_I2C_MASTER.c ****         else
 730:.\Generated_Source\PSoC4/I2C_I2C_MASTER.c ****         {
 731:.\Generated_Source\PSoC4/I2C_I2C_MASTER.c ****             I2C_ClearMasterInterruptSource(I2C_INTR_MASTER_ALL);
 508              		.loc 1 731 0
 509 0042 0E4A     		ldr	r2, .L42+20
 510 0044 0A4B     		ldr	r3, .L42+8
ARM GAS  C:\Users\744\AppData\Local\Temp\ccnzmzQv.s 			page 23


 511 0046 1A60     		str	r2, [r3]
 732:.\Generated_Source\PSoC4/I2C_I2C_MASTER.c **** 
 733:.\Generated_Source\PSoC4/I2C_I2C_MASTER.c ****             /* Reset block in case of: LOST_ARB or BUS_ERR */
 734:.\Generated_Source\PSoC4/I2C_I2C_MASTER.c ****             I2C_SCB_SW_RESET;
 512              		.loc 1 734 0
 513 0048 0D4A     		ldr	r2, .L42+24
 514 004a 1368     		ldr	r3, [r2]
 515 004c 5B00     		lsl	r3, r3, #1
 516 004e 5B08     		lsr	r3, r3, #1
 517 0050 1360     		str	r3, [r2]
 518 0052 1368     		ldr	r3, [r2]
 519 0054 8021     		mov	r1, #128
 520 0056 0906     		lsl	r1, r1, #24
 521 0058 0B43     		orr	r3, r1
 522 005a 1360     		str	r3, [r2]
 700:.\Generated_Source\PSoC4/I2C_I2C_MASTER.c **** 
 523              		.loc 1 700 0
 524 005c 0120     		mov	r0, #1
 525              	.LVL46:
 526 005e 4042     		neg	r0, r0
 527 0060 01E0     		b	.L36
 528              	.LVL47:
 529              	.L41:
 530 0062 0120     		mov	r0, #1
 531              	.LVL48:
 532 0064 4042     		neg	r0, r0
 533              	.LVL49:
 534              	.L36:
 735:.\Generated_Source\PSoC4/I2C_I2C_MASTER.c ****         }
 736:.\Generated_Source\PSoC4/I2C_I2C_MASTER.c ****     }
 737:.\Generated_Source\PSoC4/I2C_I2C_MASTER.c **** 
 738:.\Generated_Source\PSoC4/I2C_I2C_MASTER.c ****     return(theByte);
 739:.\Generated_Source\PSoC4/I2C_I2C_MASTER.c **** }
 535              		.loc 1 739 0
 536              		@ sp needed
 537 0066 7047     		bx	lr
 538              	.L43:
 539              		.align	2
 540              	.L42:
 541 0068 00000000 		.word	I2C_state
 542 006c C00F0740 		.word	1074204608
 543 0070 000F0740 		.word	1074204416
 544 0074 40030740 		.word	1074201408
 545 0078 68000740 		.word	1074200680
 546 007c 17030000 		.word	791
 547 0080 00000740 		.word	1074200576
 548              		.cfi_endproc
 549              	.LFE6:
 550              		.size	I2C_I2CMasterReadByte, .-I2C_I2CMasterReadByte
 551              		.section	.text.I2C_I2CMasterGetReadBufSize,"ax",%progbits
 552              		.align	2
 553              		.global	I2C_I2CMasterGetReadBufSize
 554              		.code	16
 555              		.thumb_func
 556              		.type	I2C_I2CMasterGetReadBufSize, %function
 557              	I2C_I2CMasterGetReadBufSize:
 558              	.LFB7:
ARM GAS  C:\Users\744\AppData\Local\Temp\ccnzmzQv.s 			page 24


 740:.\Generated_Source\PSoC4/I2C_I2C_MASTER.c **** 
 741:.\Generated_Source\PSoC4/I2C_I2C_MASTER.c **** 
 742:.\Generated_Source\PSoC4/I2C_I2C_MASTER.c **** /*******************************************************************************
 743:.\Generated_Source\PSoC4/I2C_I2C_MASTER.c **** * Function Name: I2C_I2CMasterGetReadBufSize
 744:.\Generated_Source\PSoC4/I2C_I2C_MASTER.c **** ********************************************************************************
 745:.\Generated_Source\PSoC4/I2C_I2C_MASTER.c **** *
 746:.\Generated_Source\PSoC4/I2C_I2C_MASTER.c **** * Summary:
 747:.\Generated_Source\PSoC4/I2C_I2C_MASTER.c **** *  Returns the number of bytes that has been transferred with an
 748:.\Generated_Source\PSoC4/I2C_I2C_MASTER.c **** *  SCB_I2CMasterReadBuf() function.
 749:.\Generated_Source\PSoC4/I2C_I2C_MASTER.c **** *
 750:.\Generated_Source\PSoC4/I2C_I2C_MASTER.c **** * Parameters:
 751:.\Generated_Source\PSoC4/I2C_I2C_MASTER.c **** *  None
 752:.\Generated_Source\PSoC4/I2C_I2C_MASTER.c **** *
 753:.\Generated_Source\PSoC4/I2C_I2C_MASTER.c **** * Return:
 754:.\Generated_Source\PSoC4/I2C_I2C_MASTER.c **** *  Byte count of transfer. If the transfer is not yet complete, it returns
 755:.\Generated_Source\PSoC4/I2C_I2C_MASTER.c **** *  the byte count transferred so far.
 756:.\Generated_Source\PSoC4/I2C_I2C_MASTER.c **** *
 757:.\Generated_Source\PSoC4/I2C_I2C_MASTER.c **** * Side Effects:
 758:.\Generated_Source\PSoC4/I2C_I2C_MASTER.c **** *  This function returns not valid value if SCB_I2C_MSTAT_ERR_ARB_LOST
 759:.\Generated_Source\PSoC4/I2C_I2C_MASTER.c **** *  or SCB_I2C_MSTAT_ERR_BUS_ERROR occurred while read transfer.
 760:.\Generated_Source\PSoC4/I2C_I2C_MASTER.c **** *
 761:.\Generated_Source\PSoC4/I2C_I2C_MASTER.c **** * Global variables:
 762:.\Generated_Source\PSoC4/I2C_I2C_MASTER.c **** *  I2C_mstrRdBufIndex - used to current index within master read
 763:.\Generated_Source\PSoC4/I2C_I2C_MASTER.c **** *  buffer.
 764:.\Generated_Source\PSoC4/I2C_I2C_MASTER.c **** *
 765:.\Generated_Source\PSoC4/I2C_I2C_MASTER.c **** *******************************************************************************/
 766:.\Generated_Source\PSoC4/I2C_I2C_MASTER.c **** uint32 I2C_I2CMasterGetReadBufSize(void)
 767:.\Generated_Source\PSoC4/I2C_I2C_MASTER.c **** {
 559              		.loc 1 767 0
 560              		.cfi_startproc
 768:.\Generated_Source\PSoC4/I2C_I2C_MASTER.c ****     return(I2C_mstrRdBufIndex);
 561              		.loc 1 768 0
 562 0000 014B     		ldr	r3, .L45
 563 0002 1868     		ldr	r0, [r3]
 769:.\Generated_Source\PSoC4/I2C_I2C_MASTER.c **** }
 564              		.loc 1 769 0
 565              		@ sp needed
 566 0004 7047     		bx	lr
 567              	.L46:
 568 0006 C046     		.align	2
 569              	.L45:
 570 0008 00000000 		.word	I2C_mstrRdBufIndex
 571              		.cfi_endproc
 572              	.LFE7:
 573              		.size	I2C_I2CMasterGetReadBufSize, .-I2C_I2CMasterGetReadBufSize
 574              		.section	.text.I2C_I2CMasterGetWriteBufSize,"ax",%progbits
 575              		.align	2
 576              		.global	I2C_I2CMasterGetWriteBufSize
 577              		.code	16
 578              		.thumb_func
 579              		.type	I2C_I2CMasterGetWriteBufSize, %function
 580              	I2C_I2CMasterGetWriteBufSize:
 581              	.LFB8:
 770:.\Generated_Source\PSoC4/I2C_I2C_MASTER.c **** 
 771:.\Generated_Source\PSoC4/I2C_I2C_MASTER.c **** 
 772:.\Generated_Source\PSoC4/I2C_I2C_MASTER.c **** /*******************************************************************************
 773:.\Generated_Source\PSoC4/I2C_I2C_MASTER.c **** * Function Name: I2C_I2CMasterGetWriteBufSize
ARM GAS  C:\Users\744\AppData\Local\Temp\ccnzmzQv.s 			page 25


 774:.\Generated_Source\PSoC4/I2C_I2C_MASTER.c **** ********************************************************************************
 775:.\Generated_Source\PSoC4/I2C_I2C_MASTER.c **** *
 776:.\Generated_Source\PSoC4/I2C_I2C_MASTER.c **** * Summary:
 777:.\Generated_Source\PSoC4/I2C_I2C_MASTER.c **** *  Returns the number of bytes that have been transferred with an
 778:.\Generated_Source\PSoC4/I2C_I2C_MASTER.c **** *  SCB_I2CMasterWriteBuf() function.
 779:.\Generated_Source\PSoC4/I2C_I2C_MASTER.c **** *
 780:.\Generated_Source\PSoC4/I2C_I2C_MASTER.c **** * Parameters:
 781:.\Generated_Source\PSoC4/I2C_I2C_MASTER.c **** *  None
 782:.\Generated_Source\PSoC4/I2C_I2C_MASTER.c **** *
 783:.\Generated_Source\PSoC4/I2C_I2C_MASTER.c **** * Return:
 784:.\Generated_Source\PSoC4/I2C_I2C_MASTER.c **** *  Byte count of transfer. If the transfer is not yet complete, it returns
 785:.\Generated_Source\PSoC4/I2C_I2C_MASTER.c **** *  zero unit transfer completion.
 786:.\Generated_Source\PSoC4/I2C_I2C_MASTER.c **** *
 787:.\Generated_Source\PSoC4/I2C_I2C_MASTER.c **** * Side Effects:
 788:.\Generated_Source\PSoC4/I2C_I2C_MASTER.c **** *  This function returns not valid value if SCB_I2C_MSTAT_ERR_ARB_LOST
 789:.\Generated_Source\PSoC4/I2C_I2C_MASTER.c **** *  or SCB_I2C_MSTAT_ERR_BUS_ERROR occurred while read transfer.
 790:.\Generated_Source\PSoC4/I2C_I2C_MASTER.c **** *
 791:.\Generated_Source\PSoC4/I2C_I2C_MASTER.c **** * Global variables:
 792:.\Generated_Source\PSoC4/I2C_I2C_MASTER.c **** *  I2C_mstrWrBufIndex - used to current index within master write
 793:.\Generated_Source\PSoC4/I2C_I2C_MASTER.c **** *  buffer.
 794:.\Generated_Source\PSoC4/I2C_I2C_MASTER.c **** *
 795:.\Generated_Source\PSoC4/I2C_I2C_MASTER.c **** *******************************************************************************/
 796:.\Generated_Source\PSoC4/I2C_I2C_MASTER.c **** uint32 I2C_I2CMasterGetWriteBufSize(void)
 797:.\Generated_Source\PSoC4/I2C_I2C_MASTER.c **** {
 582              		.loc 1 797 0
 583              		.cfi_startproc
 798:.\Generated_Source\PSoC4/I2C_I2C_MASTER.c ****     return(I2C_mstrWrBufIndex);
 584              		.loc 1 798 0
 585 0000 014B     		ldr	r3, .L48
 586 0002 1868     		ldr	r0, [r3]
 799:.\Generated_Source\PSoC4/I2C_I2C_MASTER.c **** }
 587              		.loc 1 799 0
 588              		@ sp needed
 589 0004 7047     		bx	lr
 590              	.L49:
 591 0006 C046     		.align	2
 592              	.L48:
 593 0008 00000000 		.word	I2C_mstrWrBufIndex
 594              		.cfi_endproc
 595              	.LFE8:
 596              		.size	I2C_I2CMasterGetWriteBufSize, .-I2C_I2CMasterGetWriteBufSize
 597              		.section	.text.I2C_I2CMasterClearReadBuf,"ax",%progbits
 598              		.align	2
 599              		.global	I2C_I2CMasterClearReadBuf
 600              		.code	16
 601              		.thumb_func
 602              		.type	I2C_I2CMasterClearReadBuf, %function
 603              	I2C_I2CMasterClearReadBuf:
 604              	.LFB9:
 800:.\Generated_Source\PSoC4/I2C_I2C_MASTER.c **** 
 801:.\Generated_Source\PSoC4/I2C_I2C_MASTER.c **** 
 802:.\Generated_Source\PSoC4/I2C_I2C_MASTER.c **** /*******************************************************************************
 803:.\Generated_Source\PSoC4/I2C_I2C_MASTER.c **** * Function Name: I2C_I2CMasterClearReadBuf
 804:.\Generated_Source\PSoC4/I2C_I2C_MASTER.c **** ********************************************************************************
 805:.\Generated_Source\PSoC4/I2C_I2C_MASTER.c **** *
 806:.\Generated_Source\PSoC4/I2C_I2C_MASTER.c **** * Summary:
 807:.\Generated_Source\PSoC4/I2C_I2C_MASTER.c **** *  Resets the read buffer pointer back to the first byte in the buffer.
ARM GAS  C:\Users\744\AppData\Local\Temp\ccnzmzQv.s 			page 26


 808:.\Generated_Source\PSoC4/I2C_I2C_MASTER.c **** *
 809:.\Generated_Source\PSoC4/I2C_I2C_MASTER.c **** * Parameters:
 810:.\Generated_Source\PSoC4/I2C_I2C_MASTER.c **** *  None
 811:.\Generated_Source\PSoC4/I2C_I2C_MASTER.c **** *
 812:.\Generated_Source\PSoC4/I2C_I2C_MASTER.c **** * Return:
 813:.\Generated_Source\PSoC4/I2C_I2C_MASTER.c **** *  None
 814:.\Generated_Source\PSoC4/I2C_I2C_MASTER.c **** *
 815:.\Generated_Source\PSoC4/I2C_I2C_MASTER.c **** * Global variables:
 816:.\Generated_Source\PSoC4/I2C_I2C_MASTER.c **** *  I2C_mstrRdBufIndex - used to current index within master read
 817:.\Generated_Source\PSoC4/I2C_I2C_MASTER.c **** *   buffer.
 818:.\Generated_Source\PSoC4/I2C_I2C_MASTER.c **** *  I2C_mstrStatus - used to store current status of I2C Master.
 819:.\Generated_Source\PSoC4/I2C_I2C_MASTER.c **** *
 820:.\Generated_Source\PSoC4/I2C_I2C_MASTER.c **** *******************************************************************************/
 821:.\Generated_Source\PSoC4/I2C_I2C_MASTER.c **** void I2C_I2CMasterClearReadBuf(void)
 822:.\Generated_Source\PSoC4/I2C_I2C_MASTER.c **** {
 605              		.loc 1 822 0
 606              		.cfi_startproc
 607 0000 08B5     		push	{r3, lr}
 608              		.cfi_def_cfa_offset 8
 609              		.cfi_offset 3, -8
 610              		.cfi_offset 14, -4
 823:.\Generated_Source\PSoC4/I2C_I2C_MASTER.c ****     I2C_DisableInt();  /* Lock from interruption */
 611              		.loc 1 823 0
 612 0002 0B20     		mov	r0, #11
 613 0004 FFF7FEFF 		bl	CyIntDisable
 614              	.LVL50:
 824:.\Generated_Source\PSoC4/I2C_I2C_MASTER.c **** 
 825:.\Generated_Source\PSoC4/I2C_I2C_MASTER.c ****     I2C_mstrRdBufIndex = 0u;
 615              		.loc 1 825 0
 616 0008 0022     		mov	r2, #0
 617 000a 054B     		ldr	r3, .L51
 618 000c 1A60     		str	r2, [r3]
 826:.\Generated_Source\PSoC4/I2C_I2C_MASTER.c ****     I2C_mstrStatus    &= (uint16) ~I2C_I2C_MSTAT_RD_CMPLT;
 619              		.loc 1 826 0
 620 000e 054A     		ldr	r2, .L51+4
 621 0010 1388     		ldrh	r3, [r2]
 622 0012 0121     		mov	r1, #1
 623 0014 8B43     		bic	r3, r1
 624 0016 1380     		strh	r3, [r2]
 827:.\Generated_Source\PSoC4/I2C_I2C_MASTER.c **** 
 828:.\Generated_Source\PSoC4/I2C_I2C_MASTER.c ****     I2C_EnableInt();   /* Release lock */
 625              		.loc 1 828 0
 626 0018 0B20     		mov	r0, #11
 627 001a FFF7FEFF 		bl	CyIntEnable
 628              	.LVL51:
 829:.\Generated_Source\PSoC4/I2C_I2C_MASTER.c **** }
 629              		.loc 1 829 0
 630              		@ sp needed
 631 001e 08BD     		pop	{r3, pc}
 632              	.L52:
 633              		.align	2
 634              	.L51:
 635 0020 00000000 		.word	I2C_mstrRdBufIndex
 636 0024 00000000 		.word	I2C_mstrStatus
 637              		.cfi_endproc
 638              	.LFE9:
 639              		.size	I2C_I2CMasterClearReadBuf, .-I2C_I2CMasterClearReadBuf
ARM GAS  C:\Users\744\AppData\Local\Temp\ccnzmzQv.s 			page 27


 640              		.section	.text.I2C_I2CMasterClearWriteBuf,"ax",%progbits
 641              		.align	2
 642              		.global	I2C_I2CMasterClearWriteBuf
 643              		.code	16
 644              		.thumb_func
 645              		.type	I2C_I2CMasterClearWriteBuf, %function
 646              	I2C_I2CMasterClearWriteBuf:
 647              	.LFB10:
 830:.\Generated_Source\PSoC4/I2C_I2C_MASTER.c **** 
 831:.\Generated_Source\PSoC4/I2C_I2C_MASTER.c **** 
 832:.\Generated_Source\PSoC4/I2C_I2C_MASTER.c **** /*******************************************************************************
 833:.\Generated_Source\PSoC4/I2C_I2C_MASTER.c **** * Function Name: I2C_I2CMasterClearWriteBuf
 834:.\Generated_Source\PSoC4/I2C_I2C_MASTER.c **** ********************************************************************************
 835:.\Generated_Source\PSoC4/I2C_I2C_MASTER.c **** *
 836:.\Generated_Source\PSoC4/I2C_I2C_MASTER.c **** * Summary:
 837:.\Generated_Source\PSoC4/I2C_I2C_MASTER.c **** *  Resets the write buffer pointer back to the first byte in the buffer.
 838:.\Generated_Source\PSoC4/I2C_I2C_MASTER.c **** *
 839:.\Generated_Source\PSoC4/I2C_I2C_MASTER.c **** * Parameters:
 840:.\Generated_Source\PSoC4/I2C_I2C_MASTER.c **** *  None
 841:.\Generated_Source\PSoC4/I2C_I2C_MASTER.c **** *
 842:.\Generated_Source\PSoC4/I2C_I2C_MASTER.c **** * Return:
 843:.\Generated_Source\PSoC4/I2C_I2C_MASTER.c **** *  None
 844:.\Generated_Source\PSoC4/I2C_I2C_MASTER.c **** *
 845:.\Generated_Source\PSoC4/I2C_I2C_MASTER.c **** * Global variables:
 846:.\Generated_Source\PSoC4/I2C_I2C_MASTER.c **** *  I2C_mstrRdBufIndex - used to current index within master read
 847:.\Generated_Source\PSoC4/I2C_I2C_MASTER.c **** *   buffer.
 848:.\Generated_Source\PSoC4/I2C_I2C_MASTER.c **** *  I2C_mstrStatus - used to store current status of I2C Master.
 849:.\Generated_Source\PSoC4/I2C_I2C_MASTER.c **** *
 850:.\Generated_Source\PSoC4/I2C_I2C_MASTER.c **** *******************************************************************************/
 851:.\Generated_Source\PSoC4/I2C_I2C_MASTER.c **** void I2C_I2CMasterClearWriteBuf(void)
 852:.\Generated_Source\PSoC4/I2C_I2C_MASTER.c **** {
 648              		.loc 1 852 0
 649              		.cfi_startproc
 650 0000 08B5     		push	{r3, lr}
 651              		.cfi_def_cfa_offset 8
 652              		.cfi_offset 3, -8
 653              		.cfi_offset 14, -4
 853:.\Generated_Source\PSoC4/I2C_I2C_MASTER.c ****     I2C_DisableInt();  /* Lock from interruption */
 654              		.loc 1 853 0
 655 0002 0B20     		mov	r0, #11
 656 0004 FFF7FEFF 		bl	CyIntDisable
 657              	.LVL52:
 854:.\Generated_Source\PSoC4/I2C_I2C_MASTER.c **** 
 855:.\Generated_Source\PSoC4/I2C_I2C_MASTER.c ****     I2C_mstrWrBufIndex = 0u;
 658              		.loc 1 855 0
 659 0008 0022     		mov	r2, #0
 660 000a 054B     		ldr	r3, .L54
 661 000c 1A60     		str	r2, [r3]
 856:.\Generated_Source\PSoC4/I2C_I2C_MASTER.c ****     I2C_mstrStatus    &= (uint16) ~I2C_I2C_MSTAT_WR_CMPLT;
 662              		.loc 1 856 0
 663 000e 054A     		ldr	r2, .L54+4
 664 0010 1388     		ldrh	r3, [r2]
 665 0012 0221     		mov	r1, #2
 666 0014 8B43     		bic	r3, r1
 667 0016 1380     		strh	r3, [r2]
 857:.\Generated_Source\PSoC4/I2C_I2C_MASTER.c **** 
 858:.\Generated_Source\PSoC4/I2C_I2C_MASTER.c ****     I2C_EnableInt();   /* Release lock */
ARM GAS  C:\Users\744\AppData\Local\Temp\ccnzmzQv.s 			page 28


 668              		.loc 1 858 0
 669 0018 0B20     		mov	r0, #11
 670 001a FFF7FEFF 		bl	CyIntEnable
 671              	.LVL53:
 859:.\Generated_Source\PSoC4/I2C_I2C_MASTER.c **** }
 672              		.loc 1 859 0
 673              		@ sp needed
 674 001e 08BD     		pop	{r3, pc}
 675              	.L55:
 676              		.align	2
 677              	.L54:
 678 0020 00000000 		.word	I2C_mstrWrBufIndex
 679 0024 00000000 		.word	I2C_mstrStatus
 680              		.cfi_endproc
 681              	.LFE10:
 682              		.size	I2C_I2CMasterClearWriteBuf, .-I2C_I2CMasterClearWriteBuf
 683              		.section	.text.I2C_I2CMasterStatus,"ax",%progbits
 684              		.align	2
 685              		.global	I2C_I2CMasterStatus
 686              		.code	16
 687              		.thumb_func
 688              		.type	I2C_I2CMasterStatus, %function
 689              	I2C_I2CMasterStatus:
 690              	.LFB11:
 860:.\Generated_Source\PSoC4/I2C_I2C_MASTER.c **** 
 861:.\Generated_Source\PSoC4/I2C_I2C_MASTER.c **** 
 862:.\Generated_Source\PSoC4/I2C_I2C_MASTER.c **** /*******************************************************************************
 863:.\Generated_Source\PSoC4/I2C_I2C_MASTER.c **** * Function Name: I2C_I2CMasterStatus
 864:.\Generated_Source\PSoC4/I2C_I2C_MASTER.c **** ********************************************************************************
 865:.\Generated_Source\PSoC4/I2C_I2C_MASTER.c **** *
 866:.\Generated_Source\PSoC4/I2C_I2C_MASTER.c **** * Summary:
 867:.\Generated_Source\PSoC4/I2C_I2C_MASTER.c **** *  Returns the master's communication status.
 868:.\Generated_Source\PSoC4/I2C_I2C_MASTER.c **** *
 869:.\Generated_Source\PSoC4/I2C_I2C_MASTER.c **** * Parameters:
 870:.\Generated_Source\PSoC4/I2C_I2C_MASTER.c **** *  None
 871:.\Generated_Source\PSoC4/I2C_I2C_MASTER.c **** *
 872:.\Generated_Source\PSoC4/I2C_I2C_MASTER.c **** * Return:
 873:.\Generated_Source\PSoC4/I2C_I2C_MASTER.c **** *  Current status of I2C master.
 874:.\Generated_Source\PSoC4/I2C_I2C_MASTER.c **** *
 875:.\Generated_Source\PSoC4/I2C_I2C_MASTER.c **** * Global variables:
 876:.\Generated_Source\PSoC4/I2C_I2C_MASTER.c **** *  I2C_mstrStatus - used to store current status of I2C Master.
 877:.\Generated_Source\PSoC4/I2C_I2C_MASTER.c **** *
 878:.\Generated_Source\PSoC4/I2C_I2C_MASTER.c **** *******************************************************************************/
 879:.\Generated_Source\PSoC4/I2C_I2C_MASTER.c **** uint32 I2C_I2CMasterStatus(void)
 880:.\Generated_Source\PSoC4/I2C_I2C_MASTER.c **** {
 691              		.loc 1 880 0
 692              		.cfi_startproc
 693 0000 10B5     		push	{r4, lr}
 694              		.cfi_def_cfa_offset 8
 695              		.cfi_offset 4, -8
 696              		.cfi_offset 14, -4
 881:.\Generated_Source\PSoC4/I2C_I2C_MASTER.c ****     uint32 status;
 882:.\Generated_Source\PSoC4/I2C_I2C_MASTER.c **** 
 883:.\Generated_Source\PSoC4/I2C_I2C_MASTER.c ****     I2C_DisableInt();  /* Lock from interruption */
 697              		.loc 1 883 0
 698 0002 0B20     		mov	r0, #11
 699 0004 FFF7FEFF 		bl	CyIntDisable
ARM GAS  C:\Users\744\AppData\Local\Temp\ccnzmzQv.s 			page 29


 700              	.LVL54:
 884:.\Generated_Source\PSoC4/I2C_I2C_MASTER.c **** 
 885:.\Generated_Source\PSoC4/I2C_I2C_MASTER.c ****     status = (uint32) I2C_mstrStatus;
 701              		.loc 1 885 0
 702 0008 074B     		ldr	r3, .L58
 703 000a 1B88     		ldrh	r3, [r3]
 704 000c 9BB2     		uxth	r3, r3
 705 000e 1C1C     		mov	r4, r3
 706              	.LVL55:
 886:.\Generated_Source\PSoC4/I2C_I2C_MASTER.c **** 
 887:.\Generated_Source\PSoC4/I2C_I2C_MASTER.c ****     if (I2C_CHECK_I2C_MASTER_ACTIVE)
 707              		.loc 1 887 0
 708 0010 064A     		ldr	r2, .L58+4
 709 0012 1278     		ldrb	r2, [r2]
 710 0014 9206     		lsl	r2, r2, #26
 711 0016 01D5     		bpl	.L57
 888:.\Generated_Source\PSoC4/I2C_I2C_MASTER.c ****     {
 889:.\Generated_Source\PSoC4/I2C_I2C_MASTER.c ****         /* Add status of master pending transaction: MSTAT_XFER_INP */
 890:.\Generated_Source\PSoC4/I2C_I2C_MASTER.c ****         status |= (uint32) I2C_I2C_MSTAT_XFER_INP;
 712              		.loc 1 890 0
 713 0018 0424     		mov	r4, #4
 714 001a 1C43     		orr	r4, r3
 715              	.LVL56:
 716              	.L57:
 891:.\Generated_Source\PSoC4/I2C_I2C_MASTER.c ****     }
 892:.\Generated_Source\PSoC4/I2C_I2C_MASTER.c **** 
 893:.\Generated_Source\PSoC4/I2C_I2C_MASTER.c ****     I2C_EnableInt();   /* Release lock */
 717              		.loc 1 893 0
 718 001c 0B20     		mov	r0, #11
 719 001e FFF7FEFF 		bl	CyIntEnable
 720              	.LVL57:
 894:.\Generated_Source\PSoC4/I2C_I2C_MASTER.c **** 
 895:.\Generated_Source\PSoC4/I2C_I2C_MASTER.c ****     return(status);
 896:.\Generated_Source\PSoC4/I2C_I2C_MASTER.c **** }
 721              		.loc 1 896 0
 722 0022 201C     		mov	r0, r4
 723              		@ sp needed
 724              	.LVL58:
 725 0024 10BD     		pop	{r4, pc}
 726              	.L59:
 727 0026 C046     		.align	2
 728              	.L58:
 729 0028 00000000 		.word	I2C_mstrStatus
 730 002c 00000000 		.word	I2C_state
 731              		.cfi_endproc
 732              	.LFE11:
 733              		.size	I2C_I2CMasterStatus, .-I2C_I2CMasterStatus
 734              		.section	.text.I2C_I2CMasterClearStatus,"ax",%progbits
 735              		.align	2
 736              		.global	I2C_I2CMasterClearStatus
 737              		.code	16
 738              		.thumb_func
 739              		.type	I2C_I2CMasterClearStatus, %function
 740              	I2C_I2CMasterClearStatus:
 741              	.LFB12:
 897:.\Generated_Source\PSoC4/I2C_I2C_MASTER.c **** 
 898:.\Generated_Source\PSoC4/I2C_I2C_MASTER.c **** 
ARM GAS  C:\Users\744\AppData\Local\Temp\ccnzmzQv.s 			page 30


 899:.\Generated_Source\PSoC4/I2C_I2C_MASTER.c **** /*******************************************************************************
 900:.\Generated_Source\PSoC4/I2C_I2C_MASTER.c **** * Function Name: I2C_I2CMasterClearStatus
 901:.\Generated_Source\PSoC4/I2C_I2C_MASTER.c **** ********************************************************************************
 902:.\Generated_Source\PSoC4/I2C_I2C_MASTER.c **** *
 903:.\Generated_Source\PSoC4/I2C_I2C_MASTER.c **** * Summary:
 904:.\Generated_Source\PSoC4/I2C_I2C_MASTER.c **** *  Clears all status flags and returns the master status.
 905:.\Generated_Source\PSoC4/I2C_I2C_MASTER.c **** *
 906:.\Generated_Source\PSoC4/I2C_I2C_MASTER.c **** * Parameters:
 907:.\Generated_Source\PSoC4/I2C_I2C_MASTER.c **** *  None
 908:.\Generated_Source\PSoC4/I2C_I2C_MASTER.c **** *
 909:.\Generated_Source\PSoC4/I2C_I2C_MASTER.c **** * Return:
 910:.\Generated_Source\PSoC4/I2C_I2C_MASTER.c **** *  Current status of I2C master.
 911:.\Generated_Source\PSoC4/I2C_I2C_MASTER.c **** *
 912:.\Generated_Source\PSoC4/I2C_I2C_MASTER.c **** * Global variables:
 913:.\Generated_Source\PSoC4/I2C_I2C_MASTER.c **** *  I2C_mstrStatus - used to store current status of I2C Master.
 914:.\Generated_Source\PSoC4/I2C_I2C_MASTER.c **** *
 915:.\Generated_Source\PSoC4/I2C_I2C_MASTER.c **** *******************************************************************************/
 916:.\Generated_Source\PSoC4/I2C_I2C_MASTER.c **** uint32 I2C_I2CMasterClearStatus(void)
 917:.\Generated_Source\PSoC4/I2C_I2C_MASTER.c **** {
 742              		.loc 1 917 0
 743              		.cfi_startproc
 744 0000 10B5     		push	{r4, lr}
 745              		.cfi_def_cfa_offset 8
 746              		.cfi_offset 4, -8
 747              		.cfi_offset 14, -4
 918:.\Generated_Source\PSoC4/I2C_I2C_MASTER.c ****     uint32 status;
 919:.\Generated_Source\PSoC4/I2C_I2C_MASTER.c **** 
 920:.\Generated_Source\PSoC4/I2C_I2C_MASTER.c ****     I2C_DisableInt();  /* Lock from interruption */
 748              		.loc 1 920 0
 749 0002 0B20     		mov	r0, #11
 750 0004 FFF7FEFF 		bl	CyIntDisable
 751              	.LVL59:
 921:.\Generated_Source\PSoC4/I2C_I2C_MASTER.c **** 
 922:.\Generated_Source\PSoC4/I2C_I2C_MASTER.c ****     /* Read and clear master status */
 923:.\Generated_Source\PSoC4/I2C_I2C_MASTER.c ****     status = (uint32) I2C_mstrStatus;
 752              		.loc 1 923 0
 753 0008 044B     		ldr	r3, .L61
 754 000a 1C88     		ldrh	r4, [r3]
 755 000c A4B2     		uxth	r4, r4
 756              	.LVL60:
 924:.\Generated_Source\PSoC4/I2C_I2C_MASTER.c ****     I2C_mstrStatus = I2C_I2C_MSTAT_CLEAR;
 757              		.loc 1 924 0
 758 000e 0022     		mov	r2, #0
 759 0010 1A80     		strh	r2, [r3]
 925:.\Generated_Source\PSoC4/I2C_I2C_MASTER.c **** 
 926:.\Generated_Source\PSoC4/I2C_I2C_MASTER.c ****     I2C_EnableInt();   /* Release lock */
 760              		.loc 1 926 0
 761 0012 0B20     		mov	r0, #11
 762 0014 FFF7FEFF 		bl	CyIntEnable
 763              	.LVL61:
 927:.\Generated_Source\PSoC4/I2C_I2C_MASTER.c **** 
 928:.\Generated_Source\PSoC4/I2C_I2C_MASTER.c ****     return(status);
 929:.\Generated_Source\PSoC4/I2C_I2C_MASTER.c **** }
 764              		.loc 1 929 0
 765 0018 201C     		mov	r0, r4
 766              		@ sp needed
 767              	.LVL62:
ARM GAS  C:\Users\744\AppData\Local\Temp\ccnzmzQv.s 			page 31


 768 001a 10BD     		pop	{r4, pc}
 769              	.L62:
 770              		.align	2
 771              	.L61:
 772 001c 00000000 		.word	I2C_mstrStatus
 773              		.cfi_endproc
 774              	.LFE12:
 775              		.size	I2C_I2CMasterClearStatus, .-I2C_I2CMasterClearStatus
 776              		.section	.text.I2C_I2CReStartGeneration,"ax",%progbits
 777              		.align	2
 778              		.global	I2C_I2CReStartGeneration
 779              		.code	16
 780              		.thumb_func
 781              		.type	I2C_I2CReStartGeneration, %function
 782              	I2C_I2CReStartGeneration:
 783              	.LFB13:
 930:.\Generated_Source\PSoC4/I2C_I2C_MASTER.c **** 
 931:.\Generated_Source\PSoC4/I2C_I2C_MASTER.c **** 
 932:.\Generated_Source\PSoC4/I2C_I2C_MASTER.c **** /*******************************************************************************
 933:.\Generated_Source\PSoC4/I2C_I2C_MASTER.c **** * Function Name: I2C_I2CReStartGeneration
 934:.\Generated_Source\PSoC4/I2C_I2C_MASTER.c **** ********************************************************************************
 935:.\Generated_Source\PSoC4/I2C_I2C_MASTER.c **** *
 936:.\Generated_Source\PSoC4/I2C_I2C_MASTER.c **** * Summary:
 937:.\Generated_Source\PSoC4/I2C_I2C_MASTER.c **** *  Generates a ReStart condition:
 938:.\Generated_Source\PSoC4/I2C_I2C_MASTER.c **** *  SCB IP V1 and later: Generates ReStart using the scb IP functionality
 939:.\Generated_Source\PSoC4/I2C_I2C_MASTER.c **** *    Sets the I2C_MASTER_CMD_M_START and I2C_MASTER_CMD_M_NACK (if the previous
 940:.\Generated_Source\PSoC4/I2C_I2C_MASTER.c **** *    transaction was read) bits in the SCB.I2C_MASTER_CMD register.
 941:.\Generated_Source\PSoC4/I2C_I2C_MASTER.c **** *    This combination forces the master to generate ReStart.
 942:.\Generated_Source\PSoC4/I2C_I2C_MASTER.c **** *
 943:.\Generated_Source\PSoC4/I2C_I2C_MASTER.c **** *  SCB IP V0: Generates Restart using the GPIO and scb IP functionality.
 944:.\Generated_Source\PSoC4/I2C_I2C_MASTER.c **** *   After the master completes write or read, the SCL is stretched.
 945:.\Generated_Source\PSoC4/I2C_I2C_MASTER.c **** *   The master waits until SDA line is released by the slave. Then the GPIO
 946:.\Generated_Source\PSoC4/I2C_I2C_MASTER.c **** *   function is enabled and the scb IP disabled as it already does not drive
 947:.\Generated_Source\PSoC4/I2C_I2C_MASTER.c **** *   the bus. In case of the previous transfer was read, the NACK is generated
 948:.\Generated_Source\PSoC4/I2C_I2C_MASTER.c **** *   by the GPIO. The delay of tLOW is added to manage the hold time.
 949:.\Generated_Source\PSoC4/I2C_I2C_MASTER.c **** *   Set I2C_M_CMD.START and enable the scb IP. The ReStart generation
 950:.\Generated_Source\PSoC4/I2C_I2C_MASTER.c **** *   is started after the I2C function is enabled for the SCL.
 951:.\Generated_Source\PSoC4/I2C_I2C_MASTER.c **** *   Note1: the scb IP due re-enable generates Start but on the I2C bus it
 952:.\Generated_Source\PSoC4/I2C_I2C_MASTER.c **** *          appears as ReStart.
 953:.\Generated_Source\PSoC4/I2C_I2C_MASTER.c **** *   Note2: the I2C_M_CMD.START is queued if scb IP is disabled.
 954:.\Generated_Source\PSoC4/I2C_I2C_MASTER.c **** *   Note3: the I2C_STATUS_M_READ is cleared is address was NACKed before.
 955:.\Generated_Source\PSoC4/I2C_I2C_MASTER.c **** *
 956:.\Generated_Source\PSoC4/I2C_I2C_MASTER.c **** * Parameters:
 957:.\Generated_Source\PSoC4/I2C_I2C_MASTER.c **** *  None
 958:.\Generated_Source\PSoC4/I2C_I2C_MASTER.c **** *
 959:.\Generated_Source\PSoC4/I2C_I2C_MASTER.c **** * Return:
 960:.\Generated_Source\PSoC4/I2C_I2C_MASTER.c **** *  None
 961:.\Generated_Source\PSoC4/I2C_I2C_MASTER.c **** *
 962:.\Generated_Source\PSoC4/I2C_I2C_MASTER.c **** * Side Effects:
 963:.\Generated_Source\PSoC4/I2C_I2C_MASTER.c **** *  SCB IP V0: The NACK generation by the GPIO may cause a greater SCL period
 964:.\Generated_Source\PSoC4/I2C_I2C_MASTER.c **** *             than expected for the selected master data rate.
 965:.\Generated_Source\PSoC4/I2C_I2C_MASTER.c **** *
 966:.\Generated_Source\PSoC4/I2C_I2C_MASTER.c **** *******************************************************************************/
 967:.\Generated_Source\PSoC4/I2C_I2C_MASTER.c **** void I2C_I2CReStartGeneration(void)
 968:.\Generated_Source\PSoC4/I2C_I2C_MASTER.c **** {
 784              		.loc 1 968 0
 785              		.cfi_startproc
ARM GAS  C:\Users\744\AppData\Local\Temp\ccnzmzQv.s 			page 32


 786 0000 10B5     		push	{r4, lr}
 787              		.cfi_def_cfa_offset 8
 788              		.cfi_offset 4, -8
 789              		.cfi_offset 14, -4
 969:.\Generated_Source\PSoC4/I2C_I2C_MASTER.c **** #if(I2C_CY_SCBIP_V0)
 970:.\Generated_Source\PSoC4/I2C_I2C_MASTER.c ****     /* Generates Restart use GPIO and scb IP functionality. Ticket ID#143715,
 971:.\Generated_Source\PSoC4/I2C_I2C_MASTER.c ****     ID#145238 and ID#173656 */
 972:.\Generated_Source\PSoC4/I2C_I2C_MASTER.c ****     uint32 status = I2C_I2C_STATUS_REG;
 790              		.loc 1 972 0
 791 0002 204B     		ldr	r3, .L67
 792 0004 1C68     		ldr	r4, [r3]
 793              	.LVL63:
 794              	.L64:
 973:.\Generated_Source\PSoC4/I2C_I2C_MASTER.c **** 
 974:.\Generated_Source\PSoC4/I2C_I2C_MASTER.c ****     while(I2C_WAIT_SDA_SET_HIGH)
 795              		.loc 1 974 0 discriminator 1
 796 0006 FFF7FEFF 		bl	I2C_sda_Read
 797              	.LVL64:
 798 000a 0028     		cmp	r0, #0
 799 000c FBD0     		beq	.L64
 975:.\Generated_Source\PSoC4/I2C_I2C_MASTER.c ****     {
 976:.\Generated_Source\PSoC4/I2C_I2C_MASTER.c ****         /* Wait when slave release SDA line: SCL tHIGH is complete */
 977:.\Generated_Source\PSoC4/I2C_I2C_MASTER.c ****     }
 978:.\Generated_Source\PSoC4/I2C_I2C_MASTER.c **** 
 979:.\Generated_Source\PSoC4/I2C_I2C_MASTER.c ****     /* Prepare DR register to drive SCL line */
 980:.\Generated_Source\PSoC4/I2C_I2C_MASTER.c ****     I2C_SET_I2C_SCL_DR(I2C_I2C_SCL_LOW);
 800              		.loc 1 980 0
 801 000e 0020     		mov	r0, #0
 802 0010 FFF7FEFF 		bl	I2C_scl_Write
 803              	.LVL65:
 981:.\Generated_Source\PSoC4/I2C_I2C_MASTER.c **** 
 982:.\Generated_Source\PSoC4/I2C_I2C_MASTER.c ****     /* Switch HSIOM to GPIO: SCL goes low */
 983:.\Generated_Source\PSoC4/I2C_I2C_MASTER.c ****     I2C_SET_I2C_SCL_HSIOM_SEL(I2C_HSIOM_GPIO_SEL);
 804              		.loc 1 983 0
 805 0014 1C4A     		ldr	r2, .L67+4
 806 0016 1168     		ldr	r1, [r2]
 807 0018 1C4B     		ldr	r3, .L67+8
 808 001a 0B40     		and	r3, r1
 809 001c 1360     		str	r3, [r2]
 984:.\Generated_Source\PSoC4/I2C_I2C_MASTER.c **** 
 985:.\Generated_Source\PSoC4/I2C_I2C_MASTER.c ****     /* Disable SCB block */
 986:.\Generated_Source\PSoC4/I2C_I2C_MASTER.c ****     I2C_CTRL_REG &= (uint32) ~I2C_CTRL_ENABLED;
 810              		.loc 1 986 0
 811 001e 1C4A     		ldr	r2, .L67+12
 812 0020 1368     		ldr	r3, [r2]
 813 0022 5B00     		lsl	r3, r3, #1
 814 0024 5B08     		lsr	r3, r3, #1
 815 0026 1360     		str	r3, [r2]
 987:.\Generated_Source\PSoC4/I2C_I2C_MASTER.c **** 
 988:.\Generated_Source\PSoC4/I2C_I2C_MASTER.c ****     if(0u != (status & I2C_I2C_STATUS_M_READ))
 816              		.loc 1 988 0
 817 0028 A306     		lsl	r3, r4, #26
 818 002a 0FD5     		bpl	.L65
 989:.\Generated_Source\PSoC4/I2C_I2C_MASTER.c ****     {
 990:.\Generated_Source\PSoC4/I2C_I2C_MASTER.c ****         /* Generate NACK use GPIO functionality */
 991:.\Generated_Source\PSoC4/I2C_I2C_MASTER.c ****         I2C_SET_I2C_SCL_DR(I2C_I2C_SCL_LOW);
 819              		.loc 1 991 0
ARM GAS  C:\Users\744\AppData\Local\Temp\ccnzmzQv.s 			page 33


 820 002c 0020     		mov	r0, #0
 821 002e FFF7FEFF 		bl	I2C_scl_Write
 822              	.LVL66:
 992:.\Generated_Source\PSoC4/I2C_I2C_MASTER.c ****         CyDelayUs(I2C_I2C_TLOW_TIME); /* Count tLOW */
 823              		.loc 1 992 0
 824 0032 0A20     		mov	r0, #10
 825 0034 FFF7FEFF 		bl	CyDelayUs
 826              	.LVL67:
 993:.\Generated_Source\PSoC4/I2C_I2C_MASTER.c **** 
 994:.\Generated_Source\PSoC4/I2C_I2C_MASTER.c ****         I2C_SET_I2C_SCL_DR(I2C_I2C_SCL_HIGH);
 827              		.loc 1 994 0
 828 0038 0120     		mov	r0, #1
 829 003a FFF7FEFF 		bl	I2C_scl_Write
 830              	.LVL68:
 831              	.L66:
 995:.\Generated_Source\PSoC4/I2C_I2C_MASTER.c ****         while(I2C_WAIT_SCL_SET_HIGH)
 832              		.loc 1 995 0 discriminator 1
 833 003e FFF7FEFF 		bl	I2C_scl_Read
 834              	.LVL69:
 835 0042 0028     		cmp	r0, #0
 836 0044 FBD0     		beq	.L66
 996:.\Generated_Source\PSoC4/I2C_I2C_MASTER.c ****         {
 997:.\Generated_Source\PSoC4/I2C_I2C_MASTER.c ****             /* Wait until slave releases SCL in case if it stretches */
 998:.\Generated_Source\PSoC4/I2C_I2C_MASTER.c ****         }
 999:.\Generated_Source\PSoC4/I2C_I2C_MASTER.c ****         CyDelayUs(I2C_I2C_THIGH_TIME); /* Count tHIGH */
 837              		.loc 1 999 0
 838 0046 0A20     		mov	r0, #10
 839 0048 FFF7FEFF 		bl	CyDelayUs
 840              	.LVL70:
 841              	.L65:
1000:.\Generated_Source\PSoC4/I2C_I2C_MASTER.c ****     }
1001:.\Generated_Source\PSoC4/I2C_I2C_MASTER.c **** 
1002:.\Generated_Source\PSoC4/I2C_I2C_MASTER.c ****     /* Count tLOW as hold time for write and read */
1003:.\Generated_Source\PSoC4/I2C_I2C_MASTER.c ****     I2C_SET_I2C_SCL_DR(I2C_I2C_SCL_LOW);
 842              		.loc 1 1003 0
 843 004c 0020     		mov	r0, #0
 844 004e FFF7FEFF 		bl	I2C_scl_Write
 845              	.LVL71:
1004:.\Generated_Source\PSoC4/I2C_I2C_MASTER.c ****     CyDelayUs(I2C_I2C_TLOW_TIME); /* Count tLOW */
 846              		.loc 1 1004 0
 847 0052 0A20     		mov	r0, #10
 848 0054 FFF7FEFF 		bl	CyDelayUs
 849              	.LVL72:
1005:.\Generated_Source\PSoC4/I2C_I2C_MASTER.c **** 
1006:.\Generated_Source\PSoC4/I2C_I2C_MASTER.c ****     /* Set command for Start generation: it will appear */
1007:.\Generated_Source\PSoC4/I2C_I2C_MASTER.c ****     I2C_I2C_MASTER_CMD_REG = I2C_I2C_MASTER_CMD_M_START;
 850              		.loc 1 1007 0
 851 0058 0122     		mov	r2, #1
 852 005a 0E4B     		ldr	r3, .L67+16
 853 005c 1A60     		str	r2, [r3]
1008:.\Generated_Source\PSoC4/I2C_I2C_MASTER.c **** 
1009:.\Generated_Source\PSoC4/I2C_I2C_MASTER.c ****     /* Enable SCB block */
1010:.\Generated_Source\PSoC4/I2C_I2C_MASTER.c ****     I2C_CTRL_REG |= (uint32) I2C_CTRL_ENABLED;
 854              		.loc 1 1010 0
 855 005e 0C4A     		ldr	r2, .L67+12
 856 0060 1368     		ldr	r3, [r2]
 857 0062 8021     		mov	r1, #128
ARM GAS  C:\Users\744\AppData\Local\Temp\ccnzmzQv.s 			page 34


 858 0064 0906     		lsl	r1, r1, #24
 859 0066 0B43     		orr	r3, r1
 860 0068 1360     		str	r3, [r2]
1011:.\Generated_Source\PSoC4/I2C_I2C_MASTER.c **** 
1012:.\Generated_Source\PSoC4/I2C_I2C_MASTER.c ****     /* Switch HSIOM to I2C: */
1013:.\Generated_Source\PSoC4/I2C_I2C_MASTER.c ****     I2C_SET_I2C_SCL_HSIOM_SEL(I2C_HSIOM_I2C_SEL);
 861              		.loc 1 1013 0
 862 006a 074A     		ldr	r2, .L67+4
 863 006c 1168     		ldr	r1, [r2]
 864 006e 074B     		ldr	r3, .L67+8
 865 0070 0B40     		and	r3, r1
 866 0072 E021     		mov	r1, #224
 867 0074 0903     		lsl	r1, r1, #12
 868 0076 0B43     		orr	r3, r1
 869 0078 1360     		str	r3, [r2]
1014:.\Generated_Source\PSoC4/I2C_I2C_MASTER.c **** 
1015:.\Generated_Source\PSoC4/I2C_I2C_MASTER.c ****     /* Revert SCL DR register */
1016:.\Generated_Source\PSoC4/I2C_I2C_MASTER.c ****     I2C_SET_I2C_SCL_DR(I2C_I2C_SCL_HIGH);
 870              		.loc 1 1016 0
 871 007a 0120     		mov	r0, #1
 872 007c FFF7FEFF 		bl	I2C_scl_Write
 873              	.LVL73:
1017:.\Generated_Source\PSoC4/I2C_I2C_MASTER.c **** #else
1018:.\Generated_Source\PSoC4/I2C_I2C_MASTER.c ****     uint32 cmd;
1019:.\Generated_Source\PSoC4/I2C_I2C_MASTER.c **** 
1020:.\Generated_Source\PSoC4/I2C_I2C_MASTER.c ****     /* Generates ReStart use scb IP functionality */
1021:.\Generated_Source\PSoC4/I2C_I2C_MASTER.c ****     cmd  = I2C_I2C_MASTER_CMD_M_START;
1022:.\Generated_Source\PSoC4/I2C_I2C_MASTER.c ****     cmd |= I2C_CHECK_I2C_STATUS(I2C_I2C_STATUS_M_READ) ?
1023:.\Generated_Source\PSoC4/I2C_I2C_MASTER.c ****                 (I2C_I2C_MASTER_CMD_M_NACK) : (0u);
1024:.\Generated_Source\PSoC4/I2C_I2C_MASTER.c **** 
1025:.\Generated_Source\PSoC4/I2C_I2C_MASTER.c ****     I2C_I2C_MASTER_CMD_REG = cmd;
1026:.\Generated_Source\PSoC4/I2C_I2C_MASTER.c **** #endif /* (I2C_CY_SCBIP_V1) */
1027:.\Generated_Source\PSoC4/I2C_I2C_MASTER.c **** }
 874              		.loc 1 1027 0
 875              		@ sp needed
 876              	.LVL74:
 877 0080 10BD     		pop	{r4, pc}
 878              	.L68:
 879 0082 C046     		.align	2
 880              	.L67:
 881 0084 64000740 		.word	1074200676
 882 0088 00000140 		.word	1073807360
 883 008c FFFFF0FF 		.word	-983041
 884 0090 00000740 		.word	1074200576
 885 0094 68000740 		.word	1074200680
 886              		.cfi_endproc
 887              	.LFE13:
 888              		.size	I2C_I2CReStartGeneration, .-I2C_I2CReStartGeneration
 889              		.section	.text.I2C_I2CMasterWriteBuf,"ax",%progbits
 890              		.align	2
 891              		.global	I2C_I2CMasterWriteBuf
 892              		.code	16
 893              		.thumb_func
 894              		.type	I2C_I2CMasterWriteBuf, %function
 895              	I2C_I2CMasterWriteBuf:
 896              	.LFB0:
  81:.\Generated_Source\PSoC4/I2C_I2C_MASTER.c ****     uint32 errStatus;
ARM GAS  C:\Users\744\AppData\Local\Temp\ccnzmzQv.s 			page 35


 897              		.loc 1 81 0
 898              		.cfi_startproc
 899              	.LVL75:
 900 0000 F0B5     		push	{r4, r5, r6, r7, lr}
 901              		.cfi_def_cfa_offset 20
 902              		.cfi_offset 4, -20
 903              		.cfi_offset 5, -16
 904              		.cfi_offset 6, -12
 905              		.cfi_offset 7, -8
 906              		.cfi_offset 14, -4
 907 0002 83B0     		sub	sp, sp, #12
 908              		.cfi_def_cfa_offset 32
 909 0004 0190     		str	r0, [sp, #4]
 910 0006 0C1C     		mov	r4, r1
 911 0008 171C     		mov	r7, r2
 912 000a 1D1C     		mov	r5, r3
 913              	.LVL76:
  86:.\Generated_Source\PSoC4/I2C_I2C_MASTER.c ****     {
 914              		.loc 1 86 0
 915 000c 0029     		cmp	r1, #0
 916 000e 19D0     		beq	.L75
  89:.\Generated_Source\PSoC4/I2C_I2C_MASTER.c ****         {
 917              		.loc 1 89 0
 918 0010 284B     		ldr	r3, .L78
 919              	.LVL77:
 920 0012 1B78     		ldrb	r3, [r3]
 921 0014 102B     		cmp	r3, #16
 922 0016 0AD1     		bne	.L71
  91:.\Generated_Source\PSoC4/I2C_I2C_MASTER.c **** 
 923              		.loc 1 91 0
 924 0018 0B20     		mov	r0, #11
 925              	.LVL78:
 926 001a FFF7FEFF 		bl	CyIntDisable
 927              	.LVL79:
  94:.\Generated_Source\PSoC4/I2C_I2C_MASTER.c ****                             I2C_I2C_MSTR_BUS_BUSY : I2C_I2C_MSTR_NO_ERROR;
 928              		.loc 1 94 0
 929 001e 264B     		ldr	r3, .L78+4
 930 0020 1B68     		ldr	r3, [r3]
 931 0022 DB07     		lsl	r3, r3, #31
 932 0024 01D5     		bpl	.L76
 933 0026 0826     		mov	r6, #8
 934 0028 0FE0     		b	.L70
 935              	.L76:
 936 002a 0026     		mov	r6, #0
 937              	.LVL80:
 938 002c 0DE0     		b	.L70
 939              	.LVL81:
 940              	.L71:
  97:.\Generated_Source\PSoC4/I2C_I2C_MASTER.c ****         {
 941              		.loc 1 97 0
 942 002e 214B     		ldr	r3, .L78
 943 0030 1B78     		ldrb	r3, [r3]
 944 0032 602B     		cmp	r3, #96
 945 0034 08D1     		bne	.L77
  99:.\Generated_Source\PSoC4/I2C_I2C_MASTER.c ****                               errStatus  = I2C_I2C_MSTR_NO_ERROR;
 946              		.loc 1 99 0
 947 0036 214A     		ldr	r2, .L78+8
ARM GAS  C:\Users\744\AppData\Local\Temp\ccnzmzQv.s 			page 36


 948              	.LVL82:
 949 0038 1388     		ldrh	r3, [r2]
 950 003a 0821     		mov	r1, #8
 951              	.LVL83:
 952 003c 8B43     		bic	r3, r1
 953 003e 1380     		strh	r3, [r2]
 954              	.LVL84:
 100:.\Generated_Source\PSoC4/I2C_I2C_MASTER.c ****         }
 955              		.loc 1 100 0
 956 0040 0026     		mov	r6, #0
 957 0042 02E0     		b	.L70
 958              	.LVL85:
 959              	.L75:
  84:.\Generated_Source\PSoC4/I2C_I2C_MASTER.c **** 
 960              		.loc 1 84 0
 961 0044 0426     		mov	r6, #4
 962 0046 00E0     		b	.L70
 963              	.LVL86:
 964              	.L77:
 965 0048 0426     		mov	r6, #4
 966              	.LVL87:
 967              	.L70:
 109:.\Generated_Source\PSoC4/I2C_I2C_MASTER.c ****     {
 968              		.loc 1 109 0
 969 004a 002E     		cmp	r6, #0
 970 004c 2BD1     		bne	.L73
 117:.\Generated_Source\PSoC4/I2C_I2C_MASTER.c ****         I2C_mstrWrBufIndexTmp = 0u;
 971              		.loc 1 117 0
 972 004e 2822     		mov	r2, #40
 973 0050 184B     		ldr	r3, .L78
 974 0052 1A70     		strb	r2, [r3]
 118:.\Generated_Source\PSoC4/I2C_I2C_MASTER.c ****         I2C_mstrWrBufIndex    = 0u;
 975              		.loc 1 118 0
 976 0054 0023     		mov	r3, #0
 977 0056 1A4A     		ldr	r2, .L78+12
 978 0058 1360     		str	r3, [r2]
 119:.\Generated_Source\PSoC4/I2C_I2C_MASTER.c ****         I2C_mstrWrBufSize     = cnt;
 979              		.loc 1 119 0
 980 005a 1A4A     		ldr	r2, .L78+16
 981 005c 1360     		str	r3, [r2]
 120:.\Generated_Source\PSoC4/I2C_I2C_MASTER.c ****         I2C_mstrWrBufPtr      = (volatile uint8 *) wrData;
 982              		.loc 1 120 0
 983 005e 1A4B     		ldr	r3, .L78+20
 984 0060 1F60     		str	r7, [r3]
 121:.\Generated_Source\PSoC4/I2C_I2C_MASTER.c ****         I2C_mstrControl       = (uint8) mode;
 985              		.loc 1 121 0
 986 0062 1A4B     		ldr	r3, .L78+24
 987 0064 1C60     		str	r4, [r3]
 122:.\Generated_Source\PSoC4/I2C_I2C_MASTER.c **** 
 988              		.loc 1 122 0
 989 0066 EAB2     		uxtb	r2, r5
 990 0068 194B     		ldr	r3, .L78+28
 991 006a 1A70     		strb	r2, [r3]
 124:.\Generated_Source\PSoC4/I2C_I2C_MASTER.c **** 
 992              		.loc 1 124 0
 993 006c 019B     		ldr	r3, [sp, #4]
 994 006e 5C00     		lsl	r4, r3, #1
ARM GAS  C:\Users\744\AppData\Local\Temp\ccnzmzQv.s 			page 37


 995              	.LVL88:
 996 0070 FF23     		mov	r3, #255
 997 0072 1C40     		and	r4, r3
 998              	.LVL89:
 126:.\Generated_Source\PSoC4/I2C_I2C_MASTER.c **** 
 999              		.loc 1 126 0
 1000 0074 114A     		ldr	r2, .L78+8
 1001 0076 1388     		ldrh	r3, [r2]
 1002 0078 0221     		mov	r1, #2
 1003 007a 8B43     		bic	r3, r1
 1004 007c 1380     		strh	r3, [r2]
 128:.\Generated_Source\PSoC4/I2C_I2C_MASTER.c ****         I2C_ClearTxInterruptSource(I2C_INTR_TX_UNDERFLOW);
 1005              		.loc 1 128 0
 1006 007e 154A     		ldr	r2, .L78+32
 1007 0080 154B     		ldr	r3, .L78+36
 1008 0082 1A60     		str	r2, [r3]
 1009              	.LVL90:
 129:.\Generated_Source\PSoC4/I2C_I2C_MASTER.c **** 
 1010              		.loc 1 129 0
 1011 0084 4023     		mov	r3, #64
 1012 0086 154A     		ldr	r2, .L78+40
 1013 0088 1360     		str	r3, [r2]
 134:.\Generated_Source\PSoC4/I2C_I2C_MASTER.c **** 
 1014              		.loc 1 134 0
 1015 008a 154A     		ldr	r2, .L78+44
 1016 008c 1360     		str	r3, [r2]
 137:.\Generated_Source\PSoC4/I2C_I2C_MASTER.c ****         {
 1017              		.loc 1 137 0
 1018 008e EB07     		lsl	r3, r5, #31
 1019 0090 04D5     		bpl	.L74
 139:.\Generated_Source\PSoC4/I2C_I2C_MASTER.c ****             I2C_TX_FIFO_WR_REG = slaveAddress;
 1020              		.loc 1 139 0
 1021 0092 FFF7FEFF 		bl	I2C_I2CReStartGeneration
 1022              	.LVL91:
 140:.\Generated_Source\PSoC4/I2C_I2C_MASTER.c ****         }
 1023              		.loc 1 140 0
 1024 0096 134B     		ldr	r3, .L78+48
 1025 0098 1C60     		str	r4, [r3]
 1026 009a 04E0     		b	.L73
 1027              	.L74:
 144:.\Generated_Source\PSoC4/I2C_I2C_MASTER.c ****             I2C_I2C_MASTER_GENERATE_START;
 1028              		.loc 1 144 0
 1029 009c 114B     		ldr	r3, .L78+48
 1030 009e 1C60     		str	r4, [r3]
 145:.\Generated_Source\PSoC4/I2C_I2C_MASTER.c ****         }
 1031              		.loc 1 145 0
 1032 00a0 0222     		mov	r2, #2
 1033 00a2 114B     		ldr	r3, .L78+52
 1034 00a4 1A60     		str	r2, [r3]
 1035              	.LVL92:
 1036              	.L73:
 149:.\Generated_Source\PSoC4/I2C_I2C_MASTER.c **** 
 1037              		.loc 1 149 0
 1038 00a6 0B20     		mov	r0, #11
 1039 00a8 FFF7FEFF 		bl	CyIntEnable
 1040              	.LVL93:
 152:.\Generated_Source\PSoC4/I2C_I2C_MASTER.c **** 
ARM GAS  C:\Users\744\AppData\Local\Temp\ccnzmzQv.s 			page 38


 1041              		.loc 1 152 0
 1042 00ac 301C     		mov	r0, r6
 1043 00ae 03B0     		add	sp, sp, #12
 1044              		@ sp needed
 1045              	.LVL94:
 1046              	.LVL95:
 1047              	.LVL96:
 1048 00b0 F0BD     		pop	{r4, r5, r6, r7, pc}
 1049              	.L79:
 1050 00b2 C046     		.align	2
 1051              	.L78:
 1052 00b4 00000000 		.word	I2C_state
 1053 00b8 64000740 		.word	1074200676
 1054 00bc 00000000 		.word	I2C_mstrStatus
 1055 00c0 00000000 		.word	I2C_mstrWrBufIndexTmp
 1056 00c4 00000000 		.word	I2C_mstrWrBufIndex
 1057 00c8 00000000 		.word	I2C_mstrWrBufSize
 1058 00cc 00000000 		.word	I2C_mstrWrBufPtr
 1059 00d0 00000000 		.word	I2C_mstrControl
 1060 00d4 17030000 		.word	791
 1061 00d8 000F0740 		.word	1074204416
 1062 00dc 800F0740 		.word	1074204544
 1063 00e0 880F0740 		.word	1074204552
 1064 00e4 40020740 		.word	1074201152
 1065 00e8 68000740 		.word	1074200680
 1066              		.cfi_endproc
 1067              	.LFE0:
 1068              		.size	I2C_I2CMasterWriteBuf, .-I2C_I2CMasterWriteBuf
 1069              		.section	.text.I2C_I2CMasterReadBuf,"ax",%progbits
 1070              		.align	2
 1071              		.global	I2C_I2CMasterReadBuf
 1072              		.code	16
 1073              		.thumb_func
 1074              		.type	I2C_I2CMasterReadBuf, %function
 1075              	I2C_I2CMasterReadBuf:
 1076              	.LFB1:
 188:.\Generated_Source\PSoC4/I2C_I2C_MASTER.c ****     uint32 errStatus;
 1077              		.loc 1 188 0
 1078              		.cfi_startproc
 1079              	.LVL97:
 1080 0000 F0B5     		push	{r4, r5, r6, r7, lr}
 1081              		.cfi_def_cfa_offset 20
 1082              		.cfi_offset 4, -20
 1083              		.cfi_offset 5, -16
 1084              		.cfi_offset 6, -12
 1085              		.cfi_offset 7, -8
 1086              		.cfi_offset 14, -4
 1087 0002 83B0     		sub	sp, sp, #12
 1088              		.cfi_def_cfa_offset 32
 1089 0004 0190     		str	r0, [sp, #4]
 1090 0006 0C1C     		mov	r4, r1
 1091 0008 171C     		mov	r7, r2
 1092 000a 1D1C     		mov	r5, r3
 1093              	.LVL98:
 193:.\Generated_Source\PSoC4/I2C_I2C_MASTER.c ****     {
 1094              		.loc 1 193 0
 1095 000c 0029     		cmp	r1, #0
ARM GAS  C:\Users\744\AppData\Local\Temp\ccnzmzQv.s 			page 39


 1096 000e 19D0     		beq	.L88
 196:.\Generated_Source\PSoC4/I2C_I2C_MASTER.c ****         {
 1097              		.loc 1 196 0
 1098 0010 2D4B     		ldr	r3, .L91
 1099              	.LVL99:
 1100 0012 1B78     		ldrb	r3, [r3]
 1101 0014 102B     		cmp	r3, #16
 1102 0016 0AD1     		bne	.L82
 198:.\Generated_Source\PSoC4/I2C_I2C_MASTER.c **** 
 1103              		.loc 1 198 0
 1104 0018 0B20     		mov	r0, #11
 1105              	.LVL100:
 1106 001a FFF7FEFF 		bl	CyIntDisable
 1107              	.LVL101:
 201:.\Generated_Source\PSoC4/I2C_I2C_MASTER.c ****                             I2C_I2C_MSTR_BUS_BUSY : I2C_I2C_MSTR_NO_ERROR;
 1108              		.loc 1 201 0
 1109 001e 2B4B     		ldr	r3, .L91+4
 1110 0020 1B68     		ldr	r3, [r3]
 1111 0022 DB07     		lsl	r3, r3, #31
 1112 0024 01D5     		bpl	.L89
 1113 0026 0826     		mov	r6, #8
 1114 0028 0FE0     		b	.L81
 1115              	.L89:
 1116 002a 0026     		mov	r6, #0
 1117              	.LVL102:
 1118 002c 0DE0     		b	.L81
 1119              	.LVL103:
 1120              	.L82:
 204:.\Generated_Source\PSoC4/I2C_I2C_MASTER.c ****         {
 1121              		.loc 1 204 0
 1122 002e 264B     		ldr	r3, .L91
 1123 0030 1B78     		ldrb	r3, [r3]
 1124 0032 602B     		cmp	r3, #96
 1125 0034 08D1     		bne	.L90
 206:.\Generated_Source\PSoC4/I2C_I2C_MASTER.c ****                               errStatus  =  I2C_I2C_MSTR_NO_ERROR;
 1126              		.loc 1 206 0
 1127 0036 264A     		ldr	r2, .L91+8
 1128              	.LVL104:
 1129 0038 1388     		ldrh	r3, [r2]
 1130 003a 0821     		mov	r1, #8
 1131              	.LVL105:
 1132 003c 8B43     		bic	r3, r1
 1133 003e 1380     		strh	r3, [r2]
 1134              	.LVL106:
 207:.\Generated_Source\PSoC4/I2C_I2C_MASTER.c ****         }
 1135              		.loc 1 207 0
 1136 0040 0026     		mov	r6, #0
 1137 0042 02E0     		b	.L81
 1138              	.LVL107:
 1139              	.L88:
 191:.\Generated_Source\PSoC4/I2C_I2C_MASTER.c **** 
 1140              		.loc 1 191 0
 1141 0044 0426     		mov	r6, #4
 1142 0046 00E0     		b	.L81
 1143              	.LVL108:
 1144              	.L90:
 1145 0048 0426     		mov	r6, #4
ARM GAS  C:\Users\744\AppData\Local\Temp\ccnzmzQv.s 			page 40


 1146              	.LVL109:
 1147              	.L81:
 216:.\Generated_Source\PSoC4/I2C_I2C_MASTER.c ****     {
 1148              		.loc 1 216 0
 1149 004a 002E     		cmp	r6, #0
 1150 004c 35D1     		bne	.L84
 224:.\Generated_Source\PSoC4/I2C_I2C_MASTER.c ****         I2C_mstrRdBufIndex = 0u;
 1151              		.loc 1 224 0
 1152 004e 2922     		mov	r2, #41
 1153 0050 1D4B     		ldr	r3, .L91
 1154 0052 1A70     		strb	r2, [r3]
 225:.\Generated_Source\PSoC4/I2C_I2C_MASTER.c ****         I2C_mstrRdBufSize  = cnt;
 1155              		.loc 1 225 0
 1156 0054 0022     		mov	r2, #0
 1157 0056 1F4B     		ldr	r3, .L91+12
 1158 0058 1A60     		str	r2, [r3]
 226:.\Generated_Source\PSoC4/I2C_I2C_MASTER.c ****         I2C_mstrRdBufPtr   = (volatile uint8 *) rdData;
 1159              		.loc 1 226 0
 1160 005a 1F4A     		ldr	r2, .L91+16
 1161 005c 1760     		str	r7, [r2]
 227:.\Generated_Source\PSoC4/I2C_I2C_MASTER.c ****         I2C_mstrControl    = (uint8) mode;
 1162              		.loc 1 227 0
 1163 005e 1F4B     		ldr	r3, .L91+20
 1164 0060 1C60     		str	r4, [r3]
 228:.\Generated_Source\PSoC4/I2C_I2C_MASTER.c **** 
 1165              		.loc 1 228 0
 1166 0062 EBB2     		uxtb	r3, r5
 1167 0064 1E49     		ldr	r1, .L91+24
 1168 0066 0B70     		strb	r3, [r1]
 230:.\Generated_Source\PSoC4/I2C_I2C_MASTER.c **** 
 1169              		.loc 1 230 0
 1170 0068 019B     		ldr	r3, [sp, #4]
 1171 006a 5C00     		lsl	r4, r3, #1
 1172              	.LVL110:
 1173 006c FF23     		mov	r3, #255
 1174 006e 1C40     		and	r4, r3
 1175 0070 0120     		mov	r0, #1
 1176 0072 0443     		orr	r4, r0
 1177              	.LVL111:
 232:.\Generated_Source\PSoC4/I2C_I2C_MASTER.c **** 
 1178              		.loc 1 232 0
 1179 0074 1649     		ldr	r1, .L91+8
 1180 0076 0B88     		ldrh	r3, [r1]
 1181 0078 8343     		bic	r3, r0
 1182 007a 0B80     		strh	r3, [r1]
 234:.\Generated_Source\PSoC4/I2C_I2C_MASTER.c **** 
 1183              		.loc 1 234 0
 1184 007c 1949     		ldr	r1, .L91+28
 1185 007e 1A4B     		ldr	r3, .L91+32
 1186 0080 1960     		str	r1, [r3]
 1187              	.LVL112:
 239:.\Generated_Source\PSoC4/I2C_I2C_MASTER.c ****         {
 1188              		.loc 1 239 0
 1189 0082 1368     		ldr	r3, [r2]
 1190 0084 072B     		cmp	r3, #7
 1191 0086 03D8     		bhi	.L85
 242:.\Generated_Source\PSoC4/I2C_I2C_MASTER.c ****         }
ARM GAS  C:\Users\744\AppData\Local\Temp\ccnzmzQv.s 			page 41


 1192              		.loc 1 242 0
 1193 0088 0422     		mov	r2, #4
 1194 008a 184B     		ldr	r3, .L91+36
 1195 008c 1A60     		str	r2, [r3]
 1196 008e 08E0     		b	.L86
 1197              	.L85:
 247:.\Generated_Source\PSoC4/I2C_I2C_MASTER.c ****             I2C_SetRxInterruptMode(I2C_INTR_RX_FULL);
 1198              		.loc 1 247 0
 1199 0090 174A     		ldr	r2, .L91+40
 1200 0092 1368     		ldr	r3, [r2]
 1201 0094 8021     		mov	r1, #128
 1202 0096 4900     		lsl	r1, r1, #1
 1203 0098 0B43     		orr	r3, r1
 1204 009a 1360     		str	r3, [r2]
 248:.\Generated_Source\PSoC4/I2C_I2C_MASTER.c ****         }
 1205              		.loc 1 248 0
 1206 009c 0822     		mov	r2, #8
 1207 009e 134B     		ldr	r3, .L91+36
 1208 00a0 1A60     		str	r2, [r3]
 1209              	.L86:
 252:.\Generated_Source\PSoC4/I2C_I2C_MASTER.c ****         {
 1210              		.loc 1 252 0
 1211 00a2 EB07     		lsl	r3, r5, #31
 1212 00a4 04D5     		bpl	.L87
 254:.\Generated_Source\PSoC4/I2C_I2C_MASTER.c ****             I2C_TX_FIFO_WR_REG = (slaveAddress);
 1213              		.loc 1 254 0
 1214 00a6 FFF7FEFF 		bl	I2C_I2CReStartGeneration
 1215              	.LVL113:
 255:.\Generated_Source\PSoC4/I2C_I2C_MASTER.c ****         }
 1216              		.loc 1 255 0
 1217 00aa 124B     		ldr	r3, .L91+44
 1218 00ac 1C60     		str	r4, [r3]
 1219 00ae 04E0     		b	.L84
 1220              	.L87:
 259:.\Generated_Source\PSoC4/I2C_I2C_MASTER.c ****             I2C_I2C_MASTER_GENERATE_START;
 1221              		.loc 1 259 0
 1222 00b0 104B     		ldr	r3, .L91+44
 1223 00b2 1C60     		str	r4, [r3]
 260:.\Generated_Source\PSoC4/I2C_I2C_MASTER.c ****         }
 1224              		.loc 1 260 0
 1225 00b4 0222     		mov	r2, #2
 1226 00b6 104B     		ldr	r3, .L91+48
 1227 00b8 1A60     		str	r2, [r3]
 1228              	.LVL114:
 1229              	.L84:
 264:.\Generated_Source\PSoC4/I2C_I2C_MASTER.c **** 
 1230              		.loc 1 264 0
 1231 00ba 0B20     		mov	r0, #11
 1232 00bc FFF7FEFF 		bl	CyIntEnable
 1233              	.LVL115:
 267:.\Generated_Source\PSoC4/I2C_I2C_MASTER.c **** 
 1234              		.loc 1 267 0
 1235 00c0 301C     		mov	r0, r6
 1236 00c2 03B0     		add	sp, sp, #12
 1237              		@ sp needed
 1238              	.LVL116:
 1239              	.LVL117:
ARM GAS  C:\Users\744\AppData\Local\Temp\ccnzmzQv.s 			page 42


 1240              	.LVL118:
 1241 00c4 F0BD     		pop	{r4, r5, r6, r7, pc}
 1242              	.L92:
 1243 00c6 C046     		.align	2
 1244              	.L91:
 1245 00c8 00000000 		.word	I2C_state
 1246 00cc 64000740 		.word	1074200676
 1247 00d0 00000000 		.word	I2C_mstrStatus
 1248 00d4 00000000 		.word	I2C_mstrRdBufIndex
 1249 00d8 00000000 		.word	I2C_mstrRdBufSize
 1250 00dc 00000000 		.word	I2C_mstrRdBufPtr
 1251 00e0 00000000 		.word	I2C_mstrControl
 1252 00e4 17030000 		.word	791
 1253 00e8 000F0740 		.word	1074204416
 1254 00ec C80F0740 		.word	1074204616
 1255 00f0 60000740 		.word	1074200672
 1256 00f4 40020740 		.word	1074201152
 1257 00f8 68000740 		.word	1074200680
 1258              		.cfi_endproc
 1259              	.LFE1:
 1260              		.size	I2C_I2CMasterReadBuf, .-I2C_I2CMasterReadBuf
 1261              		.section	.text.I2C_I2CMasterSendRestart,"ax",%progbits
 1262              		.align	2
 1263              		.global	I2C_I2CMasterSendRestart
 1264              		.code	16
 1265              		.thumb_func
 1266              		.type	I2C_I2CMasterSendRestart, %function
 1267              	I2C_I2CMasterSendRestart:
 1268              	.LFB3:
 410:.\Generated_Source\PSoC4/I2C_I2C_MASTER.c ****     uint32 resetIp;
 1269              		.loc 1 410 0
 1270              		.cfi_startproc
 1271              	.LVL119:
 1272 0000 10B5     		push	{r4, lr}
 1273              		.cfi_def_cfa_offset 8
 1274              		.cfi_offset 4, -8
 1275              		.cfi_offset 14, -4
 1276              	.LVL120:
 418:.\Generated_Source\PSoC4/I2C_I2C_MASTER.c ****     {
 1277              		.loc 1 418 0
 1278 0002 2A4B     		ldr	r3, .L104
 1279 0004 1B78     		ldrb	r3, [r3]
 1280 0006 9B06     		lsl	r3, r3, #26
 1281 0008 4DD5     		bpl	.L101
 420:.\Generated_Source\PSoC4/I2C_I2C_MASTER.c **** 
 1282              		.loc 1 420 0
 1283 000a 4000     		lsl	r0, r0, #1
 1284              	.LVL121:
 1285 000c FF24     		mov	r4, #255
 1286 000e 0440     		and	r4, r0
 1287              	.LVL122:
 422:.\Generated_Source\PSoC4/I2C_I2C_MASTER.c ****         {
 1288              		.loc 1 422 0
 1289 0010 0029     		cmp	r1, #0
 1290 0012 03D1     		bne	.L95
 424:.\Generated_Source\PSoC4/I2C_I2C_MASTER.c ****         }
 1291              		.loc 1 424 0
ARM GAS  C:\Users\744\AppData\Local\Temp\ccnzmzQv.s 			page 43


 1292 0014 2422     		mov	r2, #36
 1293 0016 254B     		ldr	r3, .L104
 1294 0018 1A70     		strb	r2, [r3]
 1295 001a 04E0     		b	.L96
 1296              	.L95:
 428:.\Generated_Source\PSoC4/I2C_I2C_MASTER.c ****                       slaveAddress |= I2C_I2C_READ_FLAG;
 1297              		.loc 1 428 0
 1298 001c 2522     		mov	r2, #37
 1299 001e 234B     		ldr	r3, .L104
 1300 0020 1A70     		strb	r2, [r3]
 429:.\Generated_Source\PSoC4/I2C_I2C_MASTER.c ****         }
 1301              		.loc 1 429 0
 1302 0022 0123     		mov	r3, #1
 1303 0024 1C43     		orr	r4, r3
 1304              	.LVL123:
 1305              	.L96:
 435:.\Generated_Source\PSoC4/I2C_I2C_MASTER.c **** 
 1306              		.loc 1 435 0
 1307 0026 224A     		ldr	r2, .L104+4
 1308 0028 224B     		ldr	r3, .L104+8
 1309 002a 1A60     		str	r2, [r3]
 441:.\Generated_Source\PSoC4/I2C_I2C_MASTER.c **** 
 1310              		.loc 1 441 0
 1311 002c FFF7FEFF 		bl	I2C_I2CReStartGeneration
 1312              	.LVL124:
 1313              	.L97:
 443:.\Generated_Source\PSoC4/I2C_I2C_MASTER.c ****         {
 1314              		.loc 1 443 0 discriminator 1
 1315 0030 214B     		ldr	r3, .L104+12
 1316 0032 1B68     		ldr	r3, [r3]
 1317 0034 DB07     		lsl	r3, r3, #31
 1318 0036 FBD4     		bmi	.L97
 449:.\Generated_Source\PSoC4/I2C_I2C_MASTER.c **** 
 1319              		.loc 1 449 0
 1320 0038 204B     		ldr	r3, .L104+16
 1321 003a 1C60     		str	r4, [r3]
 1322              	.L98:
 452:.\Generated_Source\PSoC4/I2C_I2C_MASTER.c ****                                                   I2C_INTR_MASTER_I2C_NACK     |
 1323              		.loc 1 452 0 discriminator 1
 1324 003c 1D4B     		ldr	r3, .L104+8
 1325 003e 1A68     		ldr	r2, [r3]
 1326 0040 0823     		mov	r3, #8
 1327 0042 FF33     		add	r3, r3, #255
 1328 0044 1A42     		tst	r2, r3
 1329 0046 F9D0     		beq	.L98
 461:.\Generated_Source\PSoC4/I2C_I2C_MASTER.c ****         {
 1330              		.loc 1 461 0
 1331 0048 1A4B     		ldr	r3, .L104+8
 1332 004a 1B68     		ldr	r3, [r3]
 1333 004c 5B07     		lsl	r3, r3, #29
 1334 004e 14D4     		bmi	.L102
 465:.\Generated_Source\PSoC4/I2C_I2C_MASTER.c ****         {
 1335              		.loc 1 465 0
 1336 0050 184B     		ldr	r3, .L104+8
 1337 0052 1B68     		ldr	r3, [r3]
 1338 0054 9B07     		lsl	r3, r3, #30
 1339 0056 13D4     		bmi	.L103
ARM GAS  C:\Users\744\AppData\Local\Temp\ccnzmzQv.s 			page 44


 469:.\Generated_Source\PSoC4/I2C_I2C_MASTER.c ****         {
 1340              		.loc 1 469 0
 1341 0058 164B     		ldr	r3, .L104+8
 1342 005a 1B68     		ldr	r3, [r3]
 1343 005c DB07     		lsl	r3, r3, #31
 1344 005e 05D5     		bpl	.L100
 471:.\Generated_Source\PSoC4/I2C_I2C_MASTER.c ****                          errStatus = I2C_I2C_MSTR_ERR_ARB_LOST;
 1345              		.loc 1 471 0
 1346 0060 1022     		mov	r2, #16
 1347 0062 124B     		ldr	r3, .L104
 1348 0064 1A70     		strb	r2, [r3]
 1349              	.LVL125:
 472:.\Generated_Source\PSoC4/I2C_I2C_MASTER.c ****                          resetIp   = I2C_I2C_RESET_ERROR;
 1350              		.loc 1 472 0
 1351 0066 0120     		mov	r0, #1
 473:.\Generated_Source\PSoC4/I2C_I2C_MASTER.c ****         }
 1352              		.loc 1 473 0
 1353 0068 0121     		mov	r1, #1
 1354 006a 0BE0     		b	.L99
 1355              	.LVL126:
 1356              	.L100:
 477:.\Generated_Source\PSoC4/I2C_I2C_MASTER.c ****                          errStatus = I2C_I2C_MSTR_ERR_BUS_ERR;
 1357              		.loc 1 477 0
 1358 006c 1022     		mov	r2, #16
 1359 006e 0F4B     		ldr	r3, .L104
 1360 0070 1A70     		strb	r2, [r3]
 1361              	.LVL127:
 478:.\Generated_Source\PSoC4/I2C_I2C_MASTER.c ****                          resetIp   = I2C_I2C_RESET_ERROR;
 1362              		.loc 1 478 0
 1363 0072 8020     		mov	r0, #128
 1364 0074 4000     		lsl	r0, r0, #1
 479:.\Generated_Source\PSoC4/I2C_I2C_MASTER.c ****         }
 1365              		.loc 1 479 0
 1366 0076 0121     		mov	r1, #1
 1367 0078 04E0     		b	.L99
 1368              	.LVL128:
 1369              	.L102:
 463:.\Generated_Source\PSoC4/I2C_I2C_MASTER.c ****         }
 1370              		.loc 1 463 0
 1371 007a 0020     		mov	r0, #0
 414:.\Generated_Source\PSoC4/I2C_I2C_MASTER.c ****     errStatus = I2C_I2C_MSTR_NOT_READY;
 1372              		.loc 1 414 0
 1373 007c 0021     		mov	r1, #0
 1374 007e 01E0     		b	.L99
 1375              	.L103:
 467:.\Generated_Source\PSoC4/I2C_I2C_MASTER.c ****         }
 1376              		.loc 1 467 0
 1377 0080 0220     		mov	r0, #2
 414:.\Generated_Source\PSoC4/I2C_I2C_MASTER.c ****     errStatus = I2C_I2C_MSTR_NOT_READY;
 1378              		.loc 1 414 0
 1379 0082 0021     		mov	r1, #0
 1380              	.LVL129:
 1381              	.L99:
 482:.\Generated_Source\PSoC4/I2C_I2C_MASTER.c ****                                                     I2C_INTR_MASTER_I2C_NACK     |
 1382              		.loc 1 482 0
 1383 0084 0822     		mov	r2, #8
 1384 0086 FF32     		add	r2, r2, #255
ARM GAS  C:\Users\744\AppData\Local\Temp\ccnzmzQv.s 			page 45


 1385 0088 0A4B     		ldr	r3, .L104+8
 1386 008a 1A60     		str	r2, [r3]
 488:.\Generated_Source\PSoC4/I2C_I2C_MASTER.c ****         {
 1387              		.loc 1 488 0
 1388 008c 0029     		cmp	r1, #0
 1389 008e 0BD0     		beq	.L94
 490:.\Generated_Source\PSoC4/I2C_I2C_MASTER.c ****         }
 1390              		.loc 1 490 0
 1391 0090 0B4A     		ldr	r2, .L104+20
 1392 0092 1368     		ldr	r3, [r2]
 1393 0094 5B00     		lsl	r3, r3, #1
 1394 0096 5B08     		lsr	r3, r3, #1
 1395 0098 1360     		str	r3, [r2]
 1396 009a 1368     		ldr	r3, [r2]
 1397 009c 8021     		mov	r1, #128
 1398              	.LVL130:
 1399 009e 0906     		lsl	r1, r1, #24
 1400 00a0 0B43     		orr	r3, r1
 1401 00a2 1360     		str	r3, [r2]
 1402 00a4 00E0     		b	.L94
 1403              	.LVL131:
 1404              	.L101:
 415:.\Generated_Source\PSoC4/I2C_I2C_MASTER.c **** 
 1405              		.loc 1 415 0
 1406 00a6 0420     		mov	r0, #4
 1407              	.LVL132:
 1408              	.L94:
 495:.\Generated_Source\PSoC4/I2C_I2C_MASTER.c **** 
 1409              		.loc 1 495 0
 1410              		@ sp needed
 1411 00a8 10BD     		pop	{r4, pc}
 1412              	.L105:
 1413 00aa C046     		.align	2
 1414              	.L104:
 1415 00ac 00000000 		.word	I2C_state
 1416 00b0 17030000 		.word	791
 1417 00b4 000F0740 		.word	1074204416
 1418 00b8 68000740 		.word	1074200680
 1419 00bc 40020740 		.word	1074201152
 1420 00c0 00000740 		.word	1074200576
 1421              		.cfi_endproc
 1422              	.LFE3:
 1423              		.size	I2C_I2CMasterSendRestart, .-I2C_I2CMasterSendRestart
 1424              		.comm	I2C_mstrWrBufIndexTmp,4,4
 1425              		.comm	I2C_mstrWrBufIndex,4,4
 1426              		.comm	I2C_mstrWrBufSize,4,4
 1427              		.comm	I2C_mstrWrBufPtr,4,4
 1428              		.comm	I2C_mstrRdBufIndex,4,4
 1429              		.comm	I2C_mstrRdBufSize,4,4
 1430              		.comm	I2C_mstrRdBufPtr,4,4
 1431              		.comm	I2C_mstrControl,1,1
 1432              		.comm	I2C_mstrStatus,2,2
 1433              		.text
 1434              	.Letext0:
 1435              		.file 2 "Generated_Source\\PSoC4/cytypes.h"
 1436              		.file 3 ".\\Generated_Source\\PSoC4\\I2C_I2C_PVT.h"
 1437              		.file 4 "Generated_Source\\PSoC4/CyLib.h"
ARM GAS  C:\Users\744\AppData\Local\Temp\ccnzmzQv.s 			page 46


 1438              		.file 5 ".\\Generated_Source\\PSoC4\\I2C_scl.h"
 1439              		.file 6 ".\\Generated_Source\\PSoC4\\I2C_sda.h"
 1440              		.section	.debug_info,"",%progbits
 1441              	.Ldebug_info0:
 1442 0000 81060000 		.4byte	0x681
 1443 0004 0400     		.2byte	0x4
 1444 0006 00000000 		.4byte	.Ldebug_abbrev0
 1445 000a 04       		.byte	0x4
 1446 000b 01       		.uleb128 0x1
 1447 000c 6D020000 		.4byte	.LASF57
 1448 0010 01       		.byte	0x1
 1449 0011 79000000 		.4byte	.LASF58
 1450 0015 A9030000 		.4byte	.LASF59
 1451 0019 00000000 		.4byte	.Ldebug_ranges0+0
 1452 001d 00000000 		.4byte	0
 1453 0021 00000000 		.4byte	.Ldebug_line0
 1454 0025 02       		.uleb128 0x2
 1455 0026 01       		.byte	0x1
 1456 0027 06       		.byte	0x6
 1457 0028 EC000000 		.4byte	.LASF0
 1458 002c 02       		.uleb128 0x2
 1459 002d 01       		.byte	0x1
 1460 002e 08       		.byte	0x8
 1461 002f F8000000 		.4byte	.LASF1
 1462 0033 02       		.uleb128 0x2
 1463 0034 02       		.byte	0x2
 1464 0035 05       		.byte	0x5
 1465 0036 08030000 		.4byte	.LASF2
 1466 003a 02       		.uleb128 0x2
 1467 003b 02       		.byte	0x2
 1468 003c 07       		.byte	0x7
 1469 003d 66000000 		.4byte	.LASF3
 1470 0041 02       		.uleb128 0x2
 1471 0042 04       		.byte	0x4
 1472 0043 05       		.byte	0x5
 1473 0044 70030000 		.4byte	.LASF4
 1474 0048 02       		.uleb128 0x2
 1475 0049 04       		.byte	0x4
 1476 004a 07       		.byte	0x7
 1477 004b 48010000 		.4byte	.LASF5
 1478 004f 02       		.uleb128 0x2
 1479 0050 08       		.byte	0x8
 1480 0051 05       		.byte	0x5
 1481 0052 2C020000 		.4byte	.LASF6
 1482 0056 02       		.uleb128 0x2
 1483 0057 08       		.byte	0x8
 1484 0058 07       		.byte	0x7
 1485 0059 EB010000 		.4byte	.LASF7
 1486 005d 03       		.uleb128 0x3
 1487 005e 04       		.byte	0x4
 1488 005f 05       		.byte	0x5
 1489 0060 696E7400 		.ascii	"int\000"
 1490 0064 02       		.uleb128 0x2
 1491 0065 04       		.byte	0x4
 1492 0066 07       		.byte	0x7
 1493 0067 D7010000 		.4byte	.LASF8
 1494 006b 04       		.uleb128 0x4
ARM GAS  C:\Users\744\AppData\Local\Temp\ccnzmzQv.s 			page 47


 1495 006c 70010000 		.4byte	.LASF9
 1496 0070 02       		.byte	0x2
 1497 0071 3801     		.2byte	0x138
 1498 0073 2C000000 		.4byte	0x2c
 1499 0077 04       		.uleb128 0x4
 1500 0078 B0010000 		.4byte	.LASF10
 1501 007c 02       		.byte	0x2
 1502 007d 3901     		.2byte	0x139
 1503 007f 3A000000 		.4byte	0x3a
 1504 0083 04       		.uleb128 0x4
 1505 0084 BE010000 		.4byte	.LASF11
 1506 0088 02       		.byte	0x2
 1507 0089 3A01     		.2byte	0x13a
 1508 008b 48000000 		.4byte	0x48
 1509 008f 02       		.uleb128 0x2
 1510 0090 04       		.byte	0x4
 1511 0091 04       		.byte	0x4
 1512 0092 E6000000 		.4byte	.LASF12
 1513 0096 02       		.uleb128 0x2
 1514 0097 08       		.byte	0x8
 1515 0098 04       		.byte	0x4
 1516 0099 96010000 		.4byte	.LASF13
 1517 009d 02       		.uleb128 0x2
 1518 009e 01       		.byte	0x1
 1519 009f 08       		.byte	0x8
 1520 00a0 51020000 		.4byte	.LASF14
 1521 00a4 05       		.uleb128 0x5
 1522 00a5 6B000000 		.4byte	0x6b
 1523 00a9 05       		.uleb128 0x5
 1524 00aa 77000000 		.4byte	0x77
 1525 00ae 04       		.uleb128 0x4
 1526 00af 1C000000 		.4byte	.LASF15
 1527 00b3 02       		.byte	0x2
 1528 00b4 E401     		.2byte	0x1e4
 1529 00b6 BA000000 		.4byte	0xba
 1530 00ba 05       		.uleb128 0x5
 1531 00bb 83000000 		.4byte	0x83
 1532 00bf 02       		.uleb128 0x2
 1533 00c0 04       		.byte	0x4
 1534 00c1 07       		.byte	0x7
 1535 00c2 23020000 		.4byte	.LASF16
 1536 00c6 06       		.uleb128 0x6
 1537 00c7 06010000 		.4byte	.LASF21
 1538 00cb 01       		.byte	0x1
 1539 00cc 2401     		.2byte	0x124
 1540 00ce 83000000 		.4byte	0x83
 1541 00d2 00000000 		.4byte	.LFB2
 1542 00d6 D8000000 		.4byte	.LFE2-.LFB2
 1543 00da 01       		.uleb128 0x1
 1544 00db 9C       		.byte	0x9c
 1545 00dc 30010000 		.4byte	0x130
 1546 00e0 07       		.uleb128 0x7
 1547 00e1 07020000 		.4byte	.LASF17
 1548 00e5 01       		.byte	0x1
 1549 00e6 2401     		.2byte	0x124
 1550 00e8 83000000 		.4byte	0x83
 1551 00ec 00000000 		.4byte	.LLST0
ARM GAS  C:\Users\744\AppData\Local\Temp\ccnzmzQv.s 			page 48


 1552 00f0 07       		.uleb128 0x7
 1553 00f1 9D010000 		.4byte	.LASF18
 1554 00f5 01       		.byte	0x1
 1555 00f6 2401     		.2byte	0x124
 1556 00f8 83000000 		.4byte	0x83
 1557 00fc 6E000000 		.4byte	.LLST1
 1558 0100 08       		.uleb128 0x8
 1559 0101 AA000000 		.4byte	.LASF19
 1560 0105 01       		.byte	0x1
 1561 0106 2601     		.2byte	0x126
 1562 0108 83000000 		.4byte	0x83
 1563 010c A5000000 		.4byte	.LLST2
 1564 0110 08       		.uleb128 0x8
 1565 0111 7E010000 		.4byte	.LASF20
 1566 0115 01       		.byte	0x1
 1567 0116 2701     		.2byte	0x127
 1568 0118 83000000 		.4byte	0x83
 1569 011c 00010000 		.4byte	.LLST3
 1570 0120 09       		.uleb128 0x9
 1571 0121 1C000000 		.4byte	.LVL3
 1572 0125 2A060000 		.4byte	0x62a
 1573 0129 0A       		.uleb128 0xa
 1574 012a 01       		.uleb128 0x1
 1575 012b 50       		.byte	0x50
 1576 012c 01       		.uleb128 0x1
 1577 012d 3B       		.byte	0x3b
 1578 012e 00       		.byte	0
 1579 012f 00       		.byte	0
 1580 0130 06       		.uleb128 0x6
 1581 0131 35040000 		.4byte	.LASF22
 1582 0135 01       		.byte	0x1
 1583 0136 0D02     		.2byte	0x20d
 1584 0138 83000000 		.4byte	0x83
 1585 013c 00000000 		.4byte	.LFB4
 1586 0140 8C000000 		.4byte	.LFE4-.LFB4
 1587 0144 01       		.uleb128 0x1
 1588 0145 9C       		.byte	0x9c
 1589 0146 6B010000 		.4byte	0x16b
 1590 014a 08       		.uleb128 0x8
 1591 014b AA000000 		.4byte	.LASF19
 1592 014f 01       		.byte	0x1
 1593 0150 0F02     		.2byte	0x20f
 1594 0152 83000000 		.4byte	0x83
 1595 0156 68010000 		.4byte	.LLST4
 1596 015a 08       		.uleb128 0x8
 1597 015b 7E010000 		.4byte	.LASF20
 1598 015f 01       		.byte	0x1
 1599 0160 1002     		.2byte	0x210
 1600 0162 83000000 		.4byte	0x83
 1601 0166 93010000 		.4byte	.LLST5
 1602 016a 00       		.byte	0
 1603 016b 06       		.uleb128 0x6
 1604 016c 56020000 		.4byte	.LASF23
 1605 0170 01       		.byte	0x1
 1606 0171 5E02     		.2byte	0x25e
 1607 0173 83000000 		.4byte	0x83
 1608 0177 00000000 		.4byte	.LFB5
ARM GAS  C:\Users\744\AppData\Local\Temp\ccnzmzQv.s 			page 49


 1609 017b 98000000 		.4byte	.LFE5-.LFB5
 1610 017f 01       		.uleb128 0x1
 1611 0180 9C       		.byte	0x9c
 1612 0181 B6010000 		.4byte	0x1b6
 1613 0185 07       		.uleb128 0x7
 1614 0186 12030000 		.4byte	.LASF24
 1615 018a 01       		.byte	0x1
 1616 018b 5E02     		.2byte	0x25e
 1617 018d 83000000 		.4byte	0x83
 1618 0191 C9010000 		.4byte	.LLST6
 1619 0195 08       		.uleb128 0x8
 1620 0196 AA000000 		.4byte	.LASF19
 1621 019a 01       		.byte	0x1
 1622 019b 6002     		.2byte	0x260
 1623 019d 83000000 		.4byte	0x83
 1624 01a1 4E020000 		.4byte	.LLST7
 1625 01a5 08       		.uleb128 0x8
 1626 01a6 7E010000 		.4byte	.LASF20
 1627 01aa 01       		.byte	0x1
 1628 01ab 6102     		.2byte	0x261
 1629 01ad 83000000 		.4byte	0x83
 1630 01b1 9D020000 		.4byte	.LLST8
 1631 01b5 00       		.byte	0
 1632 01b6 06       		.uleb128 0x6
 1633 01b7 33030000 		.4byte	.LASF25
 1634 01bb 01       		.byte	0x1
 1635 01bc B702     		.2byte	0x2b7
 1636 01be 83000000 		.4byte	0x83
 1637 01c2 00000000 		.4byte	.LFB6
 1638 01c6 84000000 		.4byte	.LFE6-.LFB6
 1639 01ca 01       		.uleb128 0x1
 1640 01cb 9C       		.byte	0x9c
 1641 01cc F1010000 		.4byte	0x1f1
 1642 01d0 07       		.uleb128 0x7
 1643 01d1 76010000 		.4byte	.LASF26
 1644 01d5 01       		.byte	0x1
 1645 01d6 B702     		.2byte	0x2b7
 1646 01d8 83000000 		.4byte	0x83
 1647 01dc 29030000 		.4byte	.LLST9
 1648 01e0 08       		.uleb128 0x8
 1649 01e1 12030000 		.4byte	.LASF24
 1650 01e5 01       		.byte	0x1
 1651 01e6 B902     		.2byte	0x2b9
 1652 01e8 83000000 		.4byte	0x83
 1653 01ec 84030000 		.4byte	.LLST10
 1654 01f0 00       		.byte	0
 1655 01f1 0B       		.uleb128 0xb
 1656 01f2 00000000 		.4byte	.LASF27
 1657 01f6 01       		.byte	0x1
 1658 01f7 FE02     		.2byte	0x2fe
 1659 01f9 83000000 		.4byte	0x83
 1660 01fd 00000000 		.4byte	.LFB7
 1661 0201 0C000000 		.4byte	.LFE7-.LFB7
 1662 0205 01       		.uleb128 0x1
 1663 0206 9C       		.byte	0x9c
 1664 0207 0B       		.uleb128 0xb
 1665 0208 79030000 		.4byte	.LASF28
ARM GAS  C:\Users\744\AppData\Local\Temp\ccnzmzQv.s 			page 50


 1666 020c 01       		.byte	0x1
 1667 020d 1C03     		.2byte	0x31c
 1668 020f 83000000 		.4byte	0x83
 1669 0213 00000000 		.4byte	.LFB8
 1670 0217 0C000000 		.4byte	.LFE8-.LFB8
 1671 021b 01       		.uleb128 0x1
 1672 021c 9C       		.byte	0x9c
 1673 021d 0C       		.uleb128 0xc
 1674 021e 4C000000 		.4byte	.LASF29
 1675 0222 01       		.byte	0x1
 1676 0223 3503     		.2byte	0x335
 1677 0225 00000000 		.4byte	.LFB9
 1678 0229 28000000 		.4byte	.LFE9-.LFB9
 1679 022d 01       		.uleb128 0x1
 1680 022e 9C       		.byte	0x9c
 1681 022f 56020000 		.4byte	0x256
 1682 0233 0D       		.uleb128 0xd
 1683 0234 08000000 		.4byte	.LVL50
 1684 0238 2A060000 		.4byte	0x62a
 1685 023c 46020000 		.4byte	0x246
 1686 0240 0A       		.uleb128 0xa
 1687 0241 01       		.uleb128 0x1
 1688 0242 50       		.byte	0x50
 1689 0243 01       		.uleb128 0x1
 1690 0244 3B       		.byte	0x3b
 1691 0245 00       		.byte	0
 1692 0246 09       		.uleb128 0x9
 1693 0247 1E000000 		.4byte	.LVL51
 1694 024b 3B060000 		.4byte	0x63b
 1695 024f 0A       		.uleb128 0xa
 1696 0250 01       		.uleb128 0x1
 1697 0251 50       		.byte	0x50
 1698 0252 01       		.uleb128 0x1
 1699 0253 3B       		.byte	0x3b
 1700 0254 00       		.byte	0
 1701 0255 00       		.byte	0
 1702 0256 0C       		.uleb128 0xc
 1703 0257 1D010000 		.4byte	.LASF30
 1704 025b 01       		.byte	0x1
 1705 025c 5303     		.2byte	0x353
 1706 025e 00000000 		.4byte	.LFB10
 1707 0262 28000000 		.4byte	.LFE10-.LFB10
 1708 0266 01       		.uleb128 0x1
 1709 0267 9C       		.byte	0x9c
 1710 0268 8F020000 		.4byte	0x28f
 1711 026c 0D       		.uleb128 0xd
 1712 026d 08000000 		.4byte	.LVL52
 1713 0271 2A060000 		.4byte	0x62a
 1714 0275 7F020000 		.4byte	0x27f
 1715 0279 0A       		.uleb128 0xa
 1716 027a 01       		.uleb128 0x1
 1717 027b 50       		.byte	0x50
 1718 027c 01       		.uleb128 0x1
 1719 027d 3B       		.byte	0x3b
 1720 027e 00       		.byte	0
 1721 027f 09       		.uleb128 0x9
 1722 0280 1E000000 		.4byte	.LVL53
ARM GAS  C:\Users\744\AppData\Local\Temp\ccnzmzQv.s 			page 51


 1723 0284 3B060000 		.4byte	0x63b
 1724 0288 0A       		.uleb128 0xa
 1725 0289 01       		.uleb128 0x1
 1726 028a 50       		.byte	0x50
 1727 028b 01       		.uleb128 0x1
 1728 028c 3B       		.byte	0x3b
 1729 028d 00       		.byte	0
 1730 028e 00       		.byte	0
 1731 028f 06       		.uleb128 0x6
 1732 0290 BF000000 		.4byte	.LASF31
 1733 0294 01       		.byte	0x1
 1734 0295 6F03     		.2byte	0x36f
 1735 0297 83000000 		.4byte	0x83
 1736 029b 00000000 		.4byte	.LFB11
 1737 029f 30000000 		.4byte	.LFE11-.LFB11
 1738 02a3 01       		.uleb128 0x1
 1739 02a4 9C       		.byte	0x9c
 1740 02a5 DC020000 		.4byte	0x2dc
 1741 02a9 08       		.uleb128 0x8
 1742 02aa A3000000 		.4byte	.LASF32
 1743 02ae 01       		.byte	0x1
 1744 02af 7103     		.2byte	0x371
 1745 02b1 83000000 		.4byte	0x83
 1746 02b5 BC030000 		.4byte	.LLST11
 1747 02b9 0D       		.uleb128 0xd
 1748 02ba 08000000 		.4byte	.LVL54
 1749 02be 2A060000 		.4byte	0x62a
 1750 02c2 CC020000 		.4byte	0x2cc
 1751 02c6 0A       		.uleb128 0xa
 1752 02c7 01       		.uleb128 0x1
 1753 02c8 50       		.byte	0x50
 1754 02c9 01       		.uleb128 0x1
 1755 02ca 3B       		.byte	0x3b
 1756 02cb 00       		.byte	0
 1757 02cc 09       		.uleb128 0x9
 1758 02cd 22000000 		.4byte	.LVL57
 1759 02d1 3B060000 		.4byte	0x63b
 1760 02d5 0A       		.uleb128 0xa
 1761 02d6 01       		.uleb128 0x1
 1762 02d7 50       		.byte	0x50
 1763 02d8 01       		.uleb128 0x1
 1764 02d9 3B       		.byte	0x3b
 1765 02da 00       		.byte	0
 1766 02db 00       		.byte	0
 1767 02dc 06       		.uleb128 0x6
 1768 02dd 12040000 		.4byte	.LASF33
 1769 02e1 01       		.byte	0x1
 1770 02e2 9403     		.2byte	0x394
 1771 02e4 83000000 		.4byte	0x83
 1772 02e8 00000000 		.4byte	.LFB12
 1773 02ec 20000000 		.4byte	.LFE12-.LFB12
 1774 02f0 01       		.uleb128 0x1
 1775 02f1 9C       		.byte	0x9c
 1776 02f2 29030000 		.4byte	0x329
 1777 02f6 08       		.uleb128 0x8
 1778 02f7 A3000000 		.4byte	.LASF32
 1779 02fb 01       		.byte	0x1
ARM GAS  C:\Users\744\AppData\Local\Temp\ccnzmzQv.s 			page 52


 1780 02fc 9603     		.2byte	0x396
 1781 02fe 83000000 		.4byte	0x83
 1782 0302 E5030000 		.4byte	.LLST12
 1783 0306 0D       		.uleb128 0xd
 1784 0307 08000000 		.4byte	.LVL59
 1785 030b 2A060000 		.4byte	0x62a
 1786 030f 19030000 		.4byte	0x319
 1787 0313 0A       		.uleb128 0xa
 1788 0314 01       		.uleb128 0x1
 1789 0315 50       		.byte	0x50
 1790 0316 01       		.uleb128 0x1
 1791 0317 3B       		.byte	0x3b
 1792 0318 00       		.byte	0
 1793 0319 09       		.uleb128 0x9
 1794 031a 18000000 		.4byte	.LVL61
 1795 031e 3B060000 		.4byte	0x63b
 1796 0322 0A       		.uleb128 0xa
 1797 0323 01       		.uleb128 0x1
 1798 0324 50       		.byte	0x50
 1799 0325 01       		.uleb128 0x1
 1800 0326 3B       		.byte	0x3b
 1801 0327 00       		.byte	0
 1802 0328 00       		.byte	0
 1803 0329 0C       		.uleb128 0xc
 1804 032a 33000000 		.4byte	.LASF34
 1805 032e 01       		.byte	0x1
 1806 032f C703     		.2byte	0x3c7
 1807 0331 00000000 		.4byte	.LFB13
 1808 0335 98000000 		.4byte	.LFE13-.LFB13
 1809 0339 01       		.uleb128 0x1
 1810 033a 9C       		.byte	0x9c
 1811 033b F6030000 		.4byte	0x3f6
 1812 033f 08       		.uleb128 0x8
 1813 0340 A3000000 		.4byte	.LASF32
 1814 0344 01       		.byte	0x1
 1815 0345 CC03     		.2byte	0x3cc
 1816 0347 83000000 		.4byte	0x83
 1817 034b 03040000 		.4byte	.LLST13
 1818 034f 0E       		.uleb128 0xe
 1819 0350 0A000000 		.4byte	.LVL64
 1820 0354 4C060000 		.4byte	0x64c
 1821 0358 0D       		.uleb128 0xd
 1822 0359 14000000 		.4byte	.LVL65
 1823 035d 57060000 		.4byte	0x657
 1824 0361 6B030000 		.4byte	0x36b
 1825 0365 0A       		.uleb128 0xa
 1826 0366 01       		.uleb128 0x1
 1827 0367 50       		.byte	0x50
 1828 0368 01       		.uleb128 0x1
 1829 0369 30       		.byte	0x30
 1830 036a 00       		.byte	0
 1831 036b 0D       		.uleb128 0xd
 1832 036c 32000000 		.4byte	.LVL66
 1833 0370 57060000 		.4byte	0x657
 1834 0374 7E030000 		.4byte	0x37e
 1835 0378 0A       		.uleb128 0xa
 1836 0379 01       		.uleb128 0x1
ARM GAS  C:\Users\744\AppData\Local\Temp\ccnzmzQv.s 			page 53


 1837 037a 50       		.byte	0x50
 1838 037b 01       		.uleb128 0x1
 1839 037c 30       		.byte	0x30
 1840 037d 00       		.byte	0
 1841 037e 0D       		.uleb128 0xd
 1842 037f 38000000 		.4byte	.LVL67
 1843 0383 68060000 		.4byte	0x668
 1844 0387 91030000 		.4byte	0x391
 1845 038b 0A       		.uleb128 0xa
 1846 038c 01       		.uleb128 0x1
 1847 038d 50       		.byte	0x50
 1848 038e 01       		.uleb128 0x1
 1849 038f 3A       		.byte	0x3a
 1850 0390 00       		.byte	0
 1851 0391 0D       		.uleb128 0xd
 1852 0392 3E000000 		.4byte	.LVL68
 1853 0396 57060000 		.4byte	0x657
 1854 039a A4030000 		.4byte	0x3a4
 1855 039e 0A       		.uleb128 0xa
 1856 039f 01       		.uleb128 0x1
 1857 03a0 50       		.byte	0x50
 1858 03a1 01       		.uleb128 0x1
 1859 03a2 31       		.byte	0x31
 1860 03a3 00       		.byte	0
 1861 03a4 0E       		.uleb128 0xe
 1862 03a5 42000000 		.4byte	.LVL69
 1863 03a9 79060000 		.4byte	0x679
 1864 03ad 0D       		.uleb128 0xd
 1865 03ae 4C000000 		.4byte	.LVL70
 1866 03b2 68060000 		.4byte	0x668
 1867 03b6 C0030000 		.4byte	0x3c0
 1868 03ba 0A       		.uleb128 0xa
 1869 03bb 01       		.uleb128 0x1
 1870 03bc 50       		.byte	0x50
 1871 03bd 01       		.uleb128 0x1
 1872 03be 3A       		.byte	0x3a
 1873 03bf 00       		.byte	0
 1874 03c0 0D       		.uleb128 0xd
 1875 03c1 52000000 		.4byte	.LVL71
 1876 03c5 57060000 		.4byte	0x657
 1877 03c9 D3030000 		.4byte	0x3d3
 1878 03cd 0A       		.uleb128 0xa
 1879 03ce 01       		.uleb128 0x1
 1880 03cf 50       		.byte	0x50
 1881 03d0 01       		.uleb128 0x1
 1882 03d1 30       		.byte	0x30
 1883 03d2 00       		.byte	0
 1884 03d3 0D       		.uleb128 0xd
 1885 03d4 58000000 		.4byte	.LVL72
 1886 03d8 68060000 		.4byte	0x668
 1887 03dc E6030000 		.4byte	0x3e6
 1888 03e0 0A       		.uleb128 0xa
 1889 03e1 01       		.uleb128 0x1
 1890 03e2 50       		.byte	0x50
 1891 03e3 01       		.uleb128 0x1
 1892 03e4 3A       		.byte	0x3a
 1893 03e5 00       		.byte	0
ARM GAS  C:\Users\744\AppData\Local\Temp\ccnzmzQv.s 			page 54


 1894 03e6 09       		.uleb128 0x9
 1895 03e7 80000000 		.4byte	.LVL73
 1896 03eb 57060000 		.4byte	0x657
 1897 03ef 0A       		.uleb128 0xa
 1898 03f0 01       		.uleb128 0x1
 1899 03f1 50       		.byte	0x50
 1900 03f2 01       		.uleb128 0x1
 1901 03f3 31       		.byte	0x31
 1902 03f4 00       		.byte	0
 1903 03f5 00       		.byte	0
 1904 03f6 0F       		.uleb128 0xf
 1905 03f7 5A010000 		.4byte	.LASF35
 1906 03fb 01       		.byte	0x1
 1907 03fc 50       		.byte	0x50
 1908 03fd 83000000 		.4byte	0x83
 1909 0401 00000000 		.4byte	.LFB0
 1910 0405 EC000000 		.4byte	.LFE0-.LFB0
 1911 0409 01       		.uleb128 0x1
 1912 040a 9C       		.byte	0x9c
 1913 040b 86040000 		.4byte	0x486
 1914 040f 10       		.uleb128 0x10
 1915 0410 07020000 		.4byte	.LASF17
 1916 0414 01       		.byte	0x1
 1917 0415 50       		.byte	0x50
 1918 0416 83000000 		.4byte	0x83
 1919 041a 16040000 		.4byte	.LLST14
 1920 041e 10       		.uleb128 0x10
 1921 041f E4010000 		.4byte	.LASF36
 1922 0423 01       		.byte	0x1
 1923 0424 50       		.byte	0x50
 1924 0425 86040000 		.4byte	0x486
 1925 0429 57040000 		.4byte	.LLST15
 1926 042d 11       		.uleb128 0x11
 1927 042e 636E7400 		.ascii	"cnt\000"
 1928 0432 01       		.byte	0x1
 1929 0433 50       		.byte	0x50
 1930 0434 83000000 		.4byte	0x83
 1931 0438 BE040000 		.4byte	.LLST16
 1932 043c 10       		.uleb128 0x10
 1933 043d 02020000 		.4byte	.LASF37
 1934 0441 01       		.byte	0x1
 1935 0442 50       		.byte	0x50
 1936 0443 83000000 		.4byte	0x83
 1937 0447 16050000 		.4byte	.LLST17
 1938 044b 12       		.uleb128 0x12
 1939 044c 7E010000 		.4byte	.LASF20
 1940 0450 01       		.byte	0x1
 1941 0451 52       		.byte	0x52
 1942 0452 83000000 		.4byte	0x83
 1943 0456 58050000 		.4byte	.LLST18
 1944 045a 0D       		.uleb128 0xd
 1945 045b 1E000000 		.4byte	.LVL79
 1946 045f 2A060000 		.4byte	0x62a
 1947 0463 6D040000 		.4byte	0x46d
 1948 0467 0A       		.uleb128 0xa
 1949 0468 01       		.uleb128 0x1
 1950 0469 50       		.byte	0x50
ARM GAS  C:\Users\744\AppData\Local\Temp\ccnzmzQv.s 			page 55


 1951 046a 01       		.uleb128 0x1
 1952 046b 3B       		.byte	0x3b
 1953 046c 00       		.byte	0
 1954 046d 0E       		.uleb128 0xe
 1955 046e 96000000 		.4byte	.LVL91
 1956 0472 29030000 		.4byte	0x329
 1957 0476 09       		.uleb128 0x9
 1958 0477 AC000000 		.4byte	.LVL93
 1959 047b 3B060000 		.4byte	0x63b
 1960 047f 0A       		.uleb128 0xa
 1961 0480 01       		.uleb128 0x1
 1962 0481 50       		.byte	0x50
 1963 0482 01       		.uleb128 0x1
 1964 0483 3B       		.byte	0x3b
 1965 0484 00       		.byte	0
 1966 0485 00       		.byte	0
 1967 0486 13       		.uleb128 0x13
 1968 0487 04       		.byte	0x4
 1969 0488 6B000000 		.4byte	0x6b
 1970 048c 0F       		.uleb128 0xf
 1971 048d FD030000 		.4byte	.LASF38
 1972 0491 01       		.byte	0x1
 1973 0492 BB       		.byte	0xbb
 1974 0493 83000000 		.4byte	0x83
 1975 0497 00000000 		.4byte	.LFB1
 1976 049b FC000000 		.4byte	.LFE1-.LFB1
 1977 049f 01       		.uleb128 0x1
 1978 04a0 9C       		.byte	0x9c
 1979 04a1 1C050000 		.4byte	0x51c
 1980 04a5 10       		.uleb128 0x10
 1981 04a6 07020000 		.4byte	.LASF17
 1982 04aa 01       		.byte	0x1
 1983 04ab BB       		.byte	0xbb
 1984 04ac 83000000 		.4byte	0x83
 1985 04b0 B2050000 		.4byte	.LLST19
 1986 04b4 10       		.uleb128 0x10
 1987 04b5 B7010000 		.4byte	.LASF39
 1988 04b9 01       		.byte	0x1
 1989 04ba BB       		.byte	0xbb
 1990 04bb 86040000 		.4byte	0x486
 1991 04bf F3050000 		.4byte	.LLST20
 1992 04c3 11       		.uleb128 0x11
 1993 04c4 636E7400 		.ascii	"cnt\000"
 1994 04c8 01       		.byte	0x1
 1995 04c9 BB       		.byte	0xbb
 1996 04ca 83000000 		.4byte	0x83
 1997 04ce 5A060000 		.4byte	.LLST21
 1998 04d2 10       		.uleb128 0x10
 1999 04d3 02020000 		.4byte	.LASF37
 2000 04d7 01       		.byte	0x1
 2001 04d8 BB       		.byte	0xbb
 2002 04d9 83000000 		.4byte	0x83
 2003 04dd B2060000 		.4byte	.LLST22
 2004 04e1 12       		.uleb128 0x12
 2005 04e2 7E010000 		.4byte	.LASF20
 2006 04e6 01       		.byte	0x1
 2007 04e7 BD       		.byte	0xbd
ARM GAS  C:\Users\744\AppData\Local\Temp\ccnzmzQv.s 			page 56


 2008 04e8 83000000 		.4byte	0x83
 2009 04ec F4060000 		.4byte	.LLST23
 2010 04f0 0D       		.uleb128 0xd
 2011 04f1 1E000000 		.4byte	.LVL101
 2012 04f5 2A060000 		.4byte	0x62a
 2013 04f9 03050000 		.4byte	0x503
 2014 04fd 0A       		.uleb128 0xa
 2015 04fe 01       		.uleb128 0x1
 2016 04ff 50       		.byte	0x50
 2017 0500 01       		.uleb128 0x1
 2018 0501 3B       		.byte	0x3b
 2019 0502 00       		.byte	0
 2020 0503 0E       		.uleb128 0xe
 2021 0504 AA000000 		.4byte	.LVL113
 2022 0508 29030000 		.4byte	0x329
 2023 050c 09       		.uleb128 0x9
 2024 050d C0000000 		.4byte	.LVL115
 2025 0511 3B060000 		.4byte	0x63b
 2026 0515 0A       		.uleb128 0xa
 2027 0516 01       		.uleb128 0x1
 2028 0517 50       		.byte	0x50
 2029 0518 01       		.uleb128 0x1
 2030 0519 3B       		.byte	0x3b
 2031 051a 00       		.byte	0
 2032 051b 00       		.byte	0
 2033 051c 06       		.uleb128 0x6
 2034 051d 1A030000 		.4byte	.LASF40
 2035 0521 01       		.byte	0x1
 2036 0522 9901     		.2byte	0x199
 2037 0524 83000000 		.4byte	0x83
 2038 0528 00000000 		.4byte	.LFB3
 2039 052c C4000000 		.4byte	.LFE3-.LFB3
 2040 0530 01       		.uleb128 0x1
 2041 0531 9C       		.byte	0x9c
 2042 0532 80050000 		.4byte	0x580
 2043 0536 07       		.uleb128 0x7
 2044 0537 07020000 		.4byte	.LASF17
 2045 053b 01       		.byte	0x1
 2046 053c 9901     		.2byte	0x199
 2047 053e 83000000 		.4byte	0x83
 2048 0542 4E070000 		.4byte	.LLST24
 2049 0546 07       		.uleb128 0x7
 2050 0547 9D010000 		.4byte	.LASF18
 2051 054b 01       		.byte	0x1
 2052 054c 9901     		.2byte	0x199
 2053 054e 83000000 		.4byte	0x83
 2054 0552 85070000 		.4byte	.LLST25
 2055 0556 08       		.uleb128 0x8
 2056 0557 AA000000 		.4byte	.LASF19
 2057 055b 01       		.byte	0x1
 2058 055c 9B01     		.2byte	0x19b
 2059 055e 83000000 		.4byte	0x83
 2060 0562 BF070000 		.4byte	.LLST26
 2061 0566 08       		.uleb128 0x8
 2062 0567 7E010000 		.4byte	.LASF20
 2063 056b 01       		.byte	0x1
 2064 056c 9C01     		.2byte	0x19c
ARM GAS  C:\Users\744\AppData\Local\Temp\ccnzmzQv.s 			page 57


 2065 056e 83000000 		.4byte	0x83
 2066 0572 1A080000 		.4byte	.LLST27
 2067 0576 0E       		.uleb128 0xe
 2068 0577 30000000 		.4byte	.LVL124
 2069 057b 29030000 		.4byte	0x329
 2070 057f 00       		.byte	0
 2071 0580 14       		.uleb128 0x14
 2072 0581 2B040000 		.4byte	.LASF41
 2073 0585 03       		.byte	0x3
 2074 0586 1D       		.byte	0x1d
 2075 0587 A4000000 		.4byte	0xa4
 2076 058b 15       		.uleb128 0x15
 2077 058c 14020000 		.4byte	.LASF42
 2078 0590 01       		.byte	0x1
 2079 0591 1C       		.byte	0x1c
 2080 0592 A9000000 		.4byte	0xa9
 2081 0596 05       		.uleb128 0x5
 2082 0597 03       		.byte	0x3
 2083 0598 00000000 		.4byte	I2C_mstrStatus
 2084 059c 15       		.uleb128 0x15
 2085 059d 38010000 		.4byte	.LASF43
 2086 05a1 01       		.byte	0x1
 2087 05a2 1D       		.byte	0x1d
 2088 05a3 A4000000 		.4byte	0xa4
 2089 05a7 05       		.uleb128 0x5
 2090 05a8 03       		.byte	0x3
 2091 05a9 00000000 		.4byte	I2C_mstrControl
 2092 05ad 15       		.uleb128 0x15
 2093 05ae 49030000 		.4byte	.LASF44
 2094 05b2 01       		.byte	0x1
 2095 05b3 20       		.byte	0x20
 2096 05b4 BE050000 		.4byte	0x5be
 2097 05b8 05       		.uleb128 0x5
 2098 05b9 03       		.byte	0x3
 2099 05ba 00000000 		.4byte	I2C_mstrRdBufPtr
 2100 05be 13       		.uleb128 0x13
 2101 05bf 04       		.byte	0x4
 2102 05c0 A4000000 		.4byte	0xa4
 2103 05c4 15       		.uleb128 0x15
 2104 05c5 C5010000 		.4byte	.LASF45
 2105 05c9 01       		.byte	0x1
 2106 05ca 21       		.byte	0x21
 2107 05cb BA000000 		.4byte	0xba
 2108 05cf 05       		.uleb128 0x5
 2109 05d0 03       		.byte	0x3
 2110 05d1 00000000 		.4byte	I2C_mstrRdBufSize
 2111 05d5 15       		.uleb128 0x15
 2112 05d6 D3000000 		.4byte	.LASF46
 2113 05da 01       		.byte	0x1
 2114 05db 22       		.byte	0x22
 2115 05dc BA000000 		.4byte	0xba
 2116 05e0 05       		.uleb128 0x5
 2117 05e1 03       		.byte	0x3
 2118 05e2 00000000 		.4byte	I2C_mstrRdBufIndex
 2119 05e6 15       		.uleb128 0x15
 2120 05e7 22000000 		.4byte	.LASF47
 2121 05eb 01       		.byte	0x1
ARM GAS  C:\Users\744\AppData\Local\Temp\ccnzmzQv.s 			page 58


 2122 05ec 25       		.byte	0x25
 2123 05ed BE050000 		.4byte	0x5be
 2124 05f1 05       		.uleb128 0x5
 2125 05f2 03       		.byte	0x3
 2126 05f3 00000000 		.4byte	I2C_mstrWrBufPtr
 2127 05f7 15       		.uleb128 0x15
 2128 05f8 EB030000 		.4byte	.LASF48
 2129 05fc 01       		.byte	0x1
 2130 05fd 26       		.byte	0x26
 2131 05fe BA000000 		.4byte	0xba
 2132 0602 05       		.uleb128 0x5
 2133 0603 03       		.byte	0x3
 2134 0604 00000000 		.4byte	I2C_mstrWrBufSize
 2135 0608 15       		.uleb128 0x15
 2136 0609 96030000 		.4byte	.LASF49
 2137 060d 01       		.byte	0x1
 2138 060e 27       		.byte	0x27
 2139 060f BA000000 		.4byte	0xba
 2140 0613 05       		.uleb128 0x5
 2141 0614 03       		.byte	0x3
 2142 0615 00000000 		.4byte	I2C_mstrWrBufIndex
 2143 0619 15       		.uleb128 0x15
 2144 061a 5A030000 		.4byte	.LASF50
 2145 061e 01       		.byte	0x1
 2146 061f 28       		.byte	0x28
 2147 0620 BA000000 		.4byte	0xba
 2148 0624 05       		.uleb128 0x5
 2149 0625 03       		.byte	0x3
 2150 0626 00000000 		.4byte	I2C_mstrWrBufIndexTmp
 2151 062a 16       		.uleb128 0x16
 2152 062b FB020000 		.4byte	.LASF51
 2153 062f 04       		.byte	0x4
 2154 0630 51       		.byte	0x51
 2155 0631 3B060000 		.4byte	0x63b
 2156 0635 17       		.uleb128 0x17
 2157 0636 6B000000 		.4byte	0x6b
 2158 063a 00       		.byte	0
 2159 063b 16       		.uleb128 0x16
 2160 063c A4010000 		.4byte	.LASF52
 2161 0640 04       		.byte	0x4
 2162 0641 4F       		.byte	0x4f
 2163 0642 4C060000 		.4byte	0x64c
 2164 0646 17       		.uleb128 0x17
 2165 0647 6B000000 		.4byte	0x6b
 2166 064b 00       		.byte	0
 2167 064c 18       		.uleb128 0x18
 2168 064d 3A020000 		.4byte	.LASF55
 2169 0651 06       		.byte	0x6
 2170 0652 32       		.byte	0x32
 2171 0653 6B000000 		.4byte	0x6b
 2172 0657 16       		.uleb128 0x16
 2173 0658 88010000 		.4byte	.LASF53
 2174 065c 05       		.byte	0x5
 2175 065d 33       		.byte	0x33
 2176 065e 68060000 		.4byte	0x668
 2177 0662 17       		.uleb128 0x17
 2178 0663 6B000000 		.4byte	0x6b
ARM GAS  C:\Users\744\AppData\Local\Temp\ccnzmzQv.s 			page 59


 2179 0667 00       		.byte	0
 2180 0668 16       		.uleb128 0x16
 2181 0669 47020000 		.4byte	.LASF54
 2182 066d 04       		.byte	0x4
 2183 066e 5B       		.byte	0x5b
 2184 066f 79060000 		.4byte	0x679
 2185 0673 17       		.uleb128 0x17
 2186 0674 77000000 		.4byte	0x77
 2187 0678 00       		.byte	0
 2188 0679 18       		.uleb128 0x18
 2189 067a B2000000 		.4byte	.LASF56
 2190 067e 05       		.byte	0x5
 2191 067f 32       		.byte	0x32
 2192 0680 6B000000 		.4byte	0x6b
 2193 0684 00       		.byte	0
 2194              		.section	.debug_abbrev,"",%progbits
 2195              	.Ldebug_abbrev0:
 2196 0000 01       		.uleb128 0x1
 2197 0001 11       		.uleb128 0x11
 2198 0002 01       		.byte	0x1
 2199 0003 25       		.uleb128 0x25
 2200 0004 0E       		.uleb128 0xe
 2201 0005 13       		.uleb128 0x13
 2202 0006 0B       		.uleb128 0xb
 2203 0007 03       		.uleb128 0x3
 2204 0008 0E       		.uleb128 0xe
 2205 0009 1B       		.uleb128 0x1b
 2206 000a 0E       		.uleb128 0xe
 2207 000b 55       		.uleb128 0x55
 2208 000c 17       		.uleb128 0x17
 2209 000d 11       		.uleb128 0x11
 2210 000e 01       		.uleb128 0x1
 2211 000f 10       		.uleb128 0x10
 2212 0010 17       		.uleb128 0x17
 2213 0011 00       		.byte	0
 2214 0012 00       		.byte	0
 2215 0013 02       		.uleb128 0x2
 2216 0014 24       		.uleb128 0x24
 2217 0015 00       		.byte	0
 2218 0016 0B       		.uleb128 0xb
 2219 0017 0B       		.uleb128 0xb
 2220 0018 3E       		.uleb128 0x3e
 2221 0019 0B       		.uleb128 0xb
 2222 001a 03       		.uleb128 0x3
 2223 001b 0E       		.uleb128 0xe
 2224 001c 00       		.byte	0
 2225 001d 00       		.byte	0
 2226 001e 03       		.uleb128 0x3
 2227 001f 24       		.uleb128 0x24
 2228 0020 00       		.byte	0
 2229 0021 0B       		.uleb128 0xb
 2230 0022 0B       		.uleb128 0xb
 2231 0023 3E       		.uleb128 0x3e
 2232 0024 0B       		.uleb128 0xb
 2233 0025 03       		.uleb128 0x3
 2234 0026 08       		.uleb128 0x8
 2235 0027 00       		.byte	0
ARM GAS  C:\Users\744\AppData\Local\Temp\ccnzmzQv.s 			page 60


 2236 0028 00       		.byte	0
 2237 0029 04       		.uleb128 0x4
 2238 002a 16       		.uleb128 0x16
 2239 002b 00       		.byte	0
 2240 002c 03       		.uleb128 0x3
 2241 002d 0E       		.uleb128 0xe
 2242 002e 3A       		.uleb128 0x3a
 2243 002f 0B       		.uleb128 0xb
 2244 0030 3B       		.uleb128 0x3b
 2245 0031 05       		.uleb128 0x5
 2246 0032 49       		.uleb128 0x49
 2247 0033 13       		.uleb128 0x13
 2248 0034 00       		.byte	0
 2249 0035 00       		.byte	0
 2250 0036 05       		.uleb128 0x5
 2251 0037 35       		.uleb128 0x35
 2252 0038 00       		.byte	0
 2253 0039 49       		.uleb128 0x49
 2254 003a 13       		.uleb128 0x13
 2255 003b 00       		.byte	0
 2256 003c 00       		.byte	0
 2257 003d 06       		.uleb128 0x6
 2258 003e 2E       		.uleb128 0x2e
 2259 003f 01       		.byte	0x1
 2260 0040 3F       		.uleb128 0x3f
 2261 0041 19       		.uleb128 0x19
 2262 0042 03       		.uleb128 0x3
 2263 0043 0E       		.uleb128 0xe
 2264 0044 3A       		.uleb128 0x3a
 2265 0045 0B       		.uleb128 0xb
 2266 0046 3B       		.uleb128 0x3b
 2267 0047 05       		.uleb128 0x5
 2268 0048 27       		.uleb128 0x27
 2269 0049 19       		.uleb128 0x19
 2270 004a 49       		.uleb128 0x49
 2271 004b 13       		.uleb128 0x13
 2272 004c 11       		.uleb128 0x11
 2273 004d 01       		.uleb128 0x1
 2274 004e 12       		.uleb128 0x12
 2275 004f 06       		.uleb128 0x6
 2276 0050 40       		.uleb128 0x40
 2277 0051 18       		.uleb128 0x18
 2278 0052 9742     		.uleb128 0x2117
 2279 0054 19       		.uleb128 0x19
 2280 0055 01       		.uleb128 0x1
 2281 0056 13       		.uleb128 0x13
 2282 0057 00       		.byte	0
 2283 0058 00       		.byte	0
 2284 0059 07       		.uleb128 0x7
 2285 005a 05       		.uleb128 0x5
 2286 005b 00       		.byte	0
 2287 005c 03       		.uleb128 0x3
 2288 005d 0E       		.uleb128 0xe
 2289 005e 3A       		.uleb128 0x3a
 2290 005f 0B       		.uleb128 0xb
 2291 0060 3B       		.uleb128 0x3b
 2292 0061 05       		.uleb128 0x5
ARM GAS  C:\Users\744\AppData\Local\Temp\ccnzmzQv.s 			page 61


 2293 0062 49       		.uleb128 0x49
 2294 0063 13       		.uleb128 0x13
 2295 0064 02       		.uleb128 0x2
 2296 0065 17       		.uleb128 0x17
 2297 0066 00       		.byte	0
 2298 0067 00       		.byte	0
 2299 0068 08       		.uleb128 0x8
 2300 0069 34       		.uleb128 0x34
 2301 006a 00       		.byte	0
 2302 006b 03       		.uleb128 0x3
 2303 006c 0E       		.uleb128 0xe
 2304 006d 3A       		.uleb128 0x3a
 2305 006e 0B       		.uleb128 0xb
 2306 006f 3B       		.uleb128 0x3b
 2307 0070 05       		.uleb128 0x5
 2308 0071 49       		.uleb128 0x49
 2309 0072 13       		.uleb128 0x13
 2310 0073 02       		.uleb128 0x2
 2311 0074 17       		.uleb128 0x17
 2312 0075 00       		.byte	0
 2313 0076 00       		.byte	0
 2314 0077 09       		.uleb128 0x9
 2315 0078 898201   		.uleb128 0x4109
 2316 007b 01       		.byte	0x1
 2317 007c 11       		.uleb128 0x11
 2318 007d 01       		.uleb128 0x1
 2319 007e 31       		.uleb128 0x31
 2320 007f 13       		.uleb128 0x13
 2321 0080 00       		.byte	0
 2322 0081 00       		.byte	0
 2323 0082 0A       		.uleb128 0xa
 2324 0083 8A8201   		.uleb128 0x410a
 2325 0086 00       		.byte	0
 2326 0087 02       		.uleb128 0x2
 2327 0088 18       		.uleb128 0x18
 2328 0089 9142     		.uleb128 0x2111
 2329 008b 18       		.uleb128 0x18
 2330 008c 00       		.byte	0
 2331 008d 00       		.byte	0
 2332 008e 0B       		.uleb128 0xb
 2333 008f 2E       		.uleb128 0x2e
 2334 0090 00       		.byte	0
 2335 0091 3F       		.uleb128 0x3f
 2336 0092 19       		.uleb128 0x19
 2337 0093 03       		.uleb128 0x3
 2338 0094 0E       		.uleb128 0xe
 2339 0095 3A       		.uleb128 0x3a
 2340 0096 0B       		.uleb128 0xb
 2341 0097 3B       		.uleb128 0x3b
 2342 0098 05       		.uleb128 0x5
 2343 0099 27       		.uleb128 0x27
 2344 009a 19       		.uleb128 0x19
 2345 009b 49       		.uleb128 0x49
 2346 009c 13       		.uleb128 0x13
 2347 009d 11       		.uleb128 0x11
 2348 009e 01       		.uleb128 0x1
 2349 009f 12       		.uleb128 0x12
ARM GAS  C:\Users\744\AppData\Local\Temp\ccnzmzQv.s 			page 62


 2350 00a0 06       		.uleb128 0x6
 2351 00a1 40       		.uleb128 0x40
 2352 00a2 18       		.uleb128 0x18
 2353 00a3 9742     		.uleb128 0x2117
 2354 00a5 19       		.uleb128 0x19
 2355 00a6 00       		.byte	0
 2356 00a7 00       		.byte	0
 2357 00a8 0C       		.uleb128 0xc
 2358 00a9 2E       		.uleb128 0x2e
 2359 00aa 01       		.byte	0x1
 2360 00ab 3F       		.uleb128 0x3f
 2361 00ac 19       		.uleb128 0x19
 2362 00ad 03       		.uleb128 0x3
 2363 00ae 0E       		.uleb128 0xe
 2364 00af 3A       		.uleb128 0x3a
 2365 00b0 0B       		.uleb128 0xb
 2366 00b1 3B       		.uleb128 0x3b
 2367 00b2 05       		.uleb128 0x5
 2368 00b3 27       		.uleb128 0x27
 2369 00b4 19       		.uleb128 0x19
 2370 00b5 11       		.uleb128 0x11
 2371 00b6 01       		.uleb128 0x1
 2372 00b7 12       		.uleb128 0x12
 2373 00b8 06       		.uleb128 0x6
 2374 00b9 40       		.uleb128 0x40
 2375 00ba 18       		.uleb128 0x18
 2376 00bb 9742     		.uleb128 0x2117
 2377 00bd 19       		.uleb128 0x19
 2378 00be 01       		.uleb128 0x1
 2379 00bf 13       		.uleb128 0x13
 2380 00c0 00       		.byte	0
 2381 00c1 00       		.byte	0
 2382 00c2 0D       		.uleb128 0xd
 2383 00c3 898201   		.uleb128 0x4109
 2384 00c6 01       		.byte	0x1
 2385 00c7 11       		.uleb128 0x11
 2386 00c8 01       		.uleb128 0x1
 2387 00c9 31       		.uleb128 0x31
 2388 00ca 13       		.uleb128 0x13
 2389 00cb 01       		.uleb128 0x1
 2390 00cc 13       		.uleb128 0x13
 2391 00cd 00       		.byte	0
 2392 00ce 00       		.byte	0
 2393 00cf 0E       		.uleb128 0xe
 2394 00d0 898201   		.uleb128 0x4109
 2395 00d3 00       		.byte	0
 2396 00d4 11       		.uleb128 0x11
 2397 00d5 01       		.uleb128 0x1
 2398 00d6 31       		.uleb128 0x31
 2399 00d7 13       		.uleb128 0x13
 2400 00d8 00       		.byte	0
 2401 00d9 00       		.byte	0
 2402 00da 0F       		.uleb128 0xf
 2403 00db 2E       		.uleb128 0x2e
 2404 00dc 01       		.byte	0x1
 2405 00dd 3F       		.uleb128 0x3f
 2406 00de 19       		.uleb128 0x19
ARM GAS  C:\Users\744\AppData\Local\Temp\ccnzmzQv.s 			page 63


 2407 00df 03       		.uleb128 0x3
 2408 00e0 0E       		.uleb128 0xe
 2409 00e1 3A       		.uleb128 0x3a
 2410 00e2 0B       		.uleb128 0xb
 2411 00e3 3B       		.uleb128 0x3b
 2412 00e4 0B       		.uleb128 0xb
 2413 00e5 27       		.uleb128 0x27
 2414 00e6 19       		.uleb128 0x19
 2415 00e7 49       		.uleb128 0x49
 2416 00e8 13       		.uleb128 0x13
 2417 00e9 11       		.uleb128 0x11
 2418 00ea 01       		.uleb128 0x1
 2419 00eb 12       		.uleb128 0x12
 2420 00ec 06       		.uleb128 0x6
 2421 00ed 40       		.uleb128 0x40
 2422 00ee 18       		.uleb128 0x18
 2423 00ef 9742     		.uleb128 0x2117
 2424 00f1 19       		.uleb128 0x19
 2425 00f2 01       		.uleb128 0x1
 2426 00f3 13       		.uleb128 0x13
 2427 00f4 00       		.byte	0
 2428 00f5 00       		.byte	0
 2429 00f6 10       		.uleb128 0x10
 2430 00f7 05       		.uleb128 0x5
 2431 00f8 00       		.byte	0
 2432 00f9 03       		.uleb128 0x3
 2433 00fa 0E       		.uleb128 0xe
 2434 00fb 3A       		.uleb128 0x3a
 2435 00fc 0B       		.uleb128 0xb
 2436 00fd 3B       		.uleb128 0x3b
 2437 00fe 0B       		.uleb128 0xb
 2438 00ff 49       		.uleb128 0x49
 2439 0100 13       		.uleb128 0x13
 2440 0101 02       		.uleb128 0x2
 2441 0102 17       		.uleb128 0x17
 2442 0103 00       		.byte	0
 2443 0104 00       		.byte	0
 2444 0105 11       		.uleb128 0x11
 2445 0106 05       		.uleb128 0x5
 2446 0107 00       		.byte	0
 2447 0108 03       		.uleb128 0x3
 2448 0109 08       		.uleb128 0x8
 2449 010a 3A       		.uleb128 0x3a
 2450 010b 0B       		.uleb128 0xb
 2451 010c 3B       		.uleb128 0x3b
 2452 010d 0B       		.uleb128 0xb
 2453 010e 49       		.uleb128 0x49
 2454 010f 13       		.uleb128 0x13
 2455 0110 02       		.uleb128 0x2
 2456 0111 17       		.uleb128 0x17
 2457 0112 00       		.byte	0
 2458 0113 00       		.byte	0
 2459 0114 12       		.uleb128 0x12
 2460 0115 34       		.uleb128 0x34
 2461 0116 00       		.byte	0
 2462 0117 03       		.uleb128 0x3
 2463 0118 0E       		.uleb128 0xe
ARM GAS  C:\Users\744\AppData\Local\Temp\ccnzmzQv.s 			page 64


 2464 0119 3A       		.uleb128 0x3a
 2465 011a 0B       		.uleb128 0xb
 2466 011b 3B       		.uleb128 0x3b
 2467 011c 0B       		.uleb128 0xb
 2468 011d 49       		.uleb128 0x49
 2469 011e 13       		.uleb128 0x13
 2470 011f 02       		.uleb128 0x2
 2471 0120 17       		.uleb128 0x17
 2472 0121 00       		.byte	0
 2473 0122 00       		.byte	0
 2474 0123 13       		.uleb128 0x13
 2475 0124 0F       		.uleb128 0xf
 2476 0125 00       		.byte	0
 2477 0126 0B       		.uleb128 0xb
 2478 0127 0B       		.uleb128 0xb
 2479 0128 49       		.uleb128 0x49
 2480 0129 13       		.uleb128 0x13
 2481 012a 00       		.byte	0
 2482 012b 00       		.byte	0
 2483 012c 14       		.uleb128 0x14
 2484 012d 34       		.uleb128 0x34
 2485 012e 00       		.byte	0
 2486 012f 03       		.uleb128 0x3
 2487 0130 0E       		.uleb128 0xe
 2488 0131 3A       		.uleb128 0x3a
 2489 0132 0B       		.uleb128 0xb
 2490 0133 3B       		.uleb128 0x3b
 2491 0134 0B       		.uleb128 0xb
 2492 0135 49       		.uleb128 0x49
 2493 0136 13       		.uleb128 0x13
 2494 0137 3F       		.uleb128 0x3f
 2495 0138 19       		.uleb128 0x19
 2496 0139 3C       		.uleb128 0x3c
 2497 013a 19       		.uleb128 0x19
 2498 013b 00       		.byte	0
 2499 013c 00       		.byte	0
 2500 013d 15       		.uleb128 0x15
 2501 013e 34       		.uleb128 0x34
 2502 013f 00       		.byte	0
 2503 0140 03       		.uleb128 0x3
 2504 0141 0E       		.uleb128 0xe
 2505 0142 3A       		.uleb128 0x3a
 2506 0143 0B       		.uleb128 0xb
 2507 0144 3B       		.uleb128 0x3b
 2508 0145 0B       		.uleb128 0xb
 2509 0146 49       		.uleb128 0x49
 2510 0147 13       		.uleb128 0x13
 2511 0148 3F       		.uleb128 0x3f
 2512 0149 19       		.uleb128 0x19
 2513 014a 02       		.uleb128 0x2
 2514 014b 18       		.uleb128 0x18
 2515 014c 00       		.byte	0
 2516 014d 00       		.byte	0
 2517 014e 16       		.uleb128 0x16
 2518 014f 2E       		.uleb128 0x2e
 2519 0150 01       		.byte	0x1
 2520 0151 3F       		.uleb128 0x3f
ARM GAS  C:\Users\744\AppData\Local\Temp\ccnzmzQv.s 			page 65


 2521 0152 19       		.uleb128 0x19
 2522 0153 03       		.uleb128 0x3
 2523 0154 0E       		.uleb128 0xe
 2524 0155 3A       		.uleb128 0x3a
 2525 0156 0B       		.uleb128 0xb
 2526 0157 3B       		.uleb128 0x3b
 2527 0158 0B       		.uleb128 0xb
 2528 0159 27       		.uleb128 0x27
 2529 015a 19       		.uleb128 0x19
 2530 015b 3C       		.uleb128 0x3c
 2531 015c 19       		.uleb128 0x19
 2532 015d 01       		.uleb128 0x1
 2533 015e 13       		.uleb128 0x13
 2534 015f 00       		.byte	0
 2535 0160 00       		.byte	0
 2536 0161 17       		.uleb128 0x17
 2537 0162 05       		.uleb128 0x5
 2538 0163 00       		.byte	0
 2539 0164 49       		.uleb128 0x49
 2540 0165 13       		.uleb128 0x13
 2541 0166 00       		.byte	0
 2542 0167 00       		.byte	0
 2543 0168 18       		.uleb128 0x18
 2544 0169 2E       		.uleb128 0x2e
 2545 016a 00       		.byte	0
 2546 016b 3F       		.uleb128 0x3f
 2547 016c 19       		.uleb128 0x19
 2548 016d 03       		.uleb128 0x3
 2549 016e 0E       		.uleb128 0xe
 2550 016f 3A       		.uleb128 0x3a
 2551 0170 0B       		.uleb128 0xb
 2552 0171 3B       		.uleb128 0x3b
 2553 0172 0B       		.uleb128 0xb
 2554 0173 27       		.uleb128 0x27
 2555 0174 19       		.uleb128 0x19
 2556 0175 49       		.uleb128 0x49
 2557 0176 13       		.uleb128 0x13
 2558 0177 3C       		.uleb128 0x3c
 2559 0178 19       		.uleb128 0x19
 2560 0179 00       		.byte	0
 2561 017a 00       		.byte	0
 2562 017b 00       		.byte	0
 2563              		.section	.debug_loc,"",%progbits
 2564              	.Ldebug_loc0:
 2565              	.LLST0:
 2566 0000 00000000 		.4byte	.LVL0
 2567 0004 18000000 		.4byte	.LVL2
 2568 0008 0100     		.2byte	0x1
 2569 000a 50       		.byte	0x50
 2570 000b 18000000 		.4byte	.LVL2
 2571 000f 22000000 		.4byte	.LVL4
 2572 0013 0100     		.2byte	0x1
 2573 0015 54       		.byte	0x54
 2574 0016 22000000 		.4byte	.LVL4
 2575 001a 74000000 		.4byte	.LVL7
 2576 001e 0100     		.2byte	0x1
 2577 0020 50       		.byte	0x50
ARM GAS  C:\Users\744\AppData\Local\Temp\ccnzmzQv.s 			page 66


 2578 0021 78000000 		.4byte	.LVL8
 2579 0025 80000000 		.4byte	.LVL10
 2580 0029 0100     		.2byte	0x1
 2581 002b 50       		.byte	0x50
 2582 002c 86000000 		.4byte	.LVL11
 2583 0030 88000000 		.4byte	.LVL12
 2584 0034 0100     		.2byte	0x1
 2585 0036 50       		.byte	0x50
 2586 0037 8C000000 		.4byte	.LVL13
 2587 003b 8E000000 		.4byte	.LVL14
 2588 003f 0100     		.2byte	0x1
 2589 0041 50       		.byte	0x50
 2590 0042 B2000000 		.4byte	.LVL17
 2591 0046 B4000000 		.4byte	.LVL18
 2592 004a 0100     		.2byte	0x1
 2593 004c 50       		.byte	0x50
 2594 004d B4000000 		.4byte	.LVL18
 2595 0051 B6000000 		.4byte	.LVL19
 2596 0055 0400     		.2byte	0x4
 2597 0057 F3       		.byte	0xf3
 2598 0058 01       		.uleb128 0x1
 2599 0059 50       		.byte	0x50
 2600 005a 9F       		.byte	0x9f
 2601 005b B6000000 		.4byte	.LVL19
 2602 005f B8000000 		.4byte	.LVL20
 2603 0063 0100     		.2byte	0x1
 2604 0065 50       		.byte	0x50
 2605 0066 00000000 		.4byte	0
 2606 006a 00000000 		.4byte	0
 2607              	.LLST1:
 2608 006e 00000000 		.4byte	.LVL0
 2609 0072 1B000000 		.4byte	.LVL3-1
 2610 0076 0100     		.2byte	0x1
 2611 0078 51       		.byte	0x51
 2612 0079 1B000000 		.4byte	.LVL3-1
 2613 007d B2000000 		.4byte	.LVL17
 2614 0081 0100     		.2byte	0x1
 2615 0083 55       		.byte	0x55
 2616 0084 B2000000 		.4byte	.LVL17
 2617 0088 B8000000 		.4byte	.LVL20
 2618 008c 0100     		.2byte	0x1
 2619 008e 51       		.byte	0x51
 2620 008f B8000000 		.4byte	.LVL20
 2621 0093 D8000000 		.4byte	.LFE2
 2622 0097 0400     		.2byte	0x4
 2623 0099 F3       		.byte	0xf3
 2624 009a 01       		.uleb128 0x1
 2625 009b 51       		.byte	0x51
 2626 009c 9F       		.byte	0x9f
 2627 009d 00000000 		.4byte	0
 2628 00a1 00000000 		.4byte	0
 2629              	.LLST2:
 2630 00a5 02000000 		.4byte	.LVL1
 2631 00a9 72000000 		.4byte	.LVL6
 2632 00ad 0200     		.2byte	0x2
 2633 00af 30       		.byte	0x30
 2634 00b0 9F       		.byte	0x9f
ARM GAS  C:\Users\744\AppData\Local\Temp\ccnzmzQv.s 			page 67


 2635 00b1 72000000 		.4byte	.LVL6
 2636 00b5 78000000 		.4byte	.LVL8
 2637 00b9 0200     		.2byte	0x2
 2638 00bb 31       		.byte	0x31
 2639 00bc 9F       		.byte	0x9f
 2640 00bd 78000000 		.4byte	.LVL8
 2641 00c1 7E000000 		.4byte	.LVL9
 2642 00c5 0200     		.2byte	0x2
 2643 00c7 30       		.byte	0x30
 2644 00c8 9F       		.byte	0x9f
 2645 00c9 7E000000 		.4byte	.LVL9
 2646 00cd 86000000 		.4byte	.LVL11
 2647 00d1 0200     		.2byte	0x2
 2648 00d3 31       		.byte	0x31
 2649 00d4 9F       		.byte	0x9f
 2650 00d5 86000000 		.4byte	.LVL11
 2651 00d9 90000000 		.4byte	.LVL15
 2652 00dd 0200     		.2byte	0x2
 2653 00df 30       		.byte	0x30
 2654 00e0 9F       		.byte	0x9f
 2655 00e1 90000000 		.4byte	.LVL15
 2656 00e5 AA000000 		.4byte	.LVL16
 2657 00e9 0100     		.2byte	0x1
 2658 00eb 51       		.byte	0x51
 2659 00ec B2000000 		.4byte	.LVL17
 2660 00f0 B8000000 		.4byte	.LVL20
 2661 00f4 0200     		.2byte	0x2
 2662 00f6 30       		.byte	0x30
 2663 00f7 9F       		.byte	0x9f
 2664 00f8 00000000 		.4byte	0
 2665 00fc 00000000 		.4byte	0
 2666              	.LLST3:
 2667 0100 02000000 		.4byte	.LVL1
 2668 0104 72000000 		.4byte	.LVL6
 2669 0108 0200     		.2byte	0x2
 2670 010a 34       		.byte	0x34
 2671 010b 9F       		.byte	0x9f
 2672 010c 72000000 		.4byte	.LVL6
 2673 0110 78000000 		.4byte	.LVL8
 2674 0114 0200     		.2byte	0x2
 2675 0116 31       		.byte	0x31
 2676 0117 9F       		.byte	0x9f
 2677 0118 78000000 		.4byte	.LVL8
 2678 011c 7E000000 		.4byte	.LVL9
 2679 0120 0200     		.2byte	0x2
 2680 0122 34       		.byte	0x34
 2681 0123 9F       		.byte	0x9f
 2682 0124 7E000000 		.4byte	.LVL9
 2683 0128 86000000 		.4byte	.LVL11
 2684 012c 0400     		.2byte	0x4
 2685 012e 0A       		.byte	0xa
 2686 012f 0001     		.2byte	0x100
 2687 0131 9F       		.byte	0x9f
 2688 0132 86000000 		.4byte	.LVL11
 2689 0136 90000000 		.4byte	.LVL15
 2690 013a 0200     		.2byte	0x2
 2691 013c 34       		.byte	0x34
ARM GAS  C:\Users\744\AppData\Local\Temp\ccnzmzQv.s 			page 68


 2692 013d 9F       		.byte	0x9f
 2693 013e 90000000 		.4byte	.LVL15
 2694 0142 B2000000 		.4byte	.LVL17
 2695 0146 0100     		.2byte	0x1
 2696 0148 50       		.byte	0x50
 2697 0149 B2000000 		.4byte	.LVL17
 2698 014d B8000000 		.4byte	.LVL20
 2699 0151 0200     		.2byte	0x2
 2700 0153 34       		.byte	0x34
 2701 0154 9F       		.byte	0x9f
 2702 0155 B8000000 		.4byte	.LVL20
 2703 0159 D8000000 		.4byte	.LFE2
 2704 015d 0100     		.2byte	0x1
 2705 015f 50       		.byte	0x50
 2706 0160 00000000 		.4byte	0
 2707 0164 00000000 		.4byte	0
 2708              	.LLST4:
 2709 0168 00000000 		.4byte	.LVL21
 2710 016c 48000000 		.4byte	.LVL22
 2711 0170 0200     		.2byte	0x2
 2712 0172 30       		.byte	0x30
 2713 0173 9F       		.byte	0x9f
 2714 0174 48000000 		.4byte	.LVL22
 2715 0178 6A000000 		.4byte	.LVL23
 2716 017c 0100     		.2byte	0x1
 2717 017e 51       		.byte	0x51
 2718 017f 72000000 		.4byte	.LVL24
 2719 0183 74000000 		.4byte	.LVL25
 2720 0187 0200     		.2byte	0x2
 2721 0189 30       		.byte	0x30
 2722 018a 9F       		.byte	0x9f
 2723 018b 00000000 		.4byte	0
 2724 018f 00000000 		.4byte	0
 2725              	.LLST5:
 2726 0193 00000000 		.4byte	.LVL21
 2727 0197 48000000 		.4byte	.LVL22
 2728 019b 0200     		.2byte	0x2
 2729 019d 34       		.byte	0x34
 2730 019e 9F       		.byte	0x9f
 2731 019f 48000000 		.4byte	.LVL22
 2732 01a3 72000000 		.4byte	.LVL24
 2733 01a7 0100     		.2byte	0x1
 2734 01a9 50       		.byte	0x50
 2735 01aa 72000000 		.4byte	.LVL24
 2736 01ae 74000000 		.4byte	.LVL25
 2737 01b2 0200     		.2byte	0x2
 2738 01b4 34       		.byte	0x34
 2739 01b5 9F       		.byte	0x9f
 2740 01b6 74000000 		.4byte	.LVL25
 2741 01ba 8C000000 		.4byte	.LFE4
 2742 01be 0100     		.2byte	0x1
 2743 01c0 50       		.byte	0x50
 2744 01c1 00000000 		.4byte	0
 2745 01c5 00000000 		.4byte	0
 2746              	.LLST6:
 2747 01c9 00000000 		.4byte	.LVL26
 2748 01cd 28000000 		.4byte	.LVL28
ARM GAS  C:\Users\744\AppData\Local\Temp\ccnzmzQv.s 			page 69


 2749 01d1 0100     		.2byte	0x1
 2750 01d3 50       		.byte	0x50
 2751 01d4 28000000 		.4byte	.LVL28
 2752 01d8 2C000000 		.4byte	.LVL29
 2753 01dc 0400     		.2byte	0x4
 2754 01de F3       		.byte	0xf3
 2755 01df 01       		.uleb128 0x1
 2756 01e0 50       		.byte	0x50
 2757 01e1 9F       		.byte	0x9f
 2758 01e2 2C000000 		.4byte	.LVL29
 2759 01e6 3C000000 		.4byte	.LVL31
 2760 01ea 0100     		.2byte	0x1
 2761 01ec 50       		.byte	0x50
 2762 01ed 3C000000 		.4byte	.LVL31
 2763 01f1 40000000 		.4byte	.LVL32
 2764 01f5 0400     		.2byte	0x4
 2765 01f7 F3       		.byte	0xf3
 2766 01f8 01       		.uleb128 0x1
 2767 01f9 50       		.byte	0x50
 2768 01fa 9F       		.byte	0x9f
 2769 01fb 40000000 		.4byte	.LVL32
 2770 01ff 50000000 		.4byte	.LVL34
 2771 0203 0100     		.2byte	0x1
 2772 0205 50       		.byte	0x50
 2773 0206 50000000 		.4byte	.LVL34
 2774 020a 54000000 		.4byte	.LVL35
 2775 020e 0400     		.2byte	0x4
 2776 0210 F3       		.byte	0xf3
 2777 0211 01       		.uleb128 0x1
 2778 0212 50       		.byte	0x50
 2779 0213 9F       		.byte	0x9f
 2780 0214 54000000 		.4byte	.LVL35
 2781 0218 5C000000 		.4byte	.LVL37
 2782 021c 0100     		.2byte	0x1
 2783 021e 50       		.byte	0x50
 2784 021f 5C000000 		.4byte	.LVL37
 2785 0223 82000000 		.4byte	.LVL40
 2786 0227 0400     		.2byte	0x4
 2787 0229 F3       		.byte	0xf3
 2788 022a 01       		.uleb128 0x1
 2789 022b 50       		.byte	0x50
 2790 022c 9F       		.byte	0x9f
 2791 022d 82000000 		.4byte	.LVL40
 2792 0231 84000000 		.4byte	.LVL41
 2793 0235 0100     		.2byte	0x1
 2794 0237 50       		.byte	0x50
 2795 0238 84000000 		.4byte	.LVL41
 2796 023c 98000000 		.4byte	.LFE5
 2797 0240 0400     		.2byte	0x4
 2798 0242 F3       		.byte	0xf3
 2799 0243 01       		.uleb128 0x1
 2800 0244 50       		.byte	0x50
 2801 0245 9F       		.byte	0x9f
 2802 0246 00000000 		.4byte	0
 2803 024a 00000000 		.4byte	0
 2804              	.LLST7:
 2805 024e 00000000 		.4byte	.LVL26
ARM GAS  C:\Users\744\AppData\Local\Temp\ccnzmzQv.s 			page 70


 2806 0252 4E000000 		.4byte	.LVL33
 2807 0256 0200     		.2byte	0x2
 2808 0258 30       		.byte	0x30
 2809 0259 9F       		.byte	0x9f
 2810 025a 4E000000 		.4byte	.LVL33
 2811 025e 54000000 		.4byte	.LVL35
 2812 0262 0200     		.2byte	0x2
 2813 0264 31       		.byte	0x31
 2814 0265 9F       		.byte	0x9f
 2815 0266 54000000 		.4byte	.LVL35
 2816 026a 5A000000 		.4byte	.LVL36
 2817 026e 0200     		.2byte	0x2
 2818 0270 30       		.byte	0x30
 2819 0271 9F       		.byte	0x9f
 2820 0272 5A000000 		.4byte	.LVL36
 2821 0276 60000000 		.4byte	.LVL38
 2822 027a 0200     		.2byte	0x2
 2823 027c 31       		.byte	0x31
 2824 027d 9F       		.byte	0x9f
 2825 027e 60000000 		.4byte	.LVL38
 2826 0282 7A000000 		.4byte	.LVL39
 2827 0286 0100     		.2byte	0x1
 2828 0288 51       		.byte	0x51
 2829 0289 82000000 		.4byte	.LVL40
 2830 028d 84000000 		.4byte	.LVL41
 2831 0291 0200     		.2byte	0x2
 2832 0293 30       		.byte	0x30
 2833 0294 9F       		.byte	0x9f
 2834 0295 00000000 		.4byte	0
 2835 0299 00000000 		.4byte	0
 2836              	.LLST8:
 2837 029d 00000000 		.4byte	.LVL26
 2838 02a1 26000000 		.4byte	.LVL27
 2839 02a5 0200     		.2byte	0x2
 2840 02a7 34       		.byte	0x34
 2841 02a8 9F       		.byte	0x9f
 2842 02a9 26000000 		.4byte	.LVL27
 2843 02ad 2C000000 		.4byte	.LVL29
 2844 02b1 0200     		.2byte	0x2
 2845 02b3 30       		.byte	0x30
 2846 02b4 9F       		.byte	0x9f
 2847 02b5 2C000000 		.4byte	.LVL29
 2848 02b9 3A000000 		.4byte	.LVL30
 2849 02bd 0200     		.2byte	0x2
 2850 02bf 34       		.byte	0x34
 2851 02c0 9F       		.byte	0x9f
 2852 02c1 3A000000 		.4byte	.LVL30
 2853 02c5 40000000 		.4byte	.LVL32
 2854 02c9 0200     		.2byte	0x2
 2855 02cb 32       		.byte	0x32
 2856 02cc 9F       		.byte	0x9f
 2857 02cd 40000000 		.4byte	.LVL32
 2858 02d1 4E000000 		.4byte	.LVL33
 2859 02d5 0200     		.2byte	0x2
 2860 02d7 34       		.byte	0x34
 2861 02d8 9F       		.byte	0x9f
 2862 02d9 4E000000 		.4byte	.LVL33
ARM GAS  C:\Users\744\AppData\Local\Temp\ccnzmzQv.s 			page 71


 2863 02dd 54000000 		.4byte	.LVL35
 2864 02e1 0200     		.2byte	0x2
 2865 02e3 31       		.byte	0x31
 2866 02e4 9F       		.byte	0x9f
 2867 02e5 54000000 		.4byte	.LVL35
 2868 02e9 5A000000 		.4byte	.LVL36
 2869 02ed 0200     		.2byte	0x2
 2870 02ef 34       		.byte	0x34
 2871 02f0 9F       		.byte	0x9f
 2872 02f1 5A000000 		.4byte	.LVL36
 2873 02f5 60000000 		.4byte	.LVL38
 2874 02f9 0400     		.2byte	0x4
 2875 02fb 0A       		.byte	0xa
 2876 02fc 0001     		.2byte	0x100
 2877 02fe 9F       		.byte	0x9f
 2878 02ff 60000000 		.4byte	.LVL38
 2879 0303 82000000 		.4byte	.LVL40
 2880 0307 0100     		.2byte	0x1
 2881 0309 50       		.byte	0x50
 2882 030a 82000000 		.4byte	.LVL40
 2883 030e 84000000 		.4byte	.LVL41
 2884 0312 0200     		.2byte	0x2
 2885 0314 34       		.byte	0x34
 2886 0315 9F       		.byte	0x9f
 2887 0316 84000000 		.4byte	.LVL41
 2888 031a 98000000 		.4byte	.LFE5
 2889 031e 0100     		.2byte	0x1
 2890 0320 50       		.byte	0x50
 2891 0321 00000000 		.4byte	0
 2892 0325 00000000 		.4byte	0
 2893              	.LLST9:
 2894 0329 00000000 		.4byte	.LVL42
 2895 032d 2A000000 		.4byte	.LVL44
 2896 0331 0100     		.2byte	0x1
 2897 0333 50       		.byte	0x50
 2898 0334 2A000000 		.4byte	.LVL44
 2899 0338 42000000 		.4byte	.LVL45
 2900 033c 0100     		.2byte	0x1
 2901 033e 51       		.byte	0x51
 2902 033f 42000000 		.4byte	.LVL45
 2903 0343 5E000000 		.4byte	.LVL46
 2904 0347 0100     		.2byte	0x1
 2905 0349 50       		.byte	0x50
 2906 034a 5E000000 		.4byte	.LVL46
 2907 034e 62000000 		.4byte	.LVL47
 2908 0352 0400     		.2byte	0x4
 2909 0354 F3       		.byte	0xf3
 2910 0355 01       		.uleb128 0x1
 2911 0356 50       		.byte	0x50
 2912 0357 9F       		.byte	0x9f
 2913 0358 62000000 		.4byte	.LVL47
 2914 035c 64000000 		.4byte	.LVL48
 2915 0360 0100     		.2byte	0x1
 2916 0362 50       		.byte	0x50
 2917 0363 64000000 		.4byte	.LVL48
 2918 0367 66000000 		.4byte	.LVL49
 2919 036b 0100     		.2byte	0x1
ARM GAS  C:\Users\744\AppData\Local\Temp\ccnzmzQv.s 			page 72


 2920 036d 51       		.byte	0x51
 2921 036e 66000000 		.4byte	.LVL49
 2922 0372 84000000 		.4byte	.LFE6
 2923 0376 0400     		.2byte	0x4
 2924 0378 F3       		.byte	0xf3
 2925 0379 01       		.uleb128 0x1
 2926 037a 50       		.byte	0x50
 2927 037b 9F       		.byte	0x9f
 2928 037c 00000000 		.4byte	0
 2929 0380 00000000 		.4byte	0
 2930              	.LLST10:
 2931 0384 02000000 		.4byte	.LVL43
 2932 0388 2A000000 		.4byte	.LVL44
 2933 038c 0300     		.2byte	0x3
 2934 038e 09       		.byte	0x9
 2935 038f FF       		.byte	0xff
 2936 0390 9F       		.byte	0x9f
 2937 0391 2A000000 		.4byte	.LVL44
 2938 0395 42000000 		.4byte	.LVL45
 2939 0399 0100     		.2byte	0x1
 2940 039b 50       		.byte	0x50
 2941 039c 42000000 		.4byte	.LVL45
 2942 03a0 66000000 		.4byte	.LVL49
 2943 03a4 0300     		.2byte	0x3
 2944 03a6 09       		.byte	0x9
 2945 03a7 FF       		.byte	0xff
 2946 03a8 9F       		.byte	0x9f
 2947 03a9 66000000 		.4byte	.LVL49
 2948 03ad 84000000 		.4byte	.LFE6
 2949 03b1 0100     		.2byte	0x1
 2950 03b3 50       		.byte	0x50
 2951 03b4 00000000 		.4byte	0
 2952 03b8 00000000 		.4byte	0
 2953              	.LLST11:
 2954 03bc 10000000 		.4byte	.LVL55
 2955 03c0 1C000000 		.4byte	.LVL56
 2956 03c4 0100     		.2byte	0x1
 2957 03c6 53       		.byte	0x53
 2958 03c7 1C000000 		.4byte	.LVL56
 2959 03cb 24000000 		.4byte	.LVL58
 2960 03cf 0100     		.2byte	0x1
 2961 03d1 54       		.byte	0x54
 2962 03d2 24000000 		.4byte	.LVL58
 2963 03d6 30000000 		.4byte	.LFE11
 2964 03da 0100     		.2byte	0x1
 2965 03dc 50       		.byte	0x50
 2966 03dd 00000000 		.4byte	0
 2967 03e1 00000000 		.4byte	0
 2968              	.LLST12:
 2969 03e5 0E000000 		.4byte	.LVL60
 2970 03e9 1A000000 		.4byte	.LVL62
 2971 03ed 0100     		.2byte	0x1
 2972 03ef 54       		.byte	0x54
 2973 03f0 1A000000 		.4byte	.LVL62
 2974 03f4 20000000 		.4byte	.LFE12
 2975 03f8 0100     		.2byte	0x1
 2976 03fa 50       		.byte	0x50
ARM GAS  C:\Users\744\AppData\Local\Temp\ccnzmzQv.s 			page 73


 2977 03fb 00000000 		.4byte	0
 2978 03ff 00000000 		.4byte	0
 2979              	.LLST13:
 2980 0403 06000000 		.4byte	.LVL63
 2981 0407 80000000 		.4byte	.LVL74
 2982 040b 0100     		.2byte	0x1
 2983 040d 54       		.byte	0x54
 2984 040e 00000000 		.4byte	0
 2985 0412 00000000 		.4byte	0
 2986              	.LLST14:
 2987 0416 00000000 		.4byte	.LVL75
 2988 041a 1A000000 		.4byte	.LVL78
 2989 041e 0100     		.2byte	0x1
 2990 0420 50       		.byte	0x50
 2991 0421 1A000000 		.4byte	.LVL78
 2992 0425 2E000000 		.4byte	.LVL81
 2993 0429 0200     		.2byte	0x2
 2994 042b 91       		.byte	0x91
 2995 042c 64       		.sleb128 -28
 2996 042d 2E000000 		.4byte	.LVL81
 2997 0431 4A000000 		.4byte	.LVL87
 2998 0435 0100     		.2byte	0x1
 2999 0437 50       		.byte	0x50
 3000 0438 4A000000 		.4byte	.LVL87
 3001 043c 74000000 		.4byte	.LVL89
 3002 0440 0200     		.2byte	0x2
 3003 0442 91       		.byte	0x91
 3004 0443 64       		.sleb128 -28
 3005 0444 74000000 		.4byte	.LVL89
 3006 0448 A6000000 		.4byte	.LVL92
 3007 044c 0100     		.2byte	0x1
 3008 044e 54       		.byte	0x54
 3009 044f 00000000 		.4byte	0
 3010 0453 00000000 		.4byte	0
 3011              	.LLST15:
 3012 0457 00000000 		.4byte	.LVL75
 3013 045b 1D000000 		.4byte	.LVL79-1
 3014 045f 0100     		.2byte	0x1
 3015 0461 51       		.byte	0x51
 3016 0462 1D000000 		.4byte	.LVL79-1
 3017 0466 2E000000 		.4byte	.LVL81
 3018 046a 0100     		.2byte	0x1
 3019 046c 54       		.byte	0x54
 3020 046d 2E000000 		.4byte	.LVL81
 3021 0471 3C000000 		.4byte	.LVL83
 3022 0475 0100     		.2byte	0x1
 3023 0477 51       		.byte	0x51
 3024 0478 3C000000 		.4byte	.LVL83
 3025 047c 44000000 		.4byte	.LVL85
 3026 0480 0100     		.2byte	0x1
 3027 0482 54       		.byte	0x54
 3028 0483 44000000 		.4byte	.LVL85
 3029 0487 4A000000 		.4byte	.LVL87
 3030 048b 0100     		.2byte	0x1
 3031 048d 51       		.byte	0x51
 3032 048e 4A000000 		.4byte	.LVL87
 3033 0492 70000000 		.4byte	.LVL88
ARM GAS  C:\Users\744\AppData\Local\Temp\ccnzmzQv.s 			page 74


 3034 0496 0100     		.2byte	0x1
 3035 0498 54       		.byte	0x54
 3036 0499 70000000 		.4byte	.LVL88
 3037 049d 84000000 		.4byte	.LVL90
 3038 04a1 0500     		.2byte	0x5
 3039 04a3 03       		.byte	0x3
 3040 04a4 00000000 		.4byte	I2C_mstrWrBufPtr
 3041 04a8 84000000 		.4byte	.LVL90
 3042 04ac EC000000 		.4byte	.LFE0
 3043 04b0 0400     		.2byte	0x4
 3044 04b2 F3       		.byte	0xf3
 3045 04b3 01       		.uleb128 0x1
 3046 04b4 51       		.byte	0x51
 3047 04b5 9F       		.byte	0x9f
 3048 04b6 00000000 		.4byte	0
 3049 04ba 00000000 		.4byte	0
 3050              	.LLST16:
 3051 04be 00000000 		.4byte	.LVL75
 3052 04c2 1D000000 		.4byte	.LVL79-1
 3053 04c6 0100     		.2byte	0x1
 3054 04c8 52       		.byte	0x52
 3055 04c9 1D000000 		.4byte	.LVL79-1
 3056 04cd 2E000000 		.4byte	.LVL81
 3057 04d1 0100     		.2byte	0x1
 3058 04d3 57       		.byte	0x57
 3059 04d4 2E000000 		.4byte	.LVL81
 3060 04d8 38000000 		.4byte	.LVL82
 3061 04dc 0100     		.2byte	0x1
 3062 04de 52       		.byte	0x52
 3063 04df 38000000 		.4byte	.LVL82
 3064 04e3 44000000 		.4byte	.LVL85
 3065 04e7 0100     		.2byte	0x1
 3066 04e9 57       		.byte	0x57
 3067 04ea 44000000 		.4byte	.LVL85
 3068 04ee 4A000000 		.4byte	.LVL87
 3069 04f2 0100     		.2byte	0x1
 3070 04f4 52       		.byte	0x52
 3071 04f5 4A000000 		.4byte	.LVL87
 3072 04f9 B0000000 		.4byte	.LVL96
 3073 04fd 0100     		.2byte	0x1
 3074 04ff 57       		.byte	0x57
 3075 0500 B0000000 		.4byte	.LVL96
 3076 0504 EC000000 		.4byte	.LFE0
 3077 0508 0400     		.2byte	0x4
 3078 050a F3       		.byte	0xf3
 3079 050b 01       		.uleb128 0x1
 3080 050c 52       		.byte	0x52
 3081 050d 9F       		.byte	0x9f
 3082 050e 00000000 		.4byte	0
 3083 0512 00000000 		.4byte	0
 3084              	.LLST17:
 3085 0516 00000000 		.4byte	.LVL75
 3086 051a 12000000 		.4byte	.LVL77
 3087 051e 0100     		.2byte	0x1
 3088 0520 53       		.byte	0x53
 3089 0521 12000000 		.4byte	.LVL77
 3090 0525 44000000 		.4byte	.LVL85
ARM GAS  C:\Users\744\AppData\Local\Temp\ccnzmzQv.s 			page 75


 3091 0529 0100     		.2byte	0x1
 3092 052b 55       		.byte	0x55
 3093 052c 44000000 		.4byte	.LVL85
 3094 0530 48000000 		.4byte	.LVL86
 3095 0534 0100     		.2byte	0x1
 3096 0536 53       		.byte	0x53
 3097 0537 48000000 		.4byte	.LVL86
 3098 053b B0000000 		.4byte	.LVL94
 3099 053f 0100     		.2byte	0x1
 3100 0541 55       		.byte	0x55
 3101 0542 B0000000 		.4byte	.LVL94
 3102 0546 EC000000 		.4byte	.LFE0
 3103 054a 0400     		.2byte	0x4
 3104 054c F3       		.byte	0xf3
 3105 054d 01       		.uleb128 0x1
 3106 054e 53       		.byte	0x53
 3107 054f 9F       		.byte	0x9f
 3108 0550 00000000 		.4byte	0
 3109 0554 00000000 		.4byte	0
 3110              	.LLST18:
 3111 0558 0C000000 		.4byte	.LVL76
 3112 055c 2C000000 		.4byte	.LVL80
 3113 0560 0200     		.2byte	0x2
 3114 0562 34       		.byte	0x34
 3115 0563 9F       		.byte	0x9f
 3116 0564 2C000000 		.4byte	.LVL80
 3117 0568 2E000000 		.4byte	.LVL81
 3118 056c 0200     		.2byte	0x2
 3119 056e 30       		.byte	0x30
 3120 056f 9F       		.byte	0x9f
 3121 0570 2E000000 		.4byte	.LVL81
 3122 0574 40000000 		.4byte	.LVL84
 3123 0578 0200     		.2byte	0x2
 3124 057a 34       		.byte	0x34
 3125 057b 9F       		.byte	0x9f
 3126 057c 40000000 		.4byte	.LVL84
 3127 0580 44000000 		.4byte	.LVL85
 3128 0584 0200     		.2byte	0x2
 3129 0586 30       		.byte	0x30
 3130 0587 9F       		.byte	0x9f
 3131 0588 44000000 		.4byte	.LVL85
 3132 058c 4A000000 		.4byte	.LVL87
 3133 0590 0200     		.2byte	0x2
 3134 0592 34       		.byte	0x34
 3135 0593 9F       		.byte	0x9f
 3136 0594 4A000000 		.4byte	.LVL87
 3137 0598 B0000000 		.4byte	.LVL95
 3138 059c 0100     		.2byte	0x1
 3139 059e 56       		.byte	0x56
 3140 059f B0000000 		.4byte	.LVL95
 3141 05a3 EC000000 		.4byte	.LFE0
 3142 05a7 0100     		.2byte	0x1
 3143 05a9 50       		.byte	0x50
 3144 05aa 00000000 		.4byte	0
 3145 05ae 00000000 		.4byte	0
 3146              	.LLST19:
 3147 05b2 00000000 		.4byte	.LVL97
ARM GAS  C:\Users\744\AppData\Local\Temp\ccnzmzQv.s 			page 76


 3148 05b6 1A000000 		.4byte	.LVL100
 3149 05ba 0100     		.2byte	0x1
 3150 05bc 50       		.byte	0x50
 3151 05bd 1A000000 		.4byte	.LVL100
 3152 05c1 2E000000 		.4byte	.LVL103
 3153 05c5 0200     		.2byte	0x2
 3154 05c7 91       		.byte	0x91
 3155 05c8 64       		.sleb128 -28
 3156 05c9 2E000000 		.4byte	.LVL103
 3157 05cd 4A000000 		.4byte	.LVL109
 3158 05d1 0100     		.2byte	0x1
 3159 05d3 50       		.byte	0x50
 3160 05d4 4A000000 		.4byte	.LVL109
 3161 05d8 74000000 		.4byte	.LVL111
 3162 05dc 0200     		.2byte	0x2
 3163 05de 91       		.byte	0x91
 3164 05df 64       		.sleb128 -28
 3165 05e0 74000000 		.4byte	.LVL111
 3166 05e4 BA000000 		.4byte	.LVL114
 3167 05e8 0100     		.2byte	0x1
 3168 05ea 54       		.byte	0x54
 3169 05eb 00000000 		.4byte	0
 3170 05ef 00000000 		.4byte	0
 3171              	.LLST20:
 3172 05f3 00000000 		.4byte	.LVL97
 3173 05f7 1D000000 		.4byte	.LVL101-1
 3174 05fb 0100     		.2byte	0x1
 3175 05fd 51       		.byte	0x51
 3176 05fe 1D000000 		.4byte	.LVL101-1
 3177 0602 2E000000 		.4byte	.LVL103
 3178 0606 0100     		.2byte	0x1
 3179 0608 54       		.byte	0x54
 3180 0609 2E000000 		.4byte	.LVL103
 3181 060d 3C000000 		.4byte	.LVL105
 3182 0611 0100     		.2byte	0x1
 3183 0613 51       		.byte	0x51
 3184 0614 3C000000 		.4byte	.LVL105
 3185 0618 44000000 		.4byte	.LVL107
 3186 061c 0100     		.2byte	0x1
 3187 061e 54       		.byte	0x54
 3188 061f 44000000 		.4byte	.LVL107
 3189 0623 4A000000 		.4byte	.LVL109
 3190 0627 0100     		.2byte	0x1
 3191 0629 51       		.byte	0x51
 3192 062a 4A000000 		.4byte	.LVL109
 3193 062e 6C000000 		.4byte	.LVL110
 3194 0632 0100     		.2byte	0x1
 3195 0634 54       		.byte	0x54
 3196 0635 6C000000 		.4byte	.LVL110
 3197 0639 82000000 		.4byte	.LVL112
 3198 063d 0500     		.2byte	0x5
 3199 063f 03       		.byte	0x3
 3200 0640 00000000 		.4byte	I2C_mstrRdBufPtr
 3201 0644 82000000 		.4byte	.LVL112
 3202 0648 FC000000 		.4byte	.LFE1
 3203 064c 0400     		.2byte	0x4
 3204 064e F3       		.byte	0xf3
ARM GAS  C:\Users\744\AppData\Local\Temp\ccnzmzQv.s 			page 77


 3205 064f 01       		.uleb128 0x1
 3206 0650 51       		.byte	0x51
 3207 0651 9F       		.byte	0x9f
 3208 0652 00000000 		.4byte	0
 3209 0656 00000000 		.4byte	0
 3210              	.LLST21:
 3211 065a 00000000 		.4byte	.LVL97
 3212 065e 1D000000 		.4byte	.LVL101-1
 3213 0662 0100     		.2byte	0x1
 3214 0664 52       		.byte	0x52
 3215 0665 1D000000 		.4byte	.LVL101-1
 3216 0669 2E000000 		.4byte	.LVL103
 3217 066d 0100     		.2byte	0x1
 3218 066f 57       		.byte	0x57
 3219 0670 2E000000 		.4byte	.LVL103
 3220 0674 38000000 		.4byte	.LVL104
 3221 0678 0100     		.2byte	0x1
 3222 067a 52       		.byte	0x52
 3223 067b 38000000 		.4byte	.LVL104
 3224 067f 44000000 		.4byte	.LVL107
 3225 0683 0100     		.2byte	0x1
 3226 0685 57       		.byte	0x57
 3227 0686 44000000 		.4byte	.LVL107
 3228 068a 4A000000 		.4byte	.LVL109
 3229 068e 0100     		.2byte	0x1
 3230 0690 52       		.byte	0x52
 3231 0691 4A000000 		.4byte	.LVL109
 3232 0695 C4000000 		.4byte	.LVL118
 3233 0699 0100     		.2byte	0x1
 3234 069b 57       		.byte	0x57
 3235 069c C4000000 		.4byte	.LVL118
 3236 06a0 FC000000 		.4byte	.LFE1
 3237 06a4 0400     		.2byte	0x4
 3238 06a6 F3       		.byte	0xf3
 3239 06a7 01       		.uleb128 0x1
 3240 06a8 52       		.byte	0x52
 3241 06a9 9F       		.byte	0x9f
 3242 06aa 00000000 		.4byte	0
 3243 06ae 00000000 		.4byte	0
 3244              	.LLST22:
 3245 06b2 00000000 		.4byte	.LVL97
 3246 06b6 12000000 		.4byte	.LVL99
 3247 06ba 0100     		.2byte	0x1
 3248 06bc 53       		.byte	0x53
 3249 06bd 12000000 		.4byte	.LVL99
 3250 06c1 44000000 		.4byte	.LVL107
 3251 06c5 0100     		.2byte	0x1
 3252 06c7 55       		.byte	0x55
 3253 06c8 44000000 		.4byte	.LVL107
 3254 06cc 48000000 		.4byte	.LVL108
 3255 06d0 0100     		.2byte	0x1
 3256 06d2 53       		.byte	0x53
 3257 06d3 48000000 		.4byte	.LVL108
 3258 06d7 C4000000 		.4byte	.LVL116
 3259 06db 0100     		.2byte	0x1
 3260 06dd 55       		.byte	0x55
 3261 06de C4000000 		.4byte	.LVL116
ARM GAS  C:\Users\744\AppData\Local\Temp\ccnzmzQv.s 			page 78


 3262 06e2 FC000000 		.4byte	.LFE1
 3263 06e6 0400     		.2byte	0x4
 3264 06e8 F3       		.byte	0xf3
 3265 06e9 01       		.uleb128 0x1
 3266 06ea 53       		.byte	0x53
 3267 06eb 9F       		.byte	0x9f
 3268 06ec 00000000 		.4byte	0
 3269 06f0 00000000 		.4byte	0
 3270              	.LLST23:
 3271 06f4 0C000000 		.4byte	.LVL98
 3272 06f8 2C000000 		.4byte	.LVL102
 3273 06fc 0200     		.2byte	0x2
 3274 06fe 34       		.byte	0x34
 3275 06ff 9F       		.byte	0x9f
 3276 0700 2C000000 		.4byte	.LVL102
 3277 0704 2E000000 		.4byte	.LVL103
 3278 0708 0200     		.2byte	0x2
 3279 070a 30       		.byte	0x30
 3280 070b 9F       		.byte	0x9f
 3281 070c 2E000000 		.4byte	.LVL103
 3282 0710 40000000 		.4byte	.LVL106
 3283 0714 0200     		.2byte	0x2
 3284 0716 34       		.byte	0x34
 3285 0717 9F       		.byte	0x9f
 3286 0718 40000000 		.4byte	.LVL106
 3287 071c 44000000 		.4byte	.LVL107
 3288 0720 0200     		.2byte	0x2
 3289 0722 30       		.byte	0x30
 3290 0723 9F       		.byte	0x9f
 3291 0724 44000000 		.4byte	.LVL107
 3292 0728 4A000000 		.4byte	.LVL109
 3293 072c 0200     		.2byte	0x2
 3294 072e 34       		.byte	0x34
 3295 072f 9F       		.byte	0x9f
 3296 0730 4A000000 		.4byte	.LVL109
 3297 0734 C4000000 		.4byte	.LVL117
 3298 0738 0100     		.2byte	0x1
 3299 073a 56       		.byte	0x56
 3300 073b C4000000 		.4byte	.LVL117
 3301 073f FC000000 		.4byte	.LFE1
 3302 0743 0100     		.2byte	0x1
 3303 0745 50       		.byte	0x50
 3304 0746 00000000 		.4byte	0
 3305 074a 00000000 		.4byte	0
 3306              	.LLST24:
 3307 074e 00000000 		.4byte	.LVL119
 3308 0752 0C000000 		.4byte	.LVL121
 3309 0756 0100     		.2byte	0x1
 3310 0758 50       		.byte	0x50
 3311 0759 0C000000 		.4byte	.LVL121
 3312 075d 10000000 		.4byte	.LVL122
 3313 0761 0400     		.2byte	0x4
 3314 0763 F3       		.byte	0xf3
 3315 0764 01       		.uleb128 0x1
 3316 0765 50       		.byte	0x50
 3317 0766 9F       		.byte	0x9f
 3318 0767 10000000 		.4byte	.LVL122
ARM GAS  C:\Users\744\AppData\Local\Temp\ccnzmzQv.s 			page 79


 3319 076b A6000000 		.4byte	.LVL131
 3320 076f 0100     		.2byte	0x1
 3321 0771 54       		.byte	0x54
 3322 0772 A6000000 		.4byte	.LVL131
 3323 0776 A8000000 		.4byte	.LVL132
 3324 077a 0100     		.2byte	0x1
 3325 077c 50       		.byte	0x50
 3326 077d 00000000 		.4byte	0
 3327 0781 00000000 		.4byte	0
 3328              	.LLST25:
 3329 0785 00000000 		.4byte	.LVL119
 3330 0789 2F000000 		.4byte	.LVL124-1
 3331 078d 0100     		.2byte	0x1
 3332 078f 51       		.byte	0x51
 3333 0790 2F000000 		.4byte	.LVL124-1
 3334 0794 A6000000 		.4byte	.LVL131
 3335 0798 0400     		.2byte	0x4
 3336 079a F3       		.byte	0xf3
 3337 079b 01       		.uleb128 0x1
 3338 079c 51       		.byte	0x51
 3339 079d 9F       		.byte	0x9f
 3340 079e A6000000 		.4byte	.LVL131
 3341 07a2 A8000000 		.4byte	.LVL132
 3342 07a6 0100     		.2byte	0x1
 3343 07a8 51       		.byte	0x51
 3344 07a9 A8000000 		.4byte	.LVL132
 3345 07ad C4000000 		.4byte	.LFE3
 3346 07b1 0400     		.2byte	0x4
 3347 07b3 F3       		.byte	0xf3
 3348 07b4 01       		.uleb128 0x1
 3349 07b5 51       		.byte	0x51
 3350 07b6 9F       		.byte	0x9f
 3351 07b7 00000000 		.4byte	0
 3352 07bb 00000000 		.4byte	0
 3353              	.LLST26:
 3354 07bf 02000000 		.4byte	.LVL120
 3355 07c3 66000000 		.4byte	.LVL125
 3356 07c7 0200     		.2byte	0x2
 3357 07c9 30       		.byte	0x30
 3358 07ca 9F       		.byte	0x9f
 3359 07cb 66000000 		.4byte	.LVL125
 3360 07cf 6C000000 		.4byte	.LVL126
 3361 07d3 0200     		.2byte	0x2
 3362 07d5 31       		.byte	0x31
 3363 07d6 9F       		.byte	0x9f
 3364 07d7 6C000000 		.4byte	.LVL126
 3365 07db 72000000 		.4byte	.LVL127
 3366 07df 0200     		.2byte	0x2
 3367 07e1 30       		.byte	0x30
 3368 07e2 9F       		.byte	0x9f
 3369 07e3 72000000 		.4byte	.LVL127
 3370 07e7 7A000000 		.4byte	.LVL128
 3371 07eb 0200     		.2byte	0x2
 3372 07ed 31       		.byte	0x31
 3373 07ee 9F       		.byte	0x9f
 3374 07ef 7A000000 		.4byte	.LVL128
 3375 07f3 84000000 		.4byte	.LVL129
ARM GAS  C:\Users\744\AppData\Local\Temp\ccnzmzQv.s 			page 80


 3376 07f7 0200     		.2byte	0x2
 3377 07f9 30       		.byte	0x30
 3378 07fa 9F       		.byte	0x9f
 3379 07fb 84000000 		.4byte	.LVL129
 3380 07ff 9E000000 		.4byte	.LVL130
 3381 0803 0100     		.2byte	0x1
 3382 0805 51       		.byte	0x51
 3383 0806 A6000000 		.4byte	.LVL131
 3384 080a A8000000 		.4byte	.LVL132
 3385 080e 0200     		.2byte	0x2
 3386 0810 30       		.byte	0x30
 3387 0811 9F       		.byte	0x9f
 3388 0812 00000000 		.4byte	0
 3389 0816 00000000 		.4byte	0
 3390              	.LLST27:
 3391 081a 02000000 		.4byte	.LVL120
 3392 081e 66000000 		.4byte	.LVL125
 3393 0822 0200     		.2byte	0x2
 3394 0824 34       		.byte	0x34
 3395 0825 9F       		.byte	0x9f
 3396 0826 66000000 		.4byte	.LVL125
 3397 082a 6C000000 		.4byte	.LVL126
 3398 082e 0200     		.2byte	0x2
 3399 0830 31       		.byte	0x31
 3400 0831 9F       		.byte	0x9f
 3401 0832 6C000000 		.4byte	.LVL126
 3402 0836 72000000 		.4byte	.LVL127
 3403 083a 0200     		.2byte	0x2
 3404 083c 34       		.byte	0x34
 3405 083d 9F       		.byte	0x9f
 3406 083e 72000000 		.4byte	.LVL127
 3407 0842 7A000000 		.4byte	.LVL128
 3408 0846 0400     		.2byte	0x4
 3409 0848 0A       		.byte	0xa
 3410 0849 0001     		.2byte	0x100
 3411 084b 9F       		.byte	0x9f
 3412 084c 7A000000 		.4byte	.LVL128
 3413 0850 84000000 		.4byte	.LVL129
 3414 0854 0200     		.2byte	0x2
 3415 0856 34       		.byte	0x34
 3416 0857 9F       		.byte	0x9f
 3417 0858 84000000 		.4byte	.LVL129
 3418 085c A6000000 		.4byte	.LVL131
 3419 0860 0100     		.2byte	0x1
 3420 0862 50       		.byte	0x50
 3421 0863 A6000000 		.4byte	.LVL131
 3422 0867 A8000000 		.4byte	.LVL132
 3423 086b 0200     		.2byte	0x2
 3424 086d 34       		.byte	0x34
 3425 086e 9F       		.byte	0x9f
 3426 086f A8000000 		.4byte	.LVL132
 3427 0873 C4000000 		.4byte	.LFE3
 3428 0877 0100     		.2byte	0x1
 3429 0879 50       		.byte	0x50
 3430 087a 00000000 		.4byte	0
 3431 087e 00000000 		.4byte	0
 3432              		.section	.debug_aranges,"",%progbits
ARM GAS  C:\Users\744\AppData\Local\Temp\ccnzmzQv.s 			page 81


 3433 0000 84000000 		.4byte	0x84
 3434 0004 0200     		.2byte	0x2
 3435 0006 00000000 		.4byte	.Ldebug_info0
 3436 000a 04       		.byte	0x4
 3437 000b 00       		.byte	0
 3438 000c 0000     		.2byte	0
 3439 000e 0000     		.2byte	0
 3440 0010 00000000 		.4byte	.LFB2
 3441 0014 D8000000 		.4byte	.LFE2-.LFB2
 3442 0018 00000000 		.4byte	.LFB4
 3443 001c 8C000000 		.4byte	.LFE4-.LFB4
 3444 0020 00000000 		.4byte	.LFB5
 3445 0024 98000000 		.4byte	.LFE5-.LFB5
 3446 0028 00000000 		.4byte	.LFB6
 3447 002c 84000000 		.4byte	.LFE6-.LFB6
 3448 0030 00000000 		.4byte	.LFB7
 3449 0034 0C000000 		.4byte	.LFE7-.LFB7
 3450 0038 00000000 		.4byte	.LFB8
 3451 003c 0C000000 		.4byte	.LFE8-.LFB8
 3452 0040 00000000 		.4byte	.LFB9
 3453 0044 28000000 		.4byte	.LFE9-.LFB9
 3454 0048 00000000 		.4byte	.LFB10
 3455 004c 28000000 		.4byte	.LFE10-.LFB10
 3456 0050 00000000 		.4byte	.LFB11
 3457 0054 30000000 		.4byte	.LFE11-.LFB11
 3458 0058 00000000 		.4byte	.LFB12
 3459 005c 20000000 		.4byte	.LFE12-.LFB12
 3460 0060 00000000 		.4byte	.LFB13
 3461 0064 98000000 		.4byte	.LFE13-.LFB13
 3462 0068 00000000 		.4byte	.LFB0
 3463 006c EC000000 		.4byte	.LFE0-.LFB0
 3464 0070 00000000 		.4byte	.LFB1
 3465 0074 FC000000 		.4byte	.LFE1-.LFB1
 3466 0078 00000000 		.4byte	.LFB3
 3467 007c C4000000 		.4byte	.LFE3-.LFB3
 3468 0080 00000000 		.4byte	0
 3469 0084 00000000 		.4byte	0
 3470              		.section	.debug_ranges,"",%progbits
 3471              	.Ldebug_ranges0:
 3472 0000 00000000 		.4byte	.LFB2
 3473 0004 D8000000 		.4byte	.LFE2
 3474 0008 00000000 		.4byte	.LFB4
 3475 000c 8C000000 		.4byte	.LFE4
 3476 0010 00000000 		.4byte	.LFB5
 3477 0014 98000000 		.4byte	.LFE5
 3478 0018 00000000 		.4byte	.LFB6
 3479 001c 84000000 		.4byte	.LFE6
 3480 0020 00000000 		.4byte	.LFB7
 3481 0024 0C000000 		.4byte	.LFE7
 3482 0028 00000000 		.4byte	.LFB8
 3483 002c 0C000000 		.4byte	.LFE8
 3484 0030 00000000 		.4byte	.LFB9
 3485 0034 28000000 		.4byte	.LFE9
 3486 0038 00000000 		.4byte	.LFB10
 3487 003c 28000000 		.4byte	.LFE10
 3488 0040 00000000 		.4byte	.LFB11
 3489 0044 30000000 		.4byte	.LFE11
ARM GAS  C:\Users\744\AppData\Local\Temp\ccnzmzQv.s 			page 82


 3490 0048 00000000 		.4byte	.LFB12
 3491 004c 20000000 		.4byte	.LFE12
 3492 0050 00000000 		.4byte	.LFB13
 3493 0054 98000000 		.4byte	.LFE13
 3494 0058 00000000 		.4byte	.LFB0
 3495 005c EC000000 		.4byte	.LFE0
 3496 0060 00000000 		.4byte	.LFB1
 3497 0064 FC000000 		.4byte	.LFE1
 3498 0068 00000000 		.4byte	.LFB3
 3499 006c C4000000 		.4byte	.LFE3
 3500 0070 00000000 		.4byte	0
 3501 0074 00000000 		.4byte	0
 3502              		.section	.debug_line,"",%progbits
 3503              	.Ldebug_line0:
 3504 0000 CD020000 		.section	.debug_str,"MS",%progbits,1
 3504      02009A00 
 3504      00000201 
 3504      FB0E0D00 
 3504      01010101 
 3505              	.LASF27:
 3506 0000 4932435F 		.ascii	"I2C_I2CMasterGetReadBufSize\000"
 3506      4932434D 
 3506      61737465 
 3506      72476574 
 3506      52656164 
 3507              	.LASF15:
 3508 001c 72656733 		.ascii	"reg32\000"
 3508      3200
 3509              	.LASF47:
 3510 0022 4932435F 		.ascii	"I2C_mstrWrBufPtr\000"
 3510      6D737472 
 3510      57724275 
 3510      66507472 
 3510      00
 3511              	.LASF34:
 3512 0033 4932435F 		.ascii	"I2C_I2CReStartGeneration\000"
 3512      49324352 
 3512      65537461 
 3512      72744765 
 3512      6E657261 
 3513              	.LASF29:
 3514 004c 4932435F 		.ascii	"I2C_I2CMasterClearReadBuf\000"
 3514      4932434D 
 3514      61737465 
 3514      72436C65 
 3514      61725265 
 3515              	.LASF3:
 3516 0066 73686F72 		.ascii	"short unsigned int\000"
 3516      7420756E 
 3516      7369676E 
 3516      65642069 
 3516      6E7400
 3517              	.LASF58:
 3518 0079 2E5C4765 		.ascii	".\\Generated_Source\\PSoC4\\I2C_I2C_MASTER.c\000"
 3518      6E657261 
 3518      7465645F 
 3518      536F7572 
ARM GAS  C:\Users\744\AppData\Local\Temp\ccnzmzQv.s 			page 83


 3518      63655C50 
 3519              	.LASF32:
 3520 00a3 73746174 		.ascii	"status\000"
 3520      757300
 3521              	.LASF19:
 3522 00aa 72657365 		.ascii	"resetIp\000"
 3522      74497000 
 3523              	.LASF56:
 3524 00b2 4932435F 		.ascii	"I2C_scl_Read\000"
 3524      73636C5F 
 3524      52656164 
 3524      00
 3525              	.LASF31:
 3526 00bf 4932435F 		.ascii	"I2C_I2CMasterStatus\000"
 3526      4932434D 
 3526      61737465 
 3526      72537461 
 3526      74757300 
 3527              	.LASF46:
 3528 00d3 4932435F 		.ascii	"I2C_mstrRdBufIndex\000"
 3528      6D737472 
 3528      52644275 
 3528      66496E64 
 3528      657800
 3529              	.LASF12:
 3530 00e6 666C6F61 		.ascii	"float\000"
 3530      7400
 3531              	.LASF0:
 3532 00ec 7369676E 		.ascii	"signed char\000"
 3532      65642063 
 3532      68617200 
 3533              	.LASF1:
 3534 00f8 756E7369 		.ascii	"unsigned char\000"
 3534      676E6564 
 3534      20636861 
 3534      7200
 3535              	.LASF21:
 3536 0106 4932435F 		.ascii	"I2C_I2CMasterSendStart\000"
 3536      4932434D 
 3536      61737465 
 3536      7253656E 
 3536      64537461 
 3537              	.LASF30:
 3538 011d 4932435F 		.ascii	"I2C_I2CMasterClearWriteBuf\000"
 3538      4932434D 
 3538      61737465 
 3538      72436C65 
 3538      61725772 
 3539              	.LASF43:
 3540 0138 4932435F 		.ascii	"I2C_mstrControl\000"
 3540      6D737472 
 3540      436F6E74 
 3540      726F6C00 
 3541              	.LASF5:
 3542 0148 6C6F6E67 		.ascii	"long unsigned int\000"
 3542      20756E73 
 3542      69676E65 
ARM GAS  C:\Users\744\AppData\Local\Temp\ccnzmzQv.s 			page 84


 3542      6420696E 
 3542      7400
 3543              	.LASF35:
 3544 015a 4932435F 		.ascii	"I2C_I2CMasterWriteBuf\000"
 3544      4932434D 
 3544      61737465 
 3544      72577269 
 3544      74654275 
 3545              	.LASF9:
 3546 0170 75696E74 		.ascii	"uint8\000"
 3546      3800
 3547              	.LASF26:
 3548 0176 61636B4E 		.ascii	"ackNack\000"
 3548      61636B00 
 3549              	.LASF20:
 3550 017e 65727253 		.ascii	"errStatus\000"
 3550      74617475 
 3550      7300
 3551              	.LASF53:
 3552 0188 4932435F 		.ascii	"I2C_scl_Write\000"
 3552      73636C5F 
 3552      57726974 
 3552      6500
 3553              	.LASF13:
 3554 0196 646F7562 		.ascii	"double\000"
 3554      6C6500
 3555              	.LASF18:
 3556 019d 62697452 		.ascii	"bitRnW\000"
 3556      6E5700
 3557              	.LASF52:
 3558 01a4 4379496E 		.ascii	"CyIntEnable\000"
 3558      74456E61 
 3558      626C6500 
 3559              	.LASF10:
 3560 01b0 75696E74 		.ascii	"uint16\000"
 3560      313600
 3561              	.LASF39:
 3562 01b7 72644461 		.ascii	"rdData\000"
 3562      746100
 3563              	.LASF11:
 3564 01be 75696E74 		.ascii	"uint32\000"
 3564      333200
 3565              	.LASF45:
 3566 01c5 4932435F 		.ascii	"I2C_mstrRdBufSize\000"
 3566      6D737472 
 3566      52644275 
 3566      6653697A 
 3566      6500
 3567              	.LASF8:
 3568 01d7 756E7369 		.ascii	"unsigned int\000"
 3568      676E6564 
 3568      20696E74 
 3568      00
 3569              	.LASF36:
 3570 01e4 77724461 		.ascii	"wrData\000"
 3570      746100
 3571              	.LASF7:
ARM GAS  C:\Users\744\AppData\Local\Temp\ccnzmzQv.s 			page 85


 3572 01eb 6C6F6E67 		.ascii	"long long unsigned int\000"
 3572      206C6F6E 
 3572      6720756E 
 3572      7369676E 
 3572      65642069 
 3573              	.LASF37:
 3574 0202 6D6F6465 		.ascii	"mode\000"
 3574      00
 3575              	.LASF17:
 3576 0207 736C6176 		.ascii	"slaveAddress\000"
 3576      65416464 
 3576      72657373 
 3576      00
 3577              	.LASF42:
 3578 0214 4932435F 		.ascii	"I2C_mstrStatus\000"
 3578      6D737472 
 3578      53746174 
 3578      757300
 3579              	.LASF16:
 3580 0223 73697A65 		.ascii	"sizetype\000"
 3580      74797065 
 3580      00
 3581              	.LASF6:
 3582 022c 6C6F6E67 		.ascii	"long long int\000"
 3582      206C6F6E 
 3582      6720696E 
 3582      7400
 3583              	.LASF55:
 3584 023a 4932435F 		.ascii	"I2C_sda_Read\000"
 3584      7364615F 
 3584      52656164 
 3584      00
 3585              	.LASF54:
 3586 0247 43794465 		.ascii	"CyDelayUs\000"
 3586      6C617955 
 3586      7300
 3587              	.LASF14:
 3588 0251 63686172 		.ascii	"char\000"
 3588      00
 3589              	.LASF23:
 3590 0256 4932435F 		.ascii	"I2C_I2CMasterWriteByte\000"
 3590      4932434D 
 3590      61737465 
 3590      72577269 
 3590      74654279 
 3591              	.LASF57:
 3592 026d 474E5520 		.ascii	"GNU C 4.9.3 20150303 (release) [ARM/embedded-4_9-br"
 3592      4320342E 
 3592      392E3320 
 3592      32303135 
 3592      30333033 
 3593 02a0 616E6368 		.ascii	"anch revision 221220] -mcpu=cortex-m0 -mthumb -g -O"
 3593      20726576 
 3593      6973696F 
 3593      6E203232 
 3593      31323230 
 3594 02d3 67202D66 		.ascii	"g -ffunction-sections -ffat-lto-objects\000"
ARM GAS  C:\Users\744\AppData\Local\Temp\ccnzmzQv.s 			page 86


 3594      66756E63 
 3594      74696F6E 
 3594      2D736563 
 3594      74696F6E 
 3595              	.LASF51:
 3596 02fb 4379496E 		.ascii	"CyIntDisable\000"
 3596      74446973 
 3596      61626C65 
 3596      00
 3597              	.LASF2:
 3598 0308 73686F72 		.ascii	"short int\000"
 3598      7420696E 
 3598      7400
 3599              	.LASF24:
 3600 0312 74686542 		.ascii	"theByte\000"
 3600      79746500 
 3601              	.LASF40:
 3602 031a 4932435F 		.ascii	"I2C_I2CMasterSendRestart\000"
 3602      4932434D 
 3602      61737465 
 3602      7253656E 
 3602      64526573 
 3603              	.LASF25:
 3604 0333 4932435F 		.ascii	"I2C_I2CMasterReadByte\000"
 3604      4932434D 
 3604      61737465 
 3604      72526561 
 3604      64427974 
 3605              	.LASF44:
 3606 0349 4932435F 		.ascii	"I2C_mstrRdBufPtr\000"
 3606      6D737472 
 3606      52644275 
 3606      66507472 
 3606      00
 3607              	.LASF50:
 3608 035a 4932435F 		.ascii	"I2C_mstrWrBufIndexTmp\000"
 3608      6D737472 
 3608      57724275 
 3608      66496E64 
 3608      6578546D 
 3609              	.LASF4:
 3610 0370 6C6F6E67 		.ascii	"long int\000"
 3610      20696E74 
 3610      00
 3611              	.LASF28:
 3612 0379 4932435F 		.ascii	"I2C_I2CMasterGetWriteBufSize\000"
 3612      4932434D 
 3612      61737465 
 3612      72476574 
 3612      57726974 
 3613              	.LASF49:
 3614 0396 4932435F 		.ascii	"I2C_mstrWrBufIndex\000"
 3614      6D737472 
 3614      57724275 
 3614      66496E64 
 3614      657800
 3615              	.LASF59:
ARM GAS  C:\Users\744\AppData\Local\Temp\ccnzmzQv.s 			page 87


 3616 03a9 453A5C37 		.ascii	"E:\\744\\Education\\Git\\PSoC4_Projects\\Diploma_sk"
 3616      34345C45 
 3616      64756361 
 3616      74696F6E 
 3616      5C476974 
 3617 03d7 65746368 		.ascii	"etch\\Password.cydsn\000"
 3617      5C506173 
 3617      73776F72 
 3617      642E6379 
 3617      64736E00 
 3618              	.LASF48:
 3619 03eb 4932435F 		.ascii	"I2C_mstrWrBufSize\000"
 3619      6D737472 
 3619      57724275 
 3619      6653697A 
 3619      6500
 3620              	.LASF38:
 3621 03fd 4932435F 		.ascii	"I2C_I2CMasterReadBuf\000"
 3621      4932434D 
 3621      61737465 
 3621      72526561 
 3621      64427566 
 3622              	.LASF33:
 3623 0412 4932435F 		.ascii	"I2C_I2CMasterClearStatus\000"
 3623      4932434D 
 3623      61737465 
 3623      72436C65 
 3623      61725374 
 3624              	.LASF41:
 3625 042b 4932435F 		.ascii	"I2C_state\000"
 3625      73746174 
 3625      6500
 3626              	.LASF22:
 3627 0435 4932435F 		.ascii	"I2C_I2CMasterSendStop\000"
 3627      4932434D 
 3627      61737465 
 3627      7253656E 
 3627      6453746F 
 3628              		.ident	"GCC: (GNU Tools for ARM Embedded Processors) 4.9.3 20150303 (release) [ARM/embedded-4_9-br
