ARM GAS  C:\Users\744\AppData\Local\Temp\cc85mAdF.s 			page 1


   1              		.cpu cortex-m0
   2              		.fpu softvfp
   3              		.eabi_attribute 20, 1
   4              		.eabi_attribute 21, 1
   5              		.eabi_attribute 23, 3
   6              		.eabi_attribute 24, 1
   7              		.eabi_attribute 25, 1
   8              		.eabi_attribute 26, 1
   9              		.eabi_attribute 30, 1
  10              		.eabi_attribute 34, 0
  11              		.eabi_attribute 18, 4
  12              		.code	16
  13              		.file	"main.c"
  14              		.text
  15              	.Ltext0:
  16              		.cfi_sections	.debug_frame
  17              		.section	.text.input_pin,"ax",%progbits
  18              		.align	2
  19              		.global	input_pin
  20              		.code	16
  21              		.thumb_func
  22              		.type	input_pin, %function
  23              	input_pin:
  24              	.LFB35:
  25              		.file 1 ".\\main.c"
   1:.\main.c      **** /* ========================================
   2:.\main.c      ****  *
   3:.\main.c      ****  * Copyright YOUR COMPANY, THE YEAR
   4:.\main.c      ****  * All Rights Reserved
   5:.\main.c      ****  * UNPUBLISHED, LICENSED SOFTWARE.
   6:.\main.c      ****  *
   7:.\main.c      ****  * CONFIDENTIAL AND PROPRIETARY INFORMATION
   8:.\main.c      ****  * WHICH IS THE PROPERTY OF your company.
   9:.\main.c      ****  *
  10:.\main.c      ****  * ========================================
  11:.\main.c      **** */
  12:.\main.c      **** #include <project.h>
  13:.\main.c      **** #include <Keyboard.h>
  14:.\main.c      **** #include "LiquidCrystal_I2C.h"
  15:.\main.c      **** #include <stdbool.h>
  16:.\main.c      **** #include <string.h>
  17:.\main.c      **** 
  18:.\main.c      **** 
  19:.\main.c      **** 
  20:.\main.c      **** char pin[5];
  21:.\main.c      **** char* check = "1111";
  22:.\main.c      **** uint32_t Addr = 0x27;
  23:.\main.c      **** uint8 i = 0;
  24:.\main.c      **** uint8 Key;
  25:.\main.c      **** bool password = false;
  26:.\main.c      **** bool security_active = true;
  27:.\main.c      **** 
  28:.\main.c      **** 
  29:.\main.c      **** void input_pin(const char el);
  30:.\main.c      **** void compare(char a[], char b[]);
  31:.\main.c      **** void accept(char a[], char b[]);
  32:.\main.c      **** void discard(char a[]);
ARM GAS  C:\Users\744\AppData\Local\Temp\cc85mAdF.s 			page 2


  33:.\main.c      **** void alarm();
  34:.\main.c      **** void pass();
  35:.\main.c      **** 
  36:.\main.c      **** int main()
  37:.\main.c      **** {
  38:.\main.c      ****     Keyboard_Init();
  39:.\main.c      ****     I2C_Start();
  40:.\main.c      ****     LiquidCrystal_I2C_init(Addr,16,2,0);
  41:.\main.c      ****     begin();
  42:.\main.c      ****     
  43:.\main.c      ****     CyGlobalIntEnable; /* Enable global interrupts. */
  44:.\main.c      ****     setCursor(0,1);
  45:.\main.c      ****     
  46:.\main.c      ****     
  47:.\main.c      ****     for(;;)
  48:.\main.c      ****     {
  49:.\main.c      ****         //alarm();
  50:.\main.c      ****         pass();
  51:.\main.c      ****         
  52:.\main.c      ****     }
  53:.\main.c      **** }
  54:.\main.c      **** 
  55:.\main.c      **** 
  56:.\main.c      **** void input_pin(const char el)
  57:.\main.c      **** {    
  26              		.loc 1 57 0
  27              		.cfi_startproc
  28              	.LVL0:
  29 0000 10B5     		push	{r4, lr}
  30              		.cfi_def_cfa_offset 8
  31              		.cfi_offset 4, -8
  32              		.cfi_offset 14, -4
  33 0002 041C     		mov	r4, r0
  58:.\main.c      ****     write(el);
  34              		.loc 1 58 0
  35 0004 FFF7FEFF 		bl	write
  36              	.LVL1:
  59:.\main.c      ****     pin[i++] = el;
  37              		.loc 1 59 0
  38 0008 034A     		ldr	r2, .L2
  39 000a 1378     		ldrb	r3, [r2]
  40 000c 591C     		add	r1, r3, #1
  41 000e 1170     		strb	r1, [r2]
  42 0010 024A     		ldr	r2, .L2+4
  43 0012 D454     		strb	r4, [r2, r3]
  60:.\main.c      **** }
  44              		.loc 1 60 0
  45              		@ sp needed
  46 0014 10BD     		pop	{r4, pc}
  47              	.L3:
  48 0016 C046     		.align	2
  49              	.L2:
  50 0018 00000000 		.word	.LANCHOR0
  51 001c 00000000 		.word	pin
  52              		.cfi_endproc
  53              	.LFE35:
  54              		.size	input_pin, .-input_pin
ARM GAS  C:\Users\744\AppData\Local\Temp\cc85mAdF.s 			page 3


  55              		.section	.text.discard,"ax",%progbits
  56              		.align	2
  57              		.global	discard
  58              		.code	16
  59              		.thumb_func
  60              		.type	discard, %function
  61              	discard:
  62              	.LFB36:
  61:.\main.c      **** 
  62:.\main.c      **** void discard(char a[])
  63:.\main.c      **** {
  63              		.loc 1 63 0
  64              		.cfi_startproc
  65              	.LVL2:
  66 0000 10B5     		push	{r4, lr}
  67              		.cfi_def_cfa_offset 8
  68              		.cfi_offset 4, -8
  69              		.cfi_offset 14, -4
  70 0002 041C     		mov	r4, r0
  64:.\main.c      ****     memset(a,'\0',strlen(a));
  71              		.loc 1 64 0
  72 0004 FFF7FEFF 		bl	strlen
  73              	.LVL3:
  74 0008 021C     		mov	r2, r0
  75 000a 201C     		mov	r0, r4
  76 000c 0021     		mov	r1, #0
  77 000e FFF7FEFF 		bl	memset
  78              	.LVL4:
  65:.\main.c      ****     i = 0;
  79              		.loc 1 65 0
  80 0012 0022     		mov	r2, #0
  81 0014 044B     		ldr	r3, .L5
  82 0016 1A70     		strb	r2, [r3]
  66:.\main.c      ****     clear();
  83              		.loc 1 66 0
  84 0018 FFF7FEFF 		bl	clear
  85              	.LVL5:
  67:.\main.c      ****     setCursor(0,1);
  86              		.loc 1 67 0
  87 001c 0020     		mov	r0, #0
  88 001e 0121     		mov	r1, #1
  89 0020 FFF7FEFF 		bl	setCursor
  90              	.LVL6:
  68:.\main.c      **** }
  91              		.loc 1 68 0
  92              		@ sp needed
  93              	.LVL7:
  94 0024 10BD     		pop	{r4, pc}
  95              	.L6:
  96 0026 C046     		.align	2
  97              	.L5:
  98 0028 00000000 		.word	.LANCHOR0
  99              		.cfi_endproc
 100              	.LFE36:
 101              		.size	discard, .-discard
 102              		.section	.text.accept,"ax",%progbits
 103              		.align	2
ARM GAS  C:\Users\744\AppData\Local\Temp\cc85mAdF.s 			page 4


 104              		.global	accept
 105              		.code	16
 106              		.thumb_func
 107              		.type	accept, %function
 108              	accept:
 109              	.LFB37:
  69:.\main.c      **** 
  70:.\main.c      **** void accept(char a[],char b[])
  71:.\main.c      **** {
 110              		.loc 1 71 0
 111              		.cfi_startproc
 112              	.LVL8:
 113 0000 10B5     		push	{r4, lr}
 114              		.cfi_def_cfa_offset 8
 115              		.cfi_offset 4, -8
 116              		.cfi_offset 14, -4
 117 0002 041C     		mov	r4, r0
  72:.\main.c      ****     
  73:.\main.c      ****     if(strcmp(a, b) == 0)
 118              		.loc 1 73 0
 119 0004 FFF7FEFF 		bl	strcmp
 120              	.LVL9:
 121 0008 0028     		cmp	r0, #0
 122 000a 1FD1     		bne	.L8
  74:.\main.c      ****     {
  75:.\main.c      ****         clear();
 123              		.loc 1 75 0
 124 000c FFF7FEFF 		bl	clear
 125              	.LVL10:
  76:.\main.c      ****         setCursor(1,0);
 126              		.loc 1 76 0
 127 0010 0120     		mov	r0, #1
 128 0012 0021     		mov	r1, #0
 129 0014 FFF7FEFF 		bl	setCursor
 130              	.LVL11:
  77:.\main.c      ****         if(security_active)
 131              		.loc 1 77 0
 132 0018 194B     		ldr	r3, .L11
 133 001a 1B78     		ldrb	r3, [r3]
 134 001c 002B     		cmp	r3, #0
 135 001e 0CD0     		beq	.L9
  78:.\main.c      ****         {
  79:.\main.c      ****             LCD_print("Alarm disabled");
 136              		.loc 1 79 0
 137 0020 1848     		ldr	r0, .L11+4
 138 0022 FFF7FEFF 		bl	LCD_print
 139              	.LVL12:
  80:.\main.c      ****             LED_GREEN_Write(0);
 140              		.loc 1 80 0
 141 0026 0020     		mov	r0, #0
 142 0028 FFF7FEFF 		bl	LED_GREEN_Write
 143              	.LVL13:
  81:.\main.c      ****             LED_RED_Write(1);
 144              		.loc 1 81 0
 145 002c 0120     		mov	r0, #1
 146 002e FFF7FEFF 		bl	LED_RED_Write
 147              	.LVL14:
ARM GAS  C:\Users\744\AppData\Local\Temp\cc85mAdF.s 			page 5


  82:.\main.c      ****             security_active = false;
 148              		.loc 1 82 0
 149 0032 0022     		mov	r2, #0
 150 0034 124B     		ldr	r3, .L11
 151 0036 1A70     		strb	r2, [r3]
 152 0038 11E0     		b	.L10
 153              	.L9:
  83:.\main.c      ****         }
  84:.\main.c      ****         else if(!security_active)
 154              		.loc 1 84 0
 155 003a 002B     		cmp	r3, #0
 156 003c 0FD1     		bne	.L10
  85:.\main.c      ****         {
  86:.\main.c      ****             LCD_print("Alarm enabled");
 157              		.loc 1 86 0
 158 003e 1248     		ldr	r0, .L11+8
 159 0040 FFF7FEFF 		bl	LCD_print
 160              	.LVL15:
  87:.\main.c      ****             security_active = true;
 161              		.loc 1 87 0
 162 0044 0122     		mov	r2, #1
 163 0046 0E4B     		ldr	r3, .L11
 164 0048 1A70     		strb	r2, [r3]
 165 004a 08E0     		b	.L10
 166              	.L8:
  88:.\main.c      ****         }
  89:.\main.c      ****         
  90:.\main.c      ****     }
  91:.\main.c      ****     else 
  92:.\main.c      ****     {
  93:.\main.c      ****         clear();
 167              		.loc 1 93 0
 168 004c FFF7FEFF 		bl	clear
 169              	.LVL16:
  94:.\main.c      ****         setCursor(1,0);
 170              		.loc 1 94 0
 171 0050 0120     		mov	r0, #1
 172 0052 0021     		mov	r1, #0
 173 0054 FFF7FEFF 		bl	setCursor
 174              	.LVL17:
  95:.\main.c      ****         LCD_print("Wrong password");
 175              		.loc 1 95 0
 176 0058 0C48     		ldr	r0, .L11+12
 177 005a FFF7FEFF 		bl	LCD_print
 178              	.LVL18:
 179              	.L10:
  96:.\main.c      ****     }
  97:.\main.c      ****     memset(a,'\0',strlen(a));
 180              		.loc 1 97 0
 181 005e 201C     		mov	r0, r4
 182 0060 FFF7FEFF 		bl	strlen
 183              	.LVL19:
 184 0064 021C     		mov	r2, r0
 185 0066 201C     		mov	r0, r4
 186 0068 0021     		mov	r1, #0
 187 006a FFF7FEFF 		bl	memset
 188              	.LVL20:
ARM GAS  C:\Users\744\AppData\Local\Temp\cc85mAdF.s 			page 6


  98:.\main.c      ****     i = 0;
 189              		.loc 1 98 0
 190 006e 0022     		mov	r2, #0
 191 0070 074B     		ldr	r3, .L11+16
 192 0072 1A70     		strb	r2, [r3]
  99:.\main.c      ****     setCursor(0,1);
 193              		.loc 1 99 0
 194 0074 0020     		mov	r0, #0
 195 0076 0121     		mov	r1, #1
 196 0078 FFF7FEFF 		bl	setCursor
 197              	.LVL21:
 100:.\main.c      **** }
 198              		.loc 1 100 0
 199              		@ sp needed
 200              	.LVL22:
 201 007c 10BD     		pop	{r4, pc}
 202              	.L12:
 203 007e C046     		.align	2
 204              	.L11:
 205 0080 00000000 		.word	.LANCHOR1
 206 0084 00000000 		.word	.LC4
 207 0088 10000000 		.word	.LC6
 208 008c 20000000 		.word	.LC8
 209 0090 00000000 		.word	.LANCHOR0
 210              		.cfi_endproc
 211              	.LFE37:
 212              		.size	accept, .-accept
 213              		.section	.text.pass,"ax",%progbits
 214              		.align	2
 215              		.global	pass
 216              		.code	16
 217              		.thumb_func
 218              		.type	pass, %function
 219              	pass:
 220              	.LFB38:
 101:.\main.c      **** 
 102:.\main.c      **** void pass()
 103:.\main.c      **** {
 221              		.loc 1 103 0
 222              		.cfi_startproc
 223 0000 10B5     		push	{r4, lr}
 224              		.cfi_def_cfa_offset 8
 225              		.cfi_offset 4, -8
 226              		.cfi_offset 14, -4
 104:.\main.c      ****     Key = Get_KBD_Char();		//Value recieved from Matrix
 227              		.loc 1 104 0
 228 0002 FFF7FEFF 		bl	Get_KBD_Char
 229              	.LVL23:
 230 0006 244B     		ldr	r3, .L29
 231 0008 1870     		strb	r0, [r3]
 105:.\main.c      ****         switch(Key)                 //Recognition of pressed key
 232              		.loc 1 105 0
 233 000a 2338     		sub	r0, r0, #35
 234 000c C3B2     		uxtb	r3, r0
 235 000e 162B     		cmp	r3, #22
 236 0010 35D8     		bhi	.L14
 237 0012 9800     		lsl	r0, r3, #2
ARM GAS  C:\Users\744\AppData\Local\Temp\cc85mAdF.s 			page 7


 238 0014 214B     		ldr	r3, .L29+4
 239 0016 1B58     		ldr	r3, [r3, r0]
 240 0018 9F46     		mov	pc, r3
 241              		.section	.rodata
 242              		.align	2
 243              	.L16:
 244 0000 26000000 		.word	.L15
 245 0004 7E000000 		.word	.L14
 246 0008 7E000000 		.word	.L14
 247 000c 7E000000 		.word	.L14
 248 0010 7E000000 		.word	.L14
 249 0014 7E000000 		.word	.L14
 250 0018 7E000000 		.word	.L14
 251 001c 1A000000 		.word	.L17
 252 0020 7E000000 		.word	.L14
 253 0024 7E000000 		.word	.L14
 254 0028 7E000000 		.word	.L14
 255 002c 7E000000 		.word	.L14
 256 0030 7E000000 		.word	.L14
 257 0034 76000000 		.word	.L18
 258 0038 2E000000 		.word	.L19
 259 003c 36000000 		.word	.L20
 260 0040 3E000000 		.word	.L21
 261 0044 46000000 		.word	.L22
 262 0048 4E000000 		.word	.L23
 263 004c 56000000 		.word	.L24
 264 0050 5E000000 		.word	.L25
 265 0054 66000000 		.word	.L26
 266 0058 6E000000 		.word	.L27
 267              		.section	.text.pass
 268              	.L17:
 106:.\main.c      ****         {              
 107:.\main.c      ****             case '*':
 108:.\main.c      ****                 accept(pin, check);
 269              		.loc 1 108 0
 270 001a 214B     		ldr	r3, .L29+8
 271 001c 5968     		ldr	r1, [r3, #4]
 272 001e 2148     		ldr	r0, .L29+12
 273 0020 FFF7FEFF 		bl	accept
 274              	.LVL24:
 109:.\main.c      ****                 break;
 275              		.loc 1 109 0
 276 0024 37E0     		b	.L13
 277              	.L15:
 110:.\main.c      ****             case '#':
 111:.\main.c      ****                 discard(pin);
 278              		.loc 1 111 0
 279 0026 1F48     		ldr	r0, .L29+12
 280 0028 FFF7FEFF 		bl	discard
 281              	.LVL25:
 112:.\main.c      ****                 break;
 282              		.loc 1 112 0
 283 002c 33E0     		b	.L13
 284              	.L19:
 113:.\main.c      ****             case '1':
 114:.\main.c      ****                 input_pin('1');
 285              		.loc 1 114 0
ARM GAS  C:\Users\744\AppData\Local\Temp\cc85mAdF.s 			page 8


 286 002e 3120     		mov	r0, #49
 287 0030 FFF7FEFF 		bl	input_pin
 288              	.LVL26:
 115:.\main.c      ****                 break;
 289              		.loc 1 115 0
 290 0034 2FE0     		b	.L13
 291              	.L20:
 116:.\main.c      ****             case '2':
 117:.\main.c      ****                 input_pin('2');
 292              		.loc 1 117 0
 293 0036 3220     		mov	r0, #50
 294 0038 FFF7FEFF 		bl	input_pin
 295              	.LVL27:
 118:.\main.c      ****                 break;
 296              		.loc 1 118 0
 297 003c 2BE0     		b	.L13
 298              	.L21:
 119:.\main.c      ****             case '3':
 120:.\main.c      ****                 input_pin('3');
 299              		.loc 1 120 0
 300 003e 3320     		mov	r0, #51
 301 0040 FFF7FEFF 		bl	input_pin
 302              	.LVL28:
 121:.\main.c      ****                 break;
 303              		.loc 1 121 0
 304 0044 27E0     		b	.L13
 305              	.L22:
 122:.\main.c      ****             case '4':
 123:.\main.c      ****                 input_pin('4');
 306              		.loc 1 123 0
 307 0046 3420     		mov	r0, #52
 308 0048 FFF7FEFF 		bl	input_pin
 309              	.LVL29:
 124:.\main.c      ****                 break;
 310              		.loc 1 124 0
 311 004c 23E0     		b	.L13
 312              	.L23:
 125:.\main.c      ****             case '5':
 126:.\main.c      ****                 input_pin('5');
 313              		.loc 1 126 0
 314 004e 3520     		mov	r0, #53
 315 0050 FFF7FEFF 		bl	input_pin
 316              	.LVL30:
 127:.\main.c      ****                 break;
 317              		.loc 1 127 0
 318 0054 1FE0     		b	.L13
 319              	.L24:
 128:.\main.c      ****             case '6':
 129:.\main.c      ****                 input_pin('6');
 320              		.loc 1 129 0
 321 0056 3620     		mov	r0, #54
 322 0058 FFF7FEFF 		bl	input_pin
 323              	.LVL31:
 130:.\main.c      ****                 break;
 324              		.loc 1 130 0
 325 005c 1BE0     		b	.L13
 326              	.L25:
ARM GAS  C:\Users\744\AppData\Local\Temp\cc85mAdF.s 			page 9


 131:.\main.c      ****             case '7':
 132:.\main.c      ****                 input_pin('7');
 327              		.loc 1 132 0
 328 005e 3720     		mov	r0, #55
 329 0060 FFF7FEFF 		bl	input_pin
 330              	.LVL32:
 133:.\main.c      ****                 break;
 331              		.loc 1 133 0
 332 0064 17E0     		b	.L13
 333              	.L26:
 134:.\main.c      ****             case '8':
 135:.\main.c      ****                 input_pin('8');
 334              		.loc 1 135 0
 335 0066 3820     		mov	r0, #56
 336 0068 FFF7FEFF 		bl	input_pin
 337              	.LVL33:
 136:.\main.c      ****                 break;
 338              		.loc 1 136 0
 339 006c 13E0     		b	.L13
 340              	.L27:
 137:.\main.c      ****             case '9':
 138:.\main.c      ****                 input_pin('9');
 341              		.loc 1 138 0
 342 006e 3920     		mov	r0, #57
 343 0070 FFF7FEFF 		bl	input_pin
 344              	.LVL34:
 139:.\main.c      ****                 break;
 345              		.loc 1 139 0
 346 0074 0FE0     		b	.L13
 347              	.L18:
 140:.\main.c      ****             case '0':
 141:.\main.c      ****                 input_pin('0');
 348              		.loc 1 141 0
 349 0076 3020     		mov	r0, #48
 350 0078 FFF7FEFF 		bl	input_pin
 351              	.LVL35:
 142:.\main.c      ****                 break;
 352              		.loc 1 142 0
 353 007c 0BE0     		b	.L13
 354              	.L14:
 143:.\main.c      **** 
 144:.\main.c      ****             default:
 145:.\main.c      ****                 memset(pin,'\0', strlen(pin));
 355              		.loc 1 145 0
 356 007e 094C     		ldr	r4, .L29+12
 357 0080 201C     		mov	r0, r4
 358 0082 FFF7FEFF 		bl	strlen
 359              	.LVL36:
 360 0086 021C     		mov	r2, r0
 361 0088 201C     		mov	r0, r4
 362 008a 0021     		mov	r1, #0
 363 008c FFF7FEFF 		bl	memset
 364              	.LVL37:
 146:.\main.c      ****                 write(' ');
 365              		.loc 1 146 0
 366 0090 2020     		mov	r0, #32
 367 0092 FFF7FEFF 		bl	write
ARM GAS  C:\Users\744\AppData\Local\Temp\cc85mAdF.s 			page 10


 368              	.LVL38:
 369              	.L13:
 147:.\main.c      ****                 break;
 148:.\main.c      ****         }
 149:.\main.c      **** }
 370              		.loc 1 149 0
 371              		@ sp needed
 372 0096 10BD     		pop	{r4, pc}
 373              	.L30:
 374              		.align	2
 375              	.L29:
 376 0098 00000000 		.word	Key
 377 009c 00000000 		.word	.L16
 378 00a0 00000000 		.word	.LANCHOR1
 379 00a4 00000000 		.word	pin
 380              		.cfi_endproc
 381              	.LFE38:
 382              		.size	pass, .-pass
 383              		.section	.text.main,"ax",%progbits
 384              		.align	2
 385              		.global	main
 386              		.code	16
 387              		.thumb_func
 388              		.type	main, %function
 389              	main:
 390              	.LFB34:
  37:.\main.c      ****     Keyboard_Init();
 391              		.loc 1 37 0
 392              		.cfi_startproc
 393 0000 08B5     		push	{r3, lr}
 394              		.cfi_def_cfa_offset 8
 395              		.cfi_offset 3, -8
 396              		.cfi_offset 14, -4
  38:.\main.c      ****     I2C_Start();
 397              		.loc 1 38 0
 398 0002 FFF7FEFF 		bl	Keyboard_Init
 399              	.LVL39:
  39:.\main.c      ****     LiquidCrystal_I2C_init(Addr,16,2,0);
 400              		.loc 1 39 0
 401 0006 FFF7FEFF 		bl	I2C_Start
 402              	.LVL40:
  40:.\main.c      ****     begin();
 403              		.loc 1 40 0
 404 000a 084B     		ldr	r3, .L33
 405 000c 187A     		ldrb	r0, [r3, #8]
 406 000e 1021     		mov	r1, #16
 407 0010 0222     		mov	r2, #2
 408 0012 0023     		mov	r3, #0
 409 0014 FFF7FEFF 		bl	LiquidCrystal_I2C_init
 410              	.LVL41:
  41:.\main.c      ****     
 411              		.loc 1 41 0
 412 0018 FFF7FEFF 		bl	begin
 413              	.LVL42:
  43:.\main.c      ****     setCursor(0,1);
 414              		.loc 1 43 0
 415              	@ 43 ".\main.c" 1
ARM GAS  C:\Users\744\AppData\Local\Temp\cc85mAdF.s 			page 11


 416 001c 62B6     		CPSIE   i
 417              	@ 0 "" 2
  44:.\main.c      ****     
 418              		.loc 1 44 0
 419              		.code	16
 420 001e 0020     		mov	r0, #0
 421 0020 0121     		mov	r1, #1
 422 0022 FFF7FEFF 		bl	setCursor
 423              	.LVL43:
 424              	.L32:
  50:.\main.c      ****         
 425              		.loc 1 50 0 discriminator 1
 426 0026 FFF7FEFF 		bl	pass
 427              	.LVL44:
  52:.\main.c      **** }
 428              		.loc 1 52 0 discriminator 1
 429 002a FCE7     		b	.L32
 430              	.L34:
 431              		.align	2
 432              	.L33:
 433 002c 00000000 		.word	.LANCHOR1
 434              		.cfi_endproc
 435              	.LFE34:
 436              		.size	main, .-main
 437              		.section	.text.alarm,"ax",%progbits
 438              		.align	2
 439              		.global	alarm
 440              		.code	16
 441              		.thumb_func
 442              		.type	alarm, %function
 443              	alarm:
 444              	.LFB39:
 150:.\main.c      **** 
 151:.\main.c      **** 
 152:.\main.c      **** void alarm()
 153:.\main.c      **** {
 445              		.loc 1 153 0
 446              		.cfi_startproc
 447 0000 08B5     		push	{r3, lr}
 448              		.cfi_def_cfa_offset 8
 449              		.cfi_offset 3, -8
 450              		.cfi_offset 14, -4
 154:.\main.c      ****     if(security_active && (PIR_4_Read()==1))
 451              		.loc 1 154 0
 452 0002 1B4B     		ldr	r3, .L39
 453 0004 1B78     		ldrb	r3, [r3]
 454 0006 002B     		cmp	r3, #0
 455 0008 13D0     		beq	.L36
 456              		.loc 1 154 0 is_stmt 0 discriminator 1
 457 000a FFF7FEFF 		bl	PIR_4_Read
 458              	.LVL45:
 459 000e 0128     		cmp	r0, #1
 460 0010 0FD1     		bne	.L36
 155:.\main.c      ****     {
 156:.\main.c      ****         clear();
 461              		.loc 1 156 0 is_stmt 1
 462 0012 FFF7FEFF 		bl	clear
ARM GAS  C:\Users\744\AppData\Local\Temp\cc85mAdF.s 			page 12


 463              	.LVL46:
 157:.\main.c      ****         setCursor(0,1);
 464              		.loc 1 157 0
 465 0016 0020     		mov	r0, #0
 466 0018 0121     		mov	r1, #1
 467 001a FFF7FEFF 		bl	setCursor
 468              	.LVL47:
 158:.\main.c      ****         LCD_print("Motion cought");
 469              		.loc 1 158 0
 470 001e 1548     		ldr	r0, .L39+4
 471 0020 FFF7FEFF 		bl	LCD_print
 472              	.LVL48:
 159:.\main.c      ****         LED_GREEN_Write(1);
 473              		.loc 1 159 0
 474 0024 0120     		mov	r0, #1
 475 0026 FFF7FEFF 		bl	LED_GREEN_Write
 476              	.LVL49:
 160:.\main.c      ****         LED_RED_Write(0);
 477              		.loc 1 160 0
 478 002a 0020     		mov	r0, #0
 479 002c FFF7FEFF 		bl	LED_RED_Write
 480              	.LVL50:
 481 0030 1DE0     		b	.L35
 482              	.L36:
 161:.\main.c      ****     }
 162:.\main.c      ****     else if(security_active && (PIR_4_Read()==0))
 483              		.loc 1 162 0
 484 0032 0F4B     		ldr	r3, .L39
 485 0034 1B78     		ldrb	r3, [r3]
 486 0036 002B     		cmp	r3, #0
 487 0038 13D0     		beq	.L38
 488              		.loc 1 162 0 is_stmt 0 discriminator 1
 489 003a FFF7FEFF 		bl	PIR_4_Read
 490              	.LVL51:
 491 003e 0028     		cmp	r0, #0
 492 0040 0FD1     		bne	.L38
 163:.\main.c      ****     {
 164:.\main.c      ****         clear();
 493              		.loc 1 164 0 is_stmt 1
 494 0042 FFF7FEFF 		bl	clear
 495              	.LVL52:
 165:.\main.c      ****         setCursor(14,1);
 496              		.loc 1 165 0
 497 0046 0E20     		mov	r0, #14
 498 0048 0121     		mov	r1, #1
 499 004a FFF7FEFF 		bl	setCursor
 500              	.LVL53:
 166:.\main.c      ****         LCD_print("OK");
 501              		.loc 1 166 0
 502 004e 0A48     		ldr	r0, .L39+8
 503 0050 FFF7FEFF 		bl	LCD_print
 504              	.LVL54:
 167:.\main.c      ****         LED_GREEN_Write(0);
 505              		.loc 1 167 0
 506 0054 0020     		mov	r0, #0
 507 0056 FFF7FEFF 		bl	LED_GREEN_Write
 508              	.LVL55:
ARM GAS  C:\Users\744\AppData\Local\Temp\cc85mAdF.s 			page 13


 168:.\main.c      ****         LED_RED_Write(1);
 509              		.loc 1 168 0
 510 005a 0120     		mov	r0, #1
 511 005c FFF7FEFF 		bl	LED_RED_Write
 512              	.LVL56:
 513 0060 05E0     		b	.L35
 514              	.L38:
 169:.\main.c      ****     }
 170:.\main.c      ****     else 
 171:.\main.c      ****     {
 172:.\main.c      ****         LED_GREEN_Write(0);
 515              		.loc 1 172 0
 516 0062 0020     		mov	r0, #0
 517 0064 FFF7FEFF 		bl	LED_GREEN_Write
 518              	.LVL57:
 173:.\main.c      ****         LED_RED_Write(1);
 519              		.loc 1 173 0
 520 0068 0120     		mov	r0, #1
 521 006a FFF7FEFF 		bl	LED_RED_Write
 522              	.LVL58:
 523              	.L35:
 174:.\main.c      ****     }
 175:.\main.c      ****     
 176:.\main.c      **** }
 524              		.loc 1 176 0
 525              		@ sp needed
 526 006e 08BD     		pop	{r3, pc}
 527              	.L40:
 528              		.align	2
 529              	.L39:
 530 0070 00000000 		.word	.LANCHOR1
 531 0074 30000000 		.word	.LC17
 532 0078 40000000 		.word	.LC19
 533              		.cfi_endproc
 534              	.LFE39:
 535              		.size	alarm, .-alarm
 536              		.global	security_active
 537              		.global	password
 538              		.comm	Key,1,1
 539              		.global	i
 540              		.global	Addr
 541              		.global	check
 542              		.comm	pin,5,4
 543              		.data
 544              		.align	2
 545              		.set	.LANCHOR1,. + 0
 546              		.type	security_active, %object
 547              		.size	security_active, 1
 548              	security_active:
 549 0000 01       		.byte	1
 550 0001 000000   		.space	3
 551              		.type	check, %object
 552              		.size	check, 4
 553              	check:
 554 0004 44000000 		.word	.LC21
 555              		.type	Addr, %object
 556              		.size	Addr, 4
ARM GAS  C:\Users\744\AppData\Local\Temp\cc85mAdF.s 			page 14


 557              	Addr:
 558 0008 27000000 		.word	39
 559              		.section	.rodata.str1.4,"aMS",%progbits,1
 560              		.align	2
 561              	.LC4:
 562 0000 416C6172 		.ascii	"Alarm disabled\000"
 562      6D206469 
 562      7361626C 
 562      656400
 563 000f 00       		.space	1
 564              	.LC6:
 565 0010 416C6172 		.ascii	"Alarm enabled\000"
 565      6D20656E 
 565      61626C65 
 565      6400
 566 001e 0000     		.space	2
 567              	.LC8:
 568 0020 57726F6E 		.ascii	"Wrong password\000"
 568      67207061 
 568      7373776F 
 568      726400
 569 002f 00       		.space	1
 570              	.LC17:
 571 0030 4D6F7469 		.ascii	"Motion cought\000"
 571      6F6E2063 
 571      6F756768 
 571      7400
 572 003e 0000     		.space	2
 573              	.LC19:
 574 0040 4F4B00   		.ascii	"OK\000"
 575 0043 00       		.space	1
 576              	.LC21:
 577 0044 31313131 		.ascii	"1111\000"
 577      00
 578 0049 000000   		.bss
 579              		.set	.LANCHOR0,. + 0
 580              		.type	i, %object
 581              		.size	i, 1
 582              	i:
 583 0000 00       		.space	1
 584              		.type	password, %object
 585              		.size	password, 1
 586              	password:
 587 0001 00       		.space	1
 588              		.text
 589              	.Letext0:
 590              		.file 2 "c:\\program files (x86)\\cypress\\psoc creator\\3.3\\psoc creator\\import\\gnu\\arm\\4.9.
 591              		.file 3 "c:\\program files (x86)\\cypress\\psoc creator\\3.3\\psoc creator\\import\\gnu\\arm\\4.9.
 592              		.file 4 "Generated_Source\\PSoC4/cytypes.h"
 593              		.file 5 "c:\\program files (x86)\\cypress\\psoc creator\\3.3\\psoc creator\\import\\gnu\\arm\\4.9.
 594              		.file 6 ".\\LiquidCrystal_I2C.h"
 595              		.file 7 "c:\\program files (x86)\\cypress\\psoc creator\\3.3\\psoc creator\\import\\gnu\\arm\\4.9.
 596              		.file 8 "Generated_Source\\PSoC4/LED_GREEN.h"
 597              		.file 9 "Generated_Source\\PSoC4/LED_RED.h"
 598              		.file 10 "./Keyboard.h"
 599              		.file 11 "Generated_Source\\PSoC4/I2C.h"
 600              		.file 12 "Generated_Source\\PSoC4/PIR_4.h"
ARM GAS  C:\Users\744\AppData\Local\Temp\cc85mAdF.s 			page 15

