ARM GAS  C:\Users\744\AppData\Local\Temp\ccBACiYO.s 			page 1


   1              		.cpu cortex-m0
   2              		.fpu softvfp
   3              		.eabi_attribute 20, 1
   4              		.eabi_attribute 21, 1
   5              		.eabi_attribute 23, 3
   6              		.eabi_attribute 24, 1
   7              		.eabi_attribute 25, 1
   8              		.eabi_attribute 26, 1
   9              		.eabi_attribute 30, 1
  10              		.eabi_attribute 34, 0
  11              		.eabi_attribute 18, 4
  12              		.code	16
  13              		.file	"main.c"
  14              		.text
  15              	.Ltext0:
  16              		.cfi_sections	.debug_frame
  17              		.section	.text.char_to_int,"ax",%progbits
  18              		.align	2
  19              		.global	char_to_int
  20              		.code	16
  21              		.thumb_func
  22              		.type	char_to_int, %function
  23              	char_to_int:
  24              	.LFB35:
  25              		.file 1 ".\\main.c"
   1:.\main.c      **** /* ========================================
   2:.\main.c      ****  *
   3:.\main.c      ****  * Copyright YOUR COMPANY, THE YEAR
   4:.\main.c      ****  * All Rights Reserved
   5:.\main.c      ****  * UNPUBLISHED, LICENSED SOFTWARE.
   6:.\main.c      ****  *
   7:.\main.c      ****  * CONFIDENTIAL AND PROPRIETARY INFORMATION
   8:.\main.c      ****  * WHICH IS THE PROPERTY OF your company.
   9:.\main.c      ****  *
  10:.\main.c      ****  * ========================================
  11:.\main.c      **** */
  12:.\main.c      **** #include <project.h>
  13:.\main.c      **** #include "stdlib.h"
  14:.\main.c      **** 
  15:.\main.c      **** #define SLIDER_POS_TO_COMPARE_SHIFT    (4u)
  16:.\main.c      **** 
  17:.\main.c      **** void cleaner();
  18:.\main.c      **** void CapSense_DisplayState(void);
  19:.\main.c      **** void CapSense_activity(void);
  20:.\main.c      **** 
  21:.\main.c      **** uint16 curPos, oldPos;
  22:.\main.c      **** 
  23:.\main.c      **** int main()
  24:.\main.c      **** {
  25:.\main.c      ****     CyGlobalIntEnable;
  26:.\main.c      ****     PWM_Start();
  27:.\main.c      ****     LCD_Start();
  28:.\main.c      ****     CapSense_Start();
  29:.\main.c      ****     CapSense_InitializeAllBaselines();
  30:.\main.c      ****     
  31:.\main.c      ****     for(;;)
  32:.\main.c      ****     {
ARM GAS  C:\Users\744\AppData\Local\Temp\ccBACiYO.s 			page 2


  33:.\main.c      ****         CapSense_UpdateEnabledBaselines();
  34:.\main.c      ****         CapSense_ScanEnabledWidgets();
  35:.\main.c      ****         
  36:.\main.c      ****     	while(CapSense_IsBusy() != 0)
  37:.\main.c      ****     	{
  38:.\main.c      ****     		/* Loop until condition true */
  39:.\main.c      ****     	}
  40:.\main.c      ****         CapSense_DisplayState();      
  41:.\main.c      ****     }
  42:.\main.c      **** }
  43:.\main.c      **** 
  44:.\main.c      **** int char_to_int(char char_value)
  45:.\main.c      **** {
  26              		.loc 1 45 0
  27              		.cfi_startproc
  28              	.LVL0:
  46:.\main.c      ****   return ((int) char_value) - 48;
  29              		.loc 1 46 0
  30 0000 3038     		sub	r0, r0, #48
  31              	.LVL1:
  47:.\main.c      **** }
  32              		.loc 1 47 0
  33              		@ sp needed
  34 0002 7047     		bx	lr
  35              		.cfi_endproc
  36              	.LFE35:
  37              		.size	char_to_int, .-char_to_int
  38              		.section	.text.cleaner,"ax",%progbits
  39              		.align	2
  40              		.global	cleaner
  41              		.code	16
  42              		.thumb_func
  43              		.type	cleaner, %function
  44              	cleaner:
  45              	.LFB36:
  48:.\main.c      **** 
  49:.\main.c      **** void cleaner()
  50:.\main.c      **** {
  46              		.loc 1 50 0
  47              		.cfi_startproc
  48 0000 10B5     		push	{r4, lr}
  49              		.cfi_def_cfa_offset 8
  50              		.cfi_offset 4, -8
  51              		.cfi_offset 14, -4
  52              	.LVL2:
  51:.\main.c      **** int b;
  52:.\main.c      **** for( b = 0; b < 16; b++ )
  53              		.loc 1 52 0
  54 0002 0024     		mov	r4, #0
  55 0004 07E0     		b	.L3
  56              	.LVL3:
  57              	.L4:
  53:.\main.c      ****     {
  54:.\main.c      ****         LCD_Position(1,b);
  58              		.loc 1 54 0 discriminator 3
  59 0006 E1B2     		uxtb	r1, r4
  60 0008 0120     		mov	r0, #1
ARM GAS  C:\Users\744\AppData\Local\Temp\ccBACiYO.s 			page 3


  61 000a FFF7FEFF 		bl	LCD_Position
  62              	.LVL4:
  55:.\main.c      ****         LCD_PutChar(' ');   
  63              		.loc 1 55 0 discriminator 3
  64 000e 2020     		mov	r0, #32
  65 0010 FFF7FEFF 		bl	LCD_PutChar
  66              	.LVL5:
  52:.\main.c      ****     {
  67              		.loc 1 52 0 discriminator 3
  68 0014 0134     		add	r4, r4, #1
  69              	.LVL6:
  70              	.L3:
  52:.\main.c      ****     {
  71              		.loc 1 52 0 is_stmt 0 discriminator 1
  72 0016 0F2C     		cmp	r4, #15
  73 0018 F5DD     		ble	.L4
  56:.\main.c      ****     }
  57:.\main.c      **** }
  74              		.loc 1 57 0 is_stmt 1
  75              		@ sp needed
  76              	.LVL7:
  77 001a 10BD     		pop	{r4, pc}
  78              		.cfi_endproc
  79              	.LFE36:
  80              		.size	cleaner, .-cleaner
  81              		.section	.text.CapSense_DisplayState,"ax",%progbits
  82              		.align	2
  83              		.global	CapSense_DisplayState
  84              		.code	16
  85              		.thumb_func
  86              		.type	CapSense_DisplayState, %function
  87              	CapSense_DisplayState:
  88              	.LFB37:
  58:.\main.c      **** 
  59:.\main.c      **** 
  60:.\main.c      **** 
  61:.\main.c      **** 
  62:.\main.c      **** void CapSense_DisplayState(void)
  63:.\main.c      **** {
  89              		.loc 1 63 0
  90              		.cfi_startproc
  91 0000 10B5     		push	{r4, lr}
  92              		.cfi_def_cfa_offset 8
  93              		.cfi_offset 4, -8
  94              		.cfi_offset 14, -4
  64:.\main.c      ****     uint16 i = PWM_ReadCompare();
  95              		.loc 1 64 0
  96 0002 FFF7FEFF 		bl	PWM_ReadCompare
  97              	.LVL8:
  65:.\main.c      ****     /* Find Slider Position */
  66:.\main.c      ****     curPos = CapSense_GetCentroidPos(CapSense_LINEARSLIDER0__LS);    
  98              		.loc 1 66 0
  99 0006 0020     		mov	r0, #0
 100 0008 FFF7FEFF 		bl	CapSense_GetCentroidPos
 101              	.LVL9:
 102 000c 1C4B     		ldr	r3, .L10
 103 000e 1880     		strh	r0, [r3]
ARM GAS  C:\Users\744\AppData\Local\Temp\ccBACiYO.s 			page 4


  67:.\main.c      ****     
  68:.\main.c      ****     /* Reset position */
  69:.\main.c      ****     if(curPos == 0xFFFFu)
 104              		.loc 1 69 0
 105 0010 1C4B     		ldr	r3, .L10+4
 106 0012 9842     		cmp	r0, r3
 107 0014 02D1     		bne	.L6
  70:.\main.c      ****     {
  71:.\main.c      ****         curPos = 0u;
 108              		.loc 1 71 0
 109 0016 0022     		mov	r2, #0
 110 0018 194B     		ldr	r3, .L10
 111 001a 1A80     		strh	r2, [r3]
 112              	.L6:
  72:.\main.c      ****     }
  73:.\main.c      ****                 
  74:.\main.c      ****     /* Move bargraph */
  75:.\main.c      ****     if (curPos != oldPos)
 113              		.loc 1 75 0
 114 001c 184B     		ldr	r3, .L10
 115 001e 1B88     		ldrh	r3, [r3]
 116 0020 194A     		ldr	r2, .L10+8
 117 0022 1288     		ldrh	r2, [r2]
 118 0024 9342     		cmp	r3, r2
 119 0026 2AD0     		beq	.L5
  76:.\main.c      ****     {
  77:.\main.c      ****         oldPos = curPos;
 120              		.loc 1 77 0
 121 0028 174A     		ldr	r2, .L10+8
 122 002a 1380     		strh	r3, [r2]
  78:.\main.c      ****         /* Display Slider bargraph */
  79:.\main.c      ****         if (curPos != 0u)
 123              		.loc 1 79 0
 124 002c 002B     		cmp	r3, #0
 125 002e 26D0     		beq	.L5
  80:.\main.c      ****         {
  81:.\main.c      ****             LCD_ClearDisplay();
 126              		.loc 1 81 0
 127 0030 0120     		mov	r0, #1
 128 0032 FFF7FEFF 		bl	LCD_WriteControl
 129              	.LVL10:
  82:.\main.c      ****             PWM_WriteCompare((uint32)curPos << SLIDER_POS_TO_COMPARE_SHIFT);
 130              		.loc 1 82 0
 131 0036 124C     		ldr	r4, .L10
 132 0038 2088     		ldrh	r0, [r4]
 133 003a 0001     		lsl	r0, r0, #4
 134 003c FFF7FEFF 		bl	PWM_WriteCompare
 135              	.LVL11:
  83:.\main.c      ****             i = curPos; 
 136              		.loc 1 83 0
 137 0040 2488     		ldrh	r4, [r4]
 138              	.LVL12:
  84:.\main.c      ****             
  85:.\main.c      ****             if(i == 100)
 139              		.loc 1 85 0
 140 0042 642C     		cmp	r4, #100
 141 0044 06D1     		bne	.L8
ARM GAS  C:\Users\744\AppData\Local\Temp\ccBACiYO.s 			page 5


  86:.\main.c      ****             {
  87:.\main.c      ****                 LCD_ClearDisplay();
 142              		.loc 1 87 0
 143 0046 0120     		mov	r0, #1
 144 0048 FFF7FEFF 		bl	LCD_WriteControl
 145              	.LVL13:
  88:.\main.c      ****                 LCD_PrintString("Volume lvl: MAX");
 146              		.loc 1 88 0
 147 004c 0F48     		ldr	r0, .L10+12
 148 004e FFF7FEFF 		bl	LCD_PrintString
 149              	.LVL14:
 150 0052 14E0     		b	.L5
 151              	.L8:
  89:.\main.c      ****             }
  90:.\main.c      ****             else if(i == 1)
 152              		.loc 1 90 0
 153 0054 012C     		cmp	r4, #1
 154 0056 06D1     		bne	.L9
  91:.\main.c      ****             {
  92:.\main.c      ****                 LCD_ClearDisplay();
 155              		.loc 1 92 0
 156 0058 0120     		mov	r0, #1
 157 005a FFF7FEFF 		bl	LCD_WriteControl
 158              	.LVL15:
  93:.\main.c      ****                 LCD_PrintString("Volume lvl: MIN");
 159              		.loc 1 93 0
 160 005e 0C48     		ldr	r0, .L10+16
 161 0060 FFF7FEFF 		bl	LCD_PrintString
 162              	.LVL16:
 163 0064 0BE0     		b	.L5
 164              	.L9:
  94:.\main.c      ****             }
  95:.\main.c      ****             else
  96:.\main.c      ****             {           
  97:.\main.c      ****                 LCD_ClearDisplay();
 165              		.loc 1 97 0
 166 0066 0120     		mov	r0, #1
 167 0068 FFF7FEFF 		bl	LCD_WriteControl
 168              	.LVL17:
  98:.\main.c      ****                 LCD_PrintString("Volume lvl: ");
 169              		.loc 1 98 0
 170 006c 0948     		ldr	r0, .L10+20
 171 006e FFF7FEFF 		bl	LCD_PrintString
 172              	.LVL18:
  99:.\main.c      ****                 LCD_PrintNumber(i);
 173              		.loc 1 99 0
 174 0072 201C     		mov	r0, r4
 175 0074 FFF7FEFF 		bl	LCD_PrintU32Number
 176              	.LVL19:
 100:.\main.c      ****                 LCD_PutChar('%');
 177              		.loc 1 100 0
 178 0078 2520     		mov	r0, #37
 179 007a FFF7FEFF 		bl	LCD_PutChar
 180              	.LVL20:
 181              	.L5:
 101:.\main.c      ****             }
 102:.\main.c      ****             
ARM GAS  C:\Users\744\AppData\Local\Temp\ccBACiYO.s 			page 6


 103:.\main.c      ****             
 104:.\main.c      ****         }
 105:.\main.c      ****     }
 106:.\main.c      **** 
 107:.\main.c      **** 
 108:.\main.c      **** }
 182              		.loc 1 108 0
 183              		@ sp needed
 184 007e 10BD     		pop	{r4, pc}
 185              	.L11:
 186              		.align	2
 187              	.L10:
 188 0080 00000000 		.word	curPos
 189 0084 FFFF0000 		.word	65535
 190 0088 00000000 		.word	oldPos
 191 008c 00000000 		.word	.LC2
 192 0090 10000000 		.word	.LC4
 193 0094 20000000 		.word	.LC6
 194              		.cfi_endproc
 195              	.LFE37:
 196              		.size	CapSense_DisplayState, .-CapSense_DisplayState
 197              		.section	.text.main,"ax",%progbits
 198              		.align	2
 199              		.global	main
 200              		.code	16
 201              		.thumb_func
 202              		.type	main, %function
 203              	main:
 204              	.LFB34:
  24:.\main.c      ****     CyGlobalIntEnable;
 205              		.loc 1 24 0
 206              		.cfi_startproc
 207 0000 08B5     		push	{r3, lr}
 208              		.cfi_def_cfa_offset 8
 209              		.cfi_offset 3, -8
 210              		.cfi_offset 14, -4
  25:.\main.c      ****     PWM_Start();
 211              		.loc 1 25 0
 212              	@ 25 ".\main.c" 1
 213 0002 62B6     		CPSIE   i
 214              	@ 0 "" 2
  26:.\main.c      ****     LCD_Start();
 215              		.loc 1 26 0
 216              		.code	16
 217 0004 FFF7FEFF 		bl	PWM_Start
 218              	.LVL21:
  27:.\main.c      ****     CapSense_Start();
 219              		.loc 1 27 0
 220 0008 FFF7FEFF 		bl	LCD_Start
 221              	.LVL22:
  28:.\main.c      ****     CapSense_InitializeAllBaselines();
 222              		.loc 1 28 0
 223 000c FFF7FEFF 		bl	CapSense_Start
 224              	.LVL23:
  29:.\main.c      ****     
 225              		.loc 1 29 0
 226 0010 FFF7FEFF 		bl	CapSense_InitializeAllBaselines
ARM GAS  C:\Users\744\AppData\Local\Temp\ccBACiYO.s 			page 7


 227              	.LVL24:
 228              	.L14:
  33:.\main.c      ****         CapSense_ScanEnabledWidgets();
 229              		.loc 1 33 0
 230 0014 FFF7FEFF 		bl	CapSense_UpdateEnabledBaselines
 231              	.LVL25:
  34:.\main.c      ****         
 232              		.loc 1 34 0
 233 0018 FFF7FEFF 		bl	CapSense_ScanEnabledWidgets
 234              	.LVL26:
 235              	.L13:
  36:.\main.c      ****     	{
 236              		.loc 1 36 0 discriminator 1
 237 001c FFF7FEFF 		bl	CapSense_IsBusy
 238              	.LVL27:
 239 0020 0028     		cmp	r0, #0
 240 0022 FBD1     		bne	.L13
  40:.\main.c      ****     }
 241              		.loc 1 40 0
 242 0024 FFF7FEFF 		bl	CapSense_DisplayState
 243              	.LVL28:
  41:.\main.c      **** }
 244              		.loc 1 41 0
 245 0028 F4E7     		b	.L14
 246              		.cfi_endproc
 247              	.LFE34:
 248              		.size	main, .-main
 249              		.comm	oldPos,2,2
 250              		.comm	curPos,2,2
 251 002a C046     		.section	.rodata.str1.4,"aMS",%progbits,1
 252              		.align	2
 253              	.LC2:
 254 0000 566F6C75 		.ascii	"Volume lvl: MAX\000"
 254      6D65206C 
 254      766C3A20 
 254      4D415800 
 255              	.LC4:
 256 0010 566F6C75 		.ascii	"Volume lvl: MIN\000"
 256      6D65206C 
 256      766C3A20 
 256      4D494E00 
 257              	.LC6:
 258 0020 566F6C75 		.ascii	"Volume lvl: \000"
 258      6D65206C 
 258      766C3A20 
 258      00
 259 002d 000000   		.text
 260              	.Letext0:
 261              		.file 2 "Generated_Source\\PSoC4/cytypes.h"
 262              		.file 3 "Generated_Source\\PSoC4/LCD.h"
 263              		.file 4 "Generated_Source\\PSoC4/PWM.h"
 264              		.file 5 "Generated_Source\\PSoC4/CapSense.h"
 265              		.file 6 "Generated_Source\\PSoC4/CapSense_CSHL.h"